ARM GAS  /tmp/ccJ2K96T.s 			page 1


   1              		.cpu cortex-m0
   2              		.eabi_attribute 20, 1
   3              		.eabi_attribute 21, 1
   4              		.eabi_attribute 23, 3
   5              		.eabi_attribute 24, 1
   6              		.eabi_attribute 25, 1
   7              		.eabi_attribute 26, 1
   8              		.eabi_attribute 30, 1
   9              		.eabi_attribute 34, 0
  10              		.eabi_attribute 18, 4
  11              		.file	"cmsis_os2.c"
  12              		.text
  13              	.Ltext0:
  14              		.cfi_sections	.debug_frame
  15              		.section	.text.TimerCallback,"ax",%progbits
  16              		.align	1
  17              		.syntax unified
  18              		.code	16
  19              		.thumb_func
  20              		.fpu softvfp
  22              	TimerCallback:
  23              	.LFB57:
  24              		.file 1 "Middlewares/Third_Party/FreeRTOS/Source/CMSIS_RTOS_V2/cmsis_os2.c"
   1:Middlewares/Third_Party/FreeRTOS/Source/CMSIS_RTOS_V2/cmsis_os2.c **** /* --------------------------------------------------------------------------
   2:Middlewares/Third_Party/FreeRTOS/Source/CMSIS_RTOS_V2/cmsis_os2.c ****  * Portions Copyright © 2017 STMicroelectronics International N.V. All rights reserved.
   3:Middlewares/Third_Party/FreeRTOS/Source/CMSIS_RTOS_V2/cmsis_os2.c ****  * Portions Copyright (c) 2013-2017 ARM Limited. All rights reserved.
   4:Middlewares/Third_Party/FreeRTOS/Source/CMSIS_RTOS_V2/cmsis_os2.c ****  * --------------------------------------------------------------------------
   5:Middlewares/Third_Party/FreeRTOS/Source/CMSIS_RTOS_V2/cmsis_os2.c ****  *
   6:Middlewares/Third_Party/FreeRTOS/Source/CMSIS_RTOS_V2/cmsis_os2.c ****  * SPDX-License-Identifier: Apache-2.0
   7:Middlewares/Third_Party/FreeRTOS/Source/CMSIS_RTOS_V2/cmsis_os2.c ****  *
   8:Middlewares/Third_Party/FreeRTOS/Source/CMSIS_RTOS_V2/cmsis_os2.c ****  * Licensed under the Apache License, Version 2.0 (the License); you may
   9:Middlewares/Third_Party/FreeRTOS/Source/CMSIS_RTOS_V2/cmsis_os2.c ****  * not use this file except in compliance with the License.
  10:Middlewares/Third_Party/FreeRTOS/Source/CMSIS_RTOS_V2/cmsis_os2.c ****  * You may obtain a copy of the License at
  11:Middlewares/Third_Party/FreeRTOS/Source/CMSIS_RTOS_V2/cmsis_os2.c ****  *
  12:Middlewares/Third_Party/FreeRTOS/Source/CMSIS_RTOS_V2/cmsis_os2.c ****  * www.apache.org/licenses/LICENSE-2.0
  13:Middlewares/Third_Party/FreeRTOS/Source/CMSIS_RTOS_V2/cmsis_os2.c ****  *
  14:Middlewares/Third_Party/FreeRTOS/Source/CMSIS_RTOS_V2/cmsis_os2.c ****  * Unless required by applicable law or agreed to in writing, software
  15:Middlewares/Third_Party/FreeRTOS/Source/CMSIS_RTOS_V2/cmsis_os2.c ****  * distributed under the License is distributed on an AS IS BASIS, WITHOUT
  16:Middlewares/Third_Party/FreeRTOS/Source/CMSIS_RTOS_V2/cmsis_os2.c ****  * WARRANTIES OR CONDITIONS OF ANY KIND, either express or implied.
  17:Middlewares/Third_Party/FreeRTOS/Source/CMSIS_RTOS_V2/cmsis_os2.c ****  * See the License for the specific language governing permissions and
  18:Middlewares/Third_Party/FreeRTOS/Source/CMSIS_RTOS_V2/cmsis_os2.c ****  * limitations under the License.
  19:Middlewares/Third_Party/FreeRTOS/Source/CMSIS_RTOS_V2/cmsis_os2.c ****  *
  20:Middlewares/Third_Party/FreeRTOS/Source/CMSIS_RTOS_V2/cmsis_os2.c ****  *      Name:    cmsis_os2.c
  21:Middlewares/Third_Party/FreeRTOS/Source/CMSIS_RTOS_V2/cmsis_os2.c ****  *      Purpose: CMSIS RTOS2 wrapper for FreeRTOS
  22:Middlewares/Third_Party/FreeRTOS/Source/CMSIS_RTOS_V2/cmsis_os2.c ****  *
  23:Middlewares/Third_Party/FreeRTOS/Source/CMSIS_RTOS_V2/cmsis_os2.c ****  *---------------------------------------------------------------------------*/
  24:Middlewares/Third_Party/FreeRTOS/Source/CMSIS_RTOS_V2/cmsis_os2.c **** 
  25:Middlewares/Third_Party/FreeRTOS/Source/CMSIS_RTOS_V2/cmsis_os2.c **** #include <string.h>
  26:Middlewares/Third_Party/FreeRTOS/Source/CMSIS_RTOS_V2/cmsis_os2.c **** 
  27:Middlewares/Third_Party/FreeRTOS/Source/CMSIS_RTOS_V2/cmsis_os2.c **** #include "cmsis_os2.h"                  // ::CMSIS:RTOS2
  28:Middlewares/Third_Party/FreeRTOS/Source/CMSIS_RTOS_V2/cmsis_os2.c **** #include "cmsis_compiler.h"
  29:Middlewares/Third_Party/FreeRTOS/Source/CMSIS_RTOS_V2/cmsis_os2.c **** 
  30:Middlewares/Third_Party/FreeRTOS/Source/CMSIS_RTOS_V2/cmsis_os2.c **** #include "FreeRTOS.h"                   // ARM.FreeRTOS::RTOS:Core
  31:Middlewares/Third_Party/FreeRTOS/Source/CMSIS_RTOS_V2/cmsis_os2.c **** #include "task.h"                       // ARM.FreeRTOS::RTOS:Core
  32:Middlewares/Third_Party/FreeRTOS/Source/CMSIS_RTOS_V2/cmsis_os2.c **** #include "event_groups.h"               // ARM.FreeRTOS::RTOS:Event Groups
  33:Middlewares/Third_Party/FreeRTOS/Source/CMSIS_RTOS_V2/cmsis_os2.c **** #include "semphr.h"                     // ARM.FreeRTOS::RTOS:Core
  34:Middlewares/Third_Party/FreeRTOS/Source/CMSIS_RTOS_V2/cmsis_os2.c **** 
ARM GAS  /tmp/ccJ2K96T.s 			page 2


  35:Middlewares/Third_Party/FreeRTOS/Source/CMSIS_RTOS_V2/cmsis_os2.c **** /*---------------------------------------------------------------------------*/
  36:Middlewares/Third_Party/FreeRTOS/Source/CMSIS_RTOS_V2/cmsis_os2.c **** #ifndef __ARM_ARCH_6M__
  37:Middlewares/Third_Party/FreeRTOS/Source/CMSIS_RTOS_V2/cmsis_os2.c ****   #define __ARM_ARCH_6M__         0
  38:Middlewares/Third_Party/FreeRTOS/Source/CMSIS_RTOS_V2/cmsis_os2.c **** #endif
  39:Middlewares/Third_Party/FreeRTOS/Source/CMSIS_RTOS_V2/cmsis_os2.c **** #ifndef __ARM_ARCH_7M__
  40:Middlewares/Third_Party/FreeRTOS/Source/CMSIS_RTOS_V2/cmsis_os2.c ****   #define __ARM_ARCH_7M__         0
  41:Middlewares/Third_Party/FreeRTOS/Source/CMSIS_RTOS_V2/cmsis_os2.c **** #endif
  42:Middlewares/Third_Party/FreeRTOS/Source/CMSIS_RTOS_V2/cmsis_os2.c **** #ifndef __ARM_ARCH_7EM__
  43:Middlewares/Third_Party/FreeRTOS/Source/CMSIS_RTOS_V2/cmsis_os2.c ****   #define __ARM_ARCH_7EM__        0
  44:Middlewares/Third_Party/FreeRTOS/Source/CMSIS_RTOS_V2/cmsis_os2.c **** #endif
  45:Middlewares/Third_Party/FreeRTOS/Source/CMSIS_RTOS_V2/cmsis_os2.c **** #ifndef __ARM_ARCH_8M_MAIN__
  46:Middlewares/Third_Party/FreeRTOS/Source/CMSIS_RTOS_V2/cmsis_os2.c ****   #define __ARM_ARCH_8M_MAIN__    0
  47:Middlewares/Third_Party/FreeRTOS/Source/CMSIS_RTOS_V2/cmsis_os2.c **** #endif
  48:Middlewares/Third_Party/FreeRTOS/Source/CMSIS_RTOS_V2/cmsis_os2.c **** #ifndef __ARM_ARCH_7A__
  49:Middlewares/Third_Party/FreeRTOS/Source/CMSIS_RTOS_V2/cmsis_os2.c ****   #define __ARM_ARCH_7A__         0
  50:Middlewares/Third_Party/FreeRTOS/Source/CMSIS_RTOS_V2/cmsis_os2.c **** #endif
  51:Middlewares/Third_Party/FreeRTOS/Source/CMSIS_RTOS_V2/cmsis_os2.c **** 
  52:Middlewares/Third_Party/FreeRTOS/Source/CMSIS_RTOS_V2/cmsis_os2.c **** #if   ((__ARM_ARCH_7M__      == 1U) || \
  53:Middlewares/Third_Party/FreeRTOS/Source/CMSIS_RTOS_V2/cmsis_os2.c ****        (__ARM_ARCH_7EM__     == 1U) || \
  54:Middlewares/Third_Party/FreeRTOS/Source/CMSIS_RTOS_V2/cmsis_os2.c ****        (__ARM_ARCH_8M_MAIN__ == 1U))
  55:Middlewares/Third_Party/FreeRTOS/Source/CMSIS_RTOS_V2/cmsis_os2.c **** #define IS_IRQ_MASKED()           ((__get_PRIMASK() != 0U) || ((KernelState == osKernelRunning) && 
  56:Middlewares/Third_Party/FreeRTOS/Source/CMSIS_RTOS_V2/cmsis_os2.c **** #elif  (__ARM_ARCH_6M__      == 1U)
  57:Middlewares/Third_Party/FreeRTOS/Source/CMSIS_RTOS_V2/cmsis_os2.c **** #define IS_IRQ_MASKED()           ((__get_PRIMASK() != 0U) &&  (KernelState == osKernelRunning))
  58:Middlewares/Third_Party/FreeRTOS/Source/CMSIS_RTOS_V2/cmsis_os2.c **** #elif (__ARM_ARCH_7A__       == 1)
  59:Middlewares/Third_Party/FreeRTOS/Source/CMSIS_RTOS_V2/cmsis_os2.c **** #define IS_IRQ_MASKED()           (0U)
  60:Middlewares/Third_Party/FreeRTOS/Source/CMSIS_RTOS_V2/cmsis_os2.c **** #else
  61:Middlewares/Third_Party/FreeRTOS/Source/CMSIS_RTOS_V2/cmsis_os2.c **** #define IS_IRQ_MASKED()           (__get_PRIMASK() != 0U)
  62:Middlewares/Third_Party/FreeRTOS/Source/CMSIS_RTOS_V2/cmsis_os2.c **** #endif
  63:Middlewares/Third_Party/FreeRTOS/Source/CMSIS_RTOS_V2/cmsis_os2.c **** 
  64:Middlewares/Third_Party/FreeRTOS/Source/CMSIS_RTOS_V2/cmsis_os2.c **** #if    (__ARM_ARCH_7A__      == 1U)
  65:Middlewares/Third_Party/FreeRTOS/Source/CMSIS_RTOS_V2/cmsis_os2.c **** /* CPSR mode bitmasks */
  66:Middlewares/Third_Party/FreeRTOS/Source/CMSIS_RTOS_V2/cmsis_os2.c **** #define CPSR_MODE_USER            0x10U
  67:Middlewares/Third_Party/FreeRTOS/Source/CMSIS_RTOS_V2/cmsis_os2.c **** #define CPSR_MODE_SYSTEM          0x1FU
  68:Middlewares/Third_Party/FreeRTOS/Source/CMSIS_RTOS_V2/cmsis_os2.c **** 
  69:Middlewares/Third_Party/FreeRTOS/Source/CMSIS_RTOS_V2/cmsis_os2.c **** #define IS_IRQ_MODE()             ((__get_mode() != CPSR_MODE_USER) && (__get_mode() != CPSR_MODE_S
  70:Middlewares/Third_Party/FreeRTOS/Source/CMSIS_RTOS_V2/cmsis_os2.c **** #else
  71:Middlewares/Third_Party/FreeRTOS/Source/CMSIS_RTOS_V2/cmsis_os2.c **** #define IS_IRQ_MODE()             (__get_IPSR() != 0U)
  72:Middlewares/Third_Party/FreeRTOS/Source/CMSIS_RTOS_V2/cmsis_os2.c **** #endif
  73:Middlewares/Third_Party/FreeRTOS/Source/CMSIS_RTOS_V2/cmsis_os2.c **** 
  74:Middlewares/Third_Party/FreeRTOS/Source/CMSIS_RTOS_V2/cmsis_os2.c **** #define IS_IRQ()                  (IS_IRQ_MODE() || IS_IRQ_MASKED())
  75:Middlewares/Third_Party/FreeRTOS/Source/CMSIS_RTOS_V2/cmsis_os2.c **** 
  76:Middlewares/Third_Party/FreeRTOS/Source/CMSIS_RTOS_V2/cmsis_os2.c **** /* Limits */
  77:Middlewares/Third_Party/FreeRTOS/Source/CMSIS_RTOS_V2/cmsis_os2.c **** #define MAX_BITS_TASK_NOTIFY      31U
  78:Middlewares/Third_Party/FreeRTOS/Source/CMSIS_RTOS_V2/cmsis_os2.c **** #define MAX_BITS_EVENT_GROUPS     24U
  79:Middlewares/Third_Party/FreeRTOS/Source/CMSIS_RTOS_V2/cmsis_os2.c **** 
  80:Middlewares/Third_Party/FreeRTOS/Source/CMSIS_RTOS_V2/cmsis_os2.c **** #define THREAD_FLAGS_INVALID_BITS (~((1UL << MAX_BITS_TASK_NOTIFY)  - 1U))
  81:Middlewares/Third_Party/FreeRTOS/Source/CMSIS_RTOS_V2/cmsis_os2.c **** #define EVENT_FLAGS_INVALID_BITS  (~((1UL << MAX_BITS_EVENT_GROUPS) - 1U))
  82:Middlewares/Third_Party/FreeRTOS/Source/CMSIS_RTOS_V2/cmsis_os2.c **** 
  83:Middlewares/Third_Party/FreeRTOS/Source/CMSIS_RTOS_V2/cmsis_os2.c **** /* Kernel version and identification string definition */
  84:Middlewares/Third_Party/FreeRTOS/Source/CMSIS_RTOS_V2/cmsis_os2.c **** #define KERNEL_VERSION            (((uint32_t)tskKERNEL_VERSION_MAJOR * 10000000UL) | \
  85:Middlewares/Third_Party/FreeRTOS/Source/CMSIS_RTOS_V2/cmsis_os2.c ****                                    ((uint32_t)tskKERNEL_VERSION_MINOR *    10000UL) | \
  86:Middlewares/Third_Party/FreeRTOS/Source/CMSIS_RTOS_V2/cmsis_os2.c ****                                    ((uint32_t)tskKERNEL_VERSION_BUILD *        1UL))
  87:Middlewares/Third_Party/FreeRTOS/Source/CMSIS_RTOS_V2/cmsis_os2.c **** 
  88:Middlewares/Third_Party/FreeRTOS/Source/CMSIS_RTOS_V2/cmsis_os2.c **** #define KERNEL_ID                 "FreeRTOS V10.0.1"
  89:Middlewares/Third_Party/FreeRTOS/Source/CMSIS_RTOS_V2/cmsis_os2.c **** 
  90:Middlewares/Third_Party/FreeRTOS/Source/CMSIS_RTOS_V2/cmsis_os2.c **** /* Timer callback information structure definition */
  91:Middlewares/Third_Party/FreeRTOS/Source/CMSIS_RTOS_V2/cmsis_os2.c **** typedef struct {
ARM GAS  /tmp/ccJ2K96T.s 			page 3


  92:Middlewares/Third_Party/FreeRTOS/Source/CMSIS_RTOS_V2/cmsis_os2.c ****   osTimerFunc_t func;
  93:Middlewares/Third_Party/FreeRTOS/Source/CMSIS_RTOS_V2/cmsis_os2.c ****   void         *arg;
  94:Middlewares/Third_Party/FreeRTOS/Source/CMSIS_RTOS_V2/cmsis_os2.c **** } TimerCallback_t;
  95:Middlewares/Third_Party/FreeRTOS/Source/CMSIS_RTOS_V2/cmsis_os2.c **** 
  96:Middlewares/Third_Party/FreeRTOS/Source/CMSIS_RTOS_V2/cmsis_os2.c **** /* Kernel initialization state */
  97:Middlewares/Third_Party/FreeRTOS/Source/CMSIS_RTOS_V2/cmsis_os2.c **** static osKernelState_t KernelState;
  98:Middlewares/Third_Party/FreeRTOS/Source/CMSIS_RTOS_V2/cmsis_os2.c **** 
  99:Middlewares/Third_Party/FreeRTOS/Source/CMSIS_RTOS_V2/cmsis_os2.c **** /* Heap region definition used by heap_5 variant */
 100:Middlewares/Third_Party/FreeRTOS/Source/CMSIS_RTOS_V2/cmsis_os2.c **** #if defined(USE_FreeRTOS_HEAP_5)
 101:Middlewares/Third_Party/FreeRTOS/Source/CMSIS_RTOS_V2/cmsis_os2.c **** #if (configAPPLICATION_ALLOCATED_HEAP == 1)
 102:Middlewares/Third_Party/FreeRTOS/Source/CMSIS_RTOS_V2/cmsis_os2.c **** /*
 103:Middlewares/Third_Party/FreeRTOS/Source/CMSIS_RTOS_V2/cmsis_os2.c ****   The application writer has already defined the array used for the RTOS
 104:Middlewares/Third_Party/FreeRTOS/Source/CMSIS_RTOS_V2/cmsis_os2.c ****   heap - probably so it can be placed in a special segment or address.
 105:Middlewares/Third_Party/FreeRTOS/Source/CMSIS_RTOS_V2/cmsis_os2.c **** */
 106:Middlewares/Third_Party/FreeRTOS/Source/CMSIS_RTOS_V2/cmsis_os2.c ****   extern uint8_t ucHeap[configTOTAL_HEAP_SIZE];
 107:Middlewares/Third_Party/FreeRTOS/Source/CMSIS_RTOS_V2/cmsis_os2.c **** #else
 108:Middlewares/Third_Party/FreeRTOS/Source/CMSIS_RTOS_V2/cmsis_os2.c ****   static uint8_t ucHeap[configTOTAL_HEAP_SIZE];
 109:Middlewares/Third_Party/FreeRTOS/Source/CMSIS_RTOS_V2/cmsis_os2.c **** #endif /* configAPPLICATION_ALLOCATED_HEAP */
 110:Middlewares/Third_Party/FreeRTOS/Source/CMSIS_RTOS_V2/cmsis_os2.c **** 
 111:Middlewares/Third_Party/FreeRTOS/Source/CMSIS_RTOS_V2/cmsis_os2.c **** static HeapRegion_t xHeapRegions[] = {
 112:Middlewares/Third_Party/FreeRTOS/Source/CMSIS_RTOS_V2/cmsis_os2.c ****   { ucHeap, configTOTAL_HEAP_SIZE },
 113:Middlewares/Third_Party/FreeRTOS/Source/CMSIS_RTOS_V2/cmsis_os2.c ****   { NULL,   0                     }
 114:Middlewares/Third_Party/FreeRTOS/Source/CMSIS_RTOS_V2/cmsis_os2.c **** };
 115:Middlewares/Third_Party/FreeRTOS/Source/CMSIS_RTOS_V2/cmsis_os2.c **** #endif /* USE_FreeRTOS_HEAP_5 */
 116:Middlewares/Third_Party/FreeRTOS/Source/CMSIS_RTOS_V2/cmsis_os2.c **** 
 117:Middlewares/Third_Party/FreeRTOS/Source/CMSIS_RTOS_V2/cmsis_os2.c **** #if defined(SysTick)
 118:Middlewares/Third_Party/FreeRTOS/Source/CMSIS_RTOS_V2/cmsis_os2.c **** /* FreeRTOS tick timer interrupt handler prototype */
 119:Middlewares/Third_Party/FreeRTOS/Source/CMSIS_RTOS_V2/cmsis_os2.c **** extern void xPortSysTickHandler (void);
 120:Middlewares/Third_Party/FreeRTOS/Source/CMSIS_RTOS_V2/cmsis_os2.c **** 
 121:Middlewares/Third_Party/FreeRTOS/Source/CMSIS_RTOS_V2/cmsis_os2.c **** /*
 122:Middlewares/Third_Party/FreeRTOS/Source/CMSIS_RTOS_V2/cmsis_os2.c ****   SysTick handler implementation that also clears overflow flag.
 123:Middlewares/Third_Party/FreeRTOS/Source/CMSIS_RTOS_V2/cmsis_os2.c **** */
 124:Middlewares/Third_Party/FreeRTOS/Source/CMSIS_RTOS_V2/cmsis_os2.c **** void SysTick_Handler (void) {
 125:Middlewares/Third_Party/FreeRTOS/Source/CMSIS_RTOS_V2/cmsis_os2.c ****   /* Clear overflow flag */
 126:Middlewares/Third_Party/FreeRTOS/Source/CMSIS_RTOS_V2/cmsis_os2.c ****   SysTick->CTRL;
 127:Middlewares/Third_Party/FreeRTOS/Source/CMSIS_RTOS_V2/cmsis_os2.c **** 
 128:Middlewares/Third_Party/FreeRTOS/Source/CMSIS_RTOS_V2/cmsis_os2.c ****   /* Call tick handler */
 129:Middlewares/Third_Party/FreeRTOS/Source/CMSIS_RTOS_V2/cmsis_os2.c ****   xPortSysTickHandler();
 130:Middlewares/Third_Party/FreeRTOS/Source/CMSIS_RTOS_V2/cmsis_os2.c **** }
 131:Middlewares/Third_Party/FreeRTOS/Source/CMSIS_RTOS_V2/cmsis_os2.c **** #endif /* SysTick */
 132:Middlewares/Third_Party/FreeRTOS/Source/CMSIS_RTOS_V2/cmsis_os2.c **** 
 133:Middlewares/Third_Party/FreeRTOS/Source/CMSIS_RTOS_V2/cmsis_os2.c **** /*---------------------------------------------------------------------------*/
 134:Middlewares/Third_Party/FreeRTOS/Source/CMSIS_RTOS_V2/cmsis_os2.c **** 
 135:Middlewares/Third_Party/FreeRTOS/Source/CMSIS_RTOS_V2/cmsis_os2.c **** osStatus_t osKernelInitialize (void) {
 136:Middlewares/Third_Party/FreeRTOS/Source/CMSIS_RTOS_V2/cmsis_os2.c ****   osStatus_t stat;
 137:Middlewares/Third_Party/FreeRTOS/Source/CMSIS_RTOS_V2/cmsis_os2.c **** 
 138:Middlewares/Third_Party/FreeRTOS/Source/CMSIS_RTOS_V2/cmsis_os2.c ****   if (IS_IRQ()) {
 139:Middlewares/Third_Party/FreeRTOS/Source/CMSIS_RTOS_V2/cmsis_os2.c ****     stat = osErrorISR;
 140:Middlewares/Third_Party/FreeRTOS/Source/CMSIS_RTOS_V2/cmsis_os2.c ****   }
 141:Middlewares/Third_Party/FreeRTOS/Source/CMSIS_RTOS_V2/cmsis_os2.c ****   else {
 142:Middlewares/Third_Party/FreeRTOS/Source/CMSIS_RTOS_V2/cmsis_os2.c ****     if (KernelState == osKernelInactive) {
 143:Middlewares/Third_Party/FreeRTOS/Source/CMSIS_RTOS_V2/cmsis_os2.c ****       #if defined(USE_FreeRTOS_HEAP_5)
 144:Middlewares/Third_Party/FreeRTOS/Source/CMSIS_RTOS_V2/cmsis_os2.c ****         vPortDefineHeapRegions (xHeapRegions);
 145:Middlewares/Third_Party/FreeRTOS/Source/CMSIS_RTOS_V2/cmsis_os2.c ****       #endif
 146:Middlewares/Third_Party/FreeRTOS/Source/CMSIS_RTOS_V2/cmsis_os2.c ****       KernelState = osKernelReady;
 147:Middlewares/Third_Party/FreeRTOS/Source/CMSIS_RTOS_V2/cmsis_os2.c ****       stat = osOK;
 148:Middlewares/Third_Party/FreeRTOS/Source/CMSIS_RTOS_V2/cmsis_os2.c ****     } else {
ARM GAS  /tmp/ccJ2K96T.s 			page 4


 149:Middlewares/Third_Party/FreeRTOS/Source/CMSIS_RTOS_V2/cmsis_os2.c ****       stat = osError;
 150:Middlewares/Third_Party/FreeRTOS/Source/CMSIS_RTOS_V2/cmsis_os2.c ****     }
 151:Middlewares/Third_Party/FreeRTOS/Source/CMSIS_RTOS_V2/cmsis_os2.c ****   }
 152:Middlewares/Third_Party/FreeRTOS/Source/CMSIS_RTOS_V2/cmsis_os2.c **** 
 153:Middlewares/Third_Party/FreeRTOS/Source/CMSIS_RTOS_V2/cmsis_os2.c ****   return (stat);
 154:Middlewares/Third_Party/FreeRTOS/Source/CMSIS_RTOS_V2/cmsis_os2.c **** }
 155:Middlewares/Third_Party/FreeRTOS/Source/CMSIS_RTOS_V2/cmsis_os2.c **** 
 156:Middlewares/Third_Party/FreeRTOS/Source/CMSIS_RTOS_V2/cmsis_os2.c **** osStatus_t osKernelGetInfo (osVersion_t *version, char *id_buf, uint32_t id_size) {
 157:Middlewares/Third_Party/FreeRTOS/Source/CMSIS_RTOS_V2/cmsis_os2.c **** 
 158:Middlewares/Third_Party/FreeRTOS/Source/CMSIS_RTOS_V2/cmsis_os2.c ****   if (version != NULL) {
 159:Middlewares/Third_Party/FreeRTOS/Source/CMSIS_RTOS_V2/cmsis_os2.c ****     version->api    = KERNEL_VERSION;
 160:Middlewares/Third_Party/FreeRTOS/Source/CMSIS_RTOS_V2/cmsis_os2.c ****     version->kernel = KERNEL_VERSION;
 161:Middlewares/Third_Party/FreeRTOS/Source/CMSIS_RTOS_V2/cmsis_os2.c ****   }
 162:Middlewares/Third_Party/FreeRTOS/Source/CMSIS_RTOS_V2/cmsis_os2.c **** 
 163:Middlewares/Third_Party/FreeRTOS/Source/CMSIS_RTOS_V2/cmsis_os2.c ****   if ((id_buf != NULL) && (id_size != 0U)) {
 164:Middlewares/Third_Party/FreeRTOS/Source/CMSIS_RTOS_V2/cmsis_os2.c ****     if (id_size > sizeof(KERNEL_ID)) {
 165:Middlewares/Third_Party/FreeRTOS/Source/CMSIS_RTOS_V2/cmsis_os2.c ****       id_size = sizeof(KERNEL_ID);
 166:Middlewares/Third_Party/FreeRTOS/Source/CMSIS_RTOS_V2/cmsis_os2.c ****     }
 167:Middlewares/Third_Party/FreeRTOS/Source/CMSIS_RTOS_V2/cmsis_os2.c ****     memcpy(id_buf, KERNEL_ID, id_size);
 168:Middlewares/Third_Party/FreeRTOS/Source/CMSIS_RTOS_V2/cmsis_os2.c ****   }
 169:Middlewares/Third_Party/FreeRTOS/Source/CMSIS_RTOS_V2/cmsis_os2.c **** 
 170:Middlewares/Third_Party/FreeRTOS/Source/CMSIS_RTOS_V2/cmsis_os2.c ****   return (osOK);
 171:Middlewares/Third_Party/FreeRTOS/Source/CMSIS_RTOS_V2/cmsis_os2.c **** }
 172:Middlewares/Third_Party/FreeRTOS/Source/CMSIS_RTOS_V2/cmsis_os2.c **** 
 173:Middlewares/Third_Party/FreeRTOS/Source/CMSIS_RTOS_V2/cmsis_os2.c **** osKernelState_t osKernelGetState (void) {
 174:Middlewares/Third_Party/FreeRTOS/Source/CMSIS_RTOS_V2/cmsis_os2.c ****   osKernelState_t state;
 175:Middlewares/Third_Party/FreeRTOS/Source/CMSIS_RTOS_V2/cmsis_os2.c **** 
 176:Middlewares/Third_Party/FreeRTOS/Source/CMSIS_RTOS_V2/cmsis_os2.c ****   switch (xTaskGetSchedulerState()) {
 177:Middlewares/Third_Party/FreeRTOS/Source/CMSIS_RTOS_V2/cmsis_os2.c ****     case taskSCHEDULER_RUNNING:
 178:Middlewares/Third_Party/FreeRTOS/Source/CMSIS_RTOS_V2/cmsis_os2.c ****       state = osKernelRunning;
 179:Middlewares/Third_Party/FreeRTOS/Source/CMSIS_RTOS_V2/cmsis_os2.c ****       break;
 180:Middlewares/Third_Party/FreeRTOS/Source/CMSIS_RTOS_V2/cmsis_os2.c **** 
 181:Middlewares/Third_Party/FreeRTOS/Source/CMSIS_RTOS_V2/cmsis_os2.c ****     case taskSCHEDULER_SUSPENDED:
 182:Middlewares/Third_Party/FreeRTOS/Source/CMSIS_RTOS_V2/cmsis_os2.c ****       state = osKernelLocked;
 183:Middlewares/Third_Party/FreeRTOS/Source/CMSIS_RTOS_V2/cmsis_os2.c ****       break;
 184:Middlewares/Third_Party/FreeRTOS/Source/CMSIS_RTOS_V2/cmsis_os2.c **** 
 185:Middlewares/Third_Party/FreeRTOS/Source/CMSIS_RTOS_V2/cmsis_os2.c ****     case taskSCHEDULER_NOT_STARTED:
 186:Middlewares/Third_Party/FreeRTOS/Source/CMSIS_RTOS_V2/cmsis_os2.c ****     default:
 187:Middlewares/Third_Party/FreeRTOS/Source/CMSIS_RTOS_V2/cmsis_os2.c ****       if (KernelState == osKernelReady) {
 188:Middlewares/Third_Party/FreeRTOS/Source/CMSIS_RTOS_V2/cmsis_os2.c ****         state = osKernelReady;
 189:Middlewares/Third_Party/FreeRTOS/Source/CMSIS_RTOS_V2/cmsis_os2.c ****       } else {
 190:Middlewares/Third_Party/FreeRTOS/Source/CMSIS_RTOS_V2/cmsis_os2.c ****         state = osKernelInactive;
 191:Middlewares/Third_Party/FreeRTOS/Source/CMSIS_RTOS_V2/cmsis_os2.c ****       }
 192:Middlewares/Third_Party/FreeRTOS/Source/CMSIS_RTOS_V2/cmsis_os2.c ****       break;
 193:Middlewares/Third_Party/FreeRTOS/Source/CMSIS_RTOS_V2/cmsis_os2.c ****   }
 194:Middlewares/Third_Party/FreeRTOS/Source/CMSIS_RTOS_V2/cmsis_os2.c **** 
 195:Middlewares/Third_Party/FreeRTOS/Source/CMSIS_RTOS_V2/cmsis_os2.c ****   return (state);
 196:Middlewares/Third_Party/FreeRTOS/Source/CMSIS_RTOS_V2/cmsis_os2.c **** }
 197:Middlewares/Third_Party/FreeRTOS/Source/CMSIS_RTOS_V2/cmsis_os2.c **** 
 198:Middlewares/Third_Party/FreeRTOS/Source/CMSIS_RTOS_V2/cmsis_os2.c **** osStatus_t osKernelStart (void) {
 199:Middlewares/Third_Party/FreeRTOS/Source/CMSIS_RTOS_V2/cmsis_os2.c ****   osStatus_t stat;
 200:Middlewares/Third_Party/FreeRTOS/Source/CMSIS_RTOS_V2/cmsis_os2.c **** 
 201:Middlewares/Third_Party/FreeRTOS/Source/CMSIS_RTOS_V2/cmsis_os2.c ****   if (IS_IRQ()) {
 202:Middlewares/Third_Party/FreeRTOS/Source/CMSIS_RTOS_V2/cmsis_os2.c ****     stat = osErrorISR;
 203:Middlewares/Third_Party/FreeRTOS/Source/CMSIS_RTOS_V2/cmsis_os2.c ****   }
 204:Middlewares/Third_Party/FreeRTOS/Source/CMSIS_RTOS_V2/cmsis_os2.c ****   else {
 205:Middlewares/Third_Party/FreeRTOS/Source/CMSIS_RTOS_V2/cmsis_os2.c ****     if (KernelState == osKernelReady) {
ARM GAS  /tmp/ccJ2K96T.s 			page 5


 206:Middlewares/Third_Party/FreeRTOS/Source/CMSIS_RTOS_V2/cmsis_os2.c ****       KernelState = osKernelRunning;
 207:Middlewares/Third_Party/FreeRTOS/Source/CMSIS_RTOS_V2/cmsis_os2.c ****       vTaskStartScheduler();
 208:Middlewares/Third_Party/FreeRTOS/Source/CMSIS_RTOS_V2/cmsis_os2.c ****       stat = osOK;
 209:Middlewares/Third_Party/FreeRTOS/Source/CMSIS_RTOS_V2/cmsis_os2.c ****     } else {
 210:Middlewares/Third_Party/FreeRTOS/Source/CMSIS_RTOS_V2/cmsis_os2.c ****       stat = osError;
 211:Middlewares/Third_Party/FreeRTOS/Source/CMSIS_RTOS_V2/cmsis_os2.c ****     }
 212:Middlewares/Third_Party/FreeRTOS/Source/CMSIS_RTOS_V2/cmsis_os2.c ****   }
 213:Middlewares/Third_Party/FreeRTOS/Source/CMSIS_RTOS_V2/cmsis_os2.c **** 
 214:Middlewares/Third_Party/FreeRTOS/Source/CMSIS_RTOS_V2/cmsis_os2.c ****   return (stat);
 215:Middlewares/Third_Party/FreeRTOS/Source/CMSIS_RTOS_V2/cmsis_os2.c **** }
 216:Middlewares/Third_Party/FreeRTOS/Source/CMSIS_RTOS_V2/cmsis_os2.c **** 
 217:Middlewares/Third_Party/FreeRTOS/Source/CMSIS_RTOS_V2/cmsis_os2.c **** int32_t osKernelLock (void) {
 218:Middlewares/Third_Party/FreeRTOS/Source/CMSIS_RTOS_V2/cmsis_os2.c ****   int32_t lock;
 219:Middlewares/Third_Party/FreeRTOS/Source/CMSIS_RTOS_V2/cmsis_os2.c **** 
 220:Middlewares/Third_Party/FreeRTOS/Source/CMSIS_RTOS_V2/cmsis_os2.c ****   if (IS_IRQ()) {
 221:Middlewares/Third_Party/FreeRTOS/Source/CMSIS_RTOS_V2/cmsis_os2.c ****     lock = (int32_t)osErrorISR;
 222:Middlewares/Third_Party/FreeRTOS/Source/CMSIS_RTOS_V2/cmsis_os2.c ****   }
 223:Middlewares/Third_Party/FreeRTOS/Source/CMSIS_RTOS_V2/cmsis_os2.c ****   else {
 224:Middlewares/Third_Party/FreeRTOS/Source/CMSIS_RTOS_V2/cmsis_os2.c ****     switch (xTaskGetSchedulerState()) {
 225:Middlewares/Third_Party/FreeRTOS/Source/CMSIS_RTOS_V2/cmsis_os2.c ****       case taskSCHEDULER_SUSPENDED:
 226:Middlewares/Third_Party/FreeRTOS/Source/CMSIS_RTOS_V2/cmsis_os2.c ****         lock = 1;
 227:Middlewares/Third_Party/FreeRTOS/Source/CMSIS_RTOS_V2/cmsis_os2.c ****         break;
 228:Middlewares/Third_Party/FreeRTOS/Source/CMSIS_RTOS_V2/cmsis_os2.c **** 
 229:Middlewares/Third_Party/FreeRTOS/Source/CMSIS_RTOS_V2/cmsis_os2.c ****       case taskSCHEDULER_RUNNING:
 230:Middlewares/Third_Party/FreeRTOS/Source/CMSIS_RTOS_V2/cmsis_os2.c ****         vTaskSuspendAll();
 231:Middlewares/Third_Party/FreeRTOS/Source/CMSIS_RTOS_V2/cmsis_os2.c ****         lock = 0;
 232:Middlewares/Third_Party/FreeRTOS/Source/CMSIS_RTOS_V2/cmsis_os2.c ****         break;
 233:Middlewares/Third_Party/FreeRTOS/Source/CMSIS_RTOS_V2/cmsis_os2.c **** 
 234:Middlewares/Third_Party/FreeRTOS/Source/CMSIS_RTOS_V2/cmsis_os2.c ****       case taskSCHEDULER_NOT_STARTED:
 235:Middlewares/Third_Party/FreeRTOS/Source/CMSIS_RTOS_V2/cmsis_os2.c ****       default:
 236:Middlewares/Third_Party/FreeRTOS/Source/CMSIS_RTOS_V2/cmsis_os2.c ****         lock = (int32_t)osError;
 237:Middlewares/Third_Party/FreeRTOS/Source/CMSIS_RTOS_V2/cmsis_os2.c ****         break;
 238:Middlewares/Third_Party/FreeRTOS/Source/CMSIS_RTOS_V2/cmsis_os2.c ****     }
 239:Middlewares/Third_Party/FreeRTOS/Source/CMSIS_RTOS_V2/cmsis_os2.c ****   }
 240:Middlewares/Third_Party/FreeRTOS/Source/CMSIS_RTOS_V2/cmsis_os2.c **** 
 241:Middlewares/Third_Party/FreeRTOS/Source/CMSIS_RTOS_V2/cmsis_os2.c ****   return (lock);
 242:Middlewares/Third_Party/FreeRTOS/Source/CMSIS_RTOS_V2/cmsis_os2.c **** }
 243:Middlewares/Third_Party/FreeRTOS/Source/CMSIS_RTOS_V2/cmsis_os2.c **** 
 244:Middlewares/Third_Party/FreeRTOS/Source/CMSIS_RTOS_V2/cmsis_os2.c **** int32_t osKernelUnlock (void) {
 245:Middlewares/Third_Party/FreeRTOS/Source/CMSIS_RTOS_V2/cmsis_os2.c ****   int32_t lock;
 246:Middlewares/Third_Party/FreeRTOS/Source/CMSIS_RTOS_V2/cmsis_os2.c **** 
 247:Middlewares/Third_Party/FreeRTOS/Source/CMSIS_RTOS_V2/cmsis_os2.c ****   if (IS_IRQ()) {
 248:Middlewares/Third_Party/FreeRTOS/Source/CMSIS_RTOS_V2/cmsis_os2.c ****     lock = (int32_t)osErrorISR;
 249:Middlewares/Third_Party/FreeRTOS/Source/CMSIS_RTOS_V2/cmsis_os2.c ****   }
 250:Middlewares/Third_Party/FreeRTOS/Source/CMSIS_RTOS_V2/cmsis_os2.c ****   else {
 251:Middlewares/Third_Party/FreeRTOS/Source/CMSIS_RTOS_V2/cmsis_os2.c ****     switch (xTaskGetSchedulerState()) {
 252:Middlewares/Third_Party/FreeRTOS/Source/CMSIS_RTOS_V2/cmsis_os2.c ****       case taskSCHEDULER_SUSPENDED:
 253:Middlewares/Third_Party/FreeRTOS/Source/CMSIS_RTOS_V2/cmsis_os2.c ****         lock = 1;
 254:Middlewares/Third_Party/FreeRTOS/Source/CMSIS_RTOS_V2/cmsis_os2.c **** 
 255:Middlewares/Third_Party/FreeRTOS/Source/CMSIS_RTOS_V2/cmsis_os2.c ****         if (xTaskResumeAll() != pdTRUE) {
 256:Middlewares/Third_Party/FreeRTOS/Source/CMSIS_RTOS_V2/cmsis_os2.c ****           if (xTaskGetSchedulerState() == taskSCHEDULER_SUSPENDED) {
 257:Middlewares/Third_Party/FreeRTOS/Source/CMSIS_RTOS_V2/cmsis_os2.c ****             lock = (int32_t)osError;
 258:Middlewares/Third_Party/FreeRTOS/Source/CMSIS_RTOS_V2/cmsis_os2.c ****           }
 259:Middlewares/Third_Party/FreeRTOS/Source/CMSIS_RTOS_V2/cmsis_os2.c ****         }
 260:Middlewares/Third_Party/FreeRTOS/Source/CMSIS_RTOS_V2/cmsis_os2.c ****         break;
 261:Middlewares/Third_Party/FreeRTOS/Source/CMSIS_RTOS_V2/cmsis_os2.c **** 
 262:Middlewares/Third_Party/FreeRTOS/Source/CMSIS_RTOS_V2/cmsis_os2.c ****       case taskSCHEDULER_RUNNING:
ARM GAS  /tmp/ccJ2K96T.s 			page 6


 263:Middlewares/Third_Party/FreeRTOS/Source/CMSIS_RTOS_V2/cmsis_os2.c ****         lock = 0;
 264:Middlewares/Third_Party/FreeRTOS/Source/CMSIS_RTOS_V2/cmsis_os2.c ****         break;
 265:Middlewares/Third_Party/FreeRTOS/Source/CMSIS_RTOS_V2/cmsis_os2.c **** 
 266:Middlewares/Third_Party/FreeRTOS/Source/CMSIS_RTOS_V2/cmsis_os2.c ****       case taskSCHEDULER_NOT_STARTED:
 267:Middlewares/Third_Party/FreeRTOS/Source/CMSIS_RTOS_V2/cmsis_os2.c ****       default:
 268:Middlewares/Third_Party/FreeRTOS/Source/CMSIS_RTOS_V2/cmsis_os2.c ****         lock = (int32_t)osError;
 269:Middlewares/Third_Party/FreeRTOS/Source/CMSIS_RTOS_V2/cmsis_os2.c ****         break;
 270:Middlewares/Third_Party/FreeRTOS/Source/CMSIS_RTOS_V2/cmsis_os2.c ****     }
 271:Middlewares/Third_Party/FreeRTOS/Source/CMSIS_RTOS_V2/cmsis_os2.c ****   }
 272:Middlewares/Third_Party/FreeRTOS/Source/CMSIS_RTOS_V2/cmsis_os2.c **** 
 273:Middlewares/Third_Party/FreeRTOS/Source/CMSIS_RTOS_V2/cmsis_os2.c ****   return (lock);
 274:Middlewares/Third_Party/FreeRTOS/Source/CMSIS_RTOS_V2/cmsis_os2.c **** }
 275:Middlewares/Third_Party/FreeRTOS/Source/CMSIS_RTOS_V2/cmsis_os2.c **** 
 276:Middlewares/Third_Party/FreeRTOS/Source/CMSIS_RTOS_V2/cmsis_os2.c **** int32_t osKernelRestoreLock (int32_t lock) {
 277:Middlewares/Third_Party/FreeRTOS/Source/CMSIS_RTOS_V2/cmsis_os2.c **** 
 278:Middlewares/Third_Party/FreeRTOS/Source/CMSIS_RTOS_V2/cmsis_os2.c ****   if (IS_IRQ()) {
 279:Middlewares/Third_Party/FreeRTOS/Source/CMSIS_RTOS_V2/cmsis_os2.c ****     lock = (int32_t)osErrorISR;
 280:Middlewares/Third_Party/FreeRTOS/Source/CMSIS_RTOS_V2/cmsis_os2.c ****   }
 281:Middlewares/Third_Party/FreeRTOS/Source/CMSIS_RTOS_V2/cmsis_os2.c ****   else {
 282:Middlewares/Third_Party/FreeRTOS/Source/CMSIS_RTOS_V2/cmsis_os2.c ****     switch (xTaskGetSchedulerState()) {
 283:Middlewares/Third_Party/FreeRTOS/Source/CMSIS_RTOS_V2/cmsis_os2.c ****       case taskSCHEDULER_SUSPENDED:
 284:Middlewares/Third_Party/FreeRTOS/Source/CMSIS_RTOS_V2/cmsis_os2.c ****       case taskSCHEDULER_RUNNING:
 285:Middlewares/Third_Party/FreeRTOS/Source/CMSIS_RTOS_V2/cmsis_os2.c ****         if (lock == 1) {
 286:Middlewares/Third_Party/FreeRTOS/Source/CMSIS_RTOS_V2/cmsis_os2.c ****           vTaskSuspendAll();
 287:Middlewares/Third_Party/FreeRTOS/Source/CMSIS_RTOS_V2/cmsis_os2.c ****         }
 288:Middlewares/Third_Party/FreeRTOS/Source/CMSIS_RTOS_V2/cmsis_os2.c ****         else {
 289:Middlewares/Third_Party/FreeRTOS/Source/CMSIS_RTOS_V2/cmsis_os2.c ****           if (lock != 0) {
 290:Middlewares/Third_Party/FreeRTOS/Source/CMSIS_RTOS_V2/cmsis_os2.c ****             lock = (int32_t)osError;
 291:Middlewares/Third_Party/FreeRTOS/Source/CMSIS_RTOS_V2/cmsis_os2.c ****           }
 292:Middlewares/Third_Party/FreeRTOS/Source/CMSIS_RTOS_V2/cmsis_os2.c ****           else {
 293:Middlewares/Third_Party/FreeRTOS/Source/CMSIS_RTOS_V2/cmsis_os2.c ****             if (xTaskResumeAll() != pdTRUE) {
 294:Middlewares/Third_Party/FreeRTOS/Source/CMSIS_RTOS_V2/cmsis_os2.c ****               if (xTaskGetSchedulerState() != taskSCHEDULER_RUNNING) {
 295:Middlewares/Third_Party/FreeRTOS/Source/CMSIS_RTOS_V2/cmsis_os2.c ****                 lock = (int32_t)osError;
 296:Middlewares/Third_Party/FreeRTOS/Source/CMSIS_RTOS_V2/cmsis_os2.c ****               }
 297:Middlewares/Third_Party/FreeRTOS/Source/CMSIS_RTOS_V2/cmsis_os2.c ****             }
 298:Middlewares/Third_Party/FreeRTOS/Source/CMSIS_RTOS_V2/cmsis_os2.c ****           }
 299:Middlewares/Third_Party/FreeRTOS/Source/CMSIS_RTOS_V2/cmsis_os2.c ****         }
 300:Middlewares/Third_Party/FreeRTOS/Source/CMSIS_RTOS_V2/cmsis_os2.c ****         break;
 301:Middlewares/Third_Party/FreeRTOS/Source/CMSIS_RTOS_V2/cmsis_os2.c **** 
 302:Middlewares/Third_Party/FreeRTOS/Source/CMSIS_RTOS_V2/cmsis_os2.c ****       case taskSCHEDULER_NOT_STARTED:
 303:Middlewares/Third_Party/FreeRTOS/Source/CMSIS_RTOS_V2/cmsis_os2.c ****       default:
 304:Middlewares/Third_Party/FreeRTOS/Source/CMSIS_RTOS_V2/cmsis_os2.c ****         lock = (int32_t)osError;
 305:Middlewares/Third_Party/FreeRTOS/Source/CMSIS_RTOS_V2/cmsis_os2.c ****         break;
 306:Middlewares/Third_Party/FreeRTOS/Source/CMSIS_RTOS_V2/cmsis_os2.c ****     }
 307:Middlewares/Third_Party/FreeRTOS/Source/CMSIS_RTOS_V2/cmsis_os2.c ****   }
 308:Middlewares/Third_Party/FreeRTOS/Source/CMSIS_RTOS_V2/cmsis_os2.c **** 
 309:Middlewares/Third_Party/FreeRTOS/Source/CMSIS_RTOS_V2/cmsis_os2.c ****   return (lock);
 310:Middlewares/Third_Party/FreeRTOS/Source/CMSIS_RTOS_V2/cmsis_os2.c **** }
 311:Middlewares/Third_Party/FreeRTOS/Source/CMSIS_RTOS_V2/cmsis_os2.c **** 
 312:Middlewares/Third_Party/FreeRTOS/Source/CMSIS_RTOS_V2/cmsis_os2.c **** uint32_t osKernelGetTickCount (void) {
 313:Middlewares/Third_Party/FreeRTOS/Source/CMSIS_RTOS_V2/cmsis_os2.c ****   TickType_t ticks;
 314:Middlewares/Third_Party/FreeRTOS/Source/CMSIS_RTOS_V2/cmsis_os2.c **** 
 315:Middlewares/Third_Party/FreeRTOS/Source/CMSIS_RTOS_V2/cmsis_os2.c ****   if (IS_IRQ()) {
 316:Middlewares/Third_Party/FreeRTOS/Source/CMSIS_RTOS_V2/cmsis_os2.c ****     ticks = xTaskGetTickCountFromISR();
 317:Middlewares/Third_Party/FreeRTOS/Source/CMSIS_RTOS_V2/cmsis_os2.c ****   } else {
 318:Middlewares/Third_Party/FreeRTOS/Source/CMSIS_RTOS_V2/cmsis_os2.c ****     ticks = xTaskGetTickCount();
 319:Middlewares/Third_Party/FreeRTOS/Source/CMSIS_RTOS_V2/cmsis_os2.c ****   }
ARM GAS  /tmp/ccJ2K96T.s 			page 7


 320:Middlewares/Third_Party/FreeRTOS/Source/CMSIS_RTOS_V2/cmsis_os2.c **** 
 321:Middlewares/Third_Party/FreeRTOS/Source/CMSIS_RTOS_V2/cmsis_os2.c ****   return (ticks);
 322:Middlewares/Third_Party/FreeRTOS/Source/CMSIS_RTOS_V2/cmsis_os2.c **** }
 323:Middlewares/Third_Party/FreeRTOS/Source/CMSIS_RTOS_V2/cmsis_os2.c **** 
 324:Middlewares/Third_Party/FreeRTOS/Source/CMSIS_RTOS_V2/cmsis_os2.c **** uint32_t osKernelGetTickFreq (void) {
 325:Middlewares/Third_Party/FreeRTOS/Source/CMSIS_RTOS_V2/cmsis_os2.c ****   return (configTICK_RATE_HZ);
 326:Middlewares/Third_Party/FreeRTOS/Source/CMSIS_RTOS_V2/cmsis_os2.c **** }
 327:Middlewares/Third_Party/FreeRTOS/Source/CMSIS_RTOS_V2/cmsis_os2.c **** 
 328:Middlewares/Third_Party/FreeRTOS/Source/CMSIS_RTOS_V2/cmsis_os2.c **** uint32_t osKernelGetSysTimerCount (void) {
 329:Middlewares/Third_Party/FreeRTOS/Source/CMSIS_RTOS_V2/cmsis_os2.c ****   TickType_t ticks;
 330:Middlewares/Third_Party/FreeRTOS/Source/CMSIS_RTOS_V2/cmsis_os2.c ****   uint32_t val;
 331:Middlewares/Third_Party/FreeRTOS/Source/CMSIS_RTOS_V2/cmsis_os2.c **** 
 332:Middlewares/Third_Party/FreeRTOS/Source/CMSIS_RTOS_V2/cmsis_os2.c ****   portDISABLE_INTERRUPTS();
 333:Middlewares/Third_Party/FreeRTOS/Source/CMSIS_RTOS_V2/cmsis_os2.c **** 
 334:Middlewares/Third_Party/FreeRTOS/Source/CMSIS_RTOS_V2/cmsis_os2.c ****   ticks = xTaskGetTickCount();
 335:Middlewares/Third_Party/FreeRTOS/Source/CMSIS_RTOS_V2/cmsis_os2.c **** 
 336:Middlewares/Third_Party/FreeRTOS/Source/CMSIS_RTOS_V2/cmsis_os2.c ****   val = ticks * ( configCPU_CLOCK_HZ / configTICK_RATE_HZ );
 337:Middlewares/Third_Party/FreeRTOS/Source/CMSIS_RTOS_V2/cmsis_os2.c ****   portENABLE_INTERRUPTS();
 338:Middlewares/Third_Party/FreeRTOS/Source/CMSIS_RTOS_V2/cmsis_os2.c **** 
 339:Middlewares/Third_Party/FreeRTOS/Source/CMSIS_RTOS_V2/cmsis_os2.c ****   return (val);
 340:Middlewares/Third_Party/FreeRTOS/Source/CMSIS_RTOS_V2/cmsis_os2.c **** }
 341:Middlewares/Third_Party/FreeRTOS/Source/CMSIS_RTOS_V2/cmsis_os2.c **** 
 342:Middlewares/Third_Party/FreeRTOS/Source/CMSIS_RTOS_V2/cmsis_os2.c **** uint32_t osKernelGetSysTimerFreq (void) {
 343:Middlewares/Third_Party/FreeRTOS/Source/CMSIS_RTOS_V2/cmsis_os2.c ****   return (configCPU_CLOCK_HZ);
 344:Middlewares/Third_Party/FreeRTOS/Source/CMSIS_RTOS_V2/cmsis_os2.c **** }
 345:Middlewares/Third_Party/FreeRTOS/Source/CMSIS_RTOS_V2/cmsis_os2.c **** 
 346:Middlewares/Third_Party/FreeRTOS/Source/CMSIS_RTOS_V2/cmsis_os2.c **** /*---------------------------------------------------------------------------*/
 347:Middlewares/Third_Party/FreeRTOS/Source/CMSIS_RTOS_V2/cmsis_os2.c **** 
 348:Middlewares/Third_Party/FreeRTOS/Source/CMSIS_RTOS_V2/cmsis_os2.c **** osThreadId_t osThreadNew (osThreadFunc_t func, void *argument, const osThreadAttr_t *attr) {
 349:Middlewares/Third_Party/FreeRTOS/Source/CMSIS_RTOS_V2/cmsis_os2.c ****   char empty;
 350:Middlewares/Third_Party/FreeRTOS/Source/CMSIS_RTOS_V2/cmsis_os2.c ****   const char *name;
 351:Middlewares/Third_Party/FreeRTOS/Source/CMSIS_RTOS_V2/cmsis_os2.c ****   uint32_t stack;
 352:Middlewares/Third_Party/FreeRTOS/Source/CMSIS_RTOS_V2/cmsis_os2.c ****   TaskHandle_t hTask;
 353:Middlewares/Third_Party/FreeRTOS/Source/CMSIS_RTOS_V2/cmsis_os2.c ****   UBaseType_t prio;
 354:Middlewares/Third_Party/FreeRTOS/Source/CMSIS_RTOS_V2/cmsis_os2.c ****   int32_t mem;
 355:Middlewares/Third_Party/FreeRTOS/Source/CMSIS_RTOS_V2/cmsis_os2.c **** 
 356:Middlewares/Third_Party/FreeRTOS/Source/CMSIS_RTOS_V2/cmsis_os2.c ****   hTask = NULL;
 357:Middlewares/Third_Party/FreeRTOS/Source/CMSIS_RTOS_V2/cmsis_os2.c **** 
 358:Middlewares/Third_Party/FreeRTOS/Source/CMSIS_RTOS_V2/cmsis_os2.c ****   if (!IS_IRQ() && (func != NULL)) {
 359:Middlewares/Third_Party/FreeRTOS/Source/CMSIS_RTOS_V2/cmsis_os2.c ****     stack = configMINIMAL_STACK_SIZE;
 360:Middlewares/Third_Party/FreeRTOS/Source/CMSIS_RTOS_V2/cmsis_os2.c ****     prio  = (UBaseType_t)osPriorityNormal;
 361:Middlewares/Third_Party/FreeRTOS/Source/CMSIS_RTOS_V2/cmsis_os2.c **** 
 362:Middlewares/Third_Party/FreeRTOS/Source/CMSIS_RTOS_V2/cmsis_os2.c ****     empty = '\0';
 363:Middlewares/Third_Party/FreeRTOS/Source/CMSIS_RTOS_V2/cmsis_os2.c ****     name  = &empty;
 364:Middlewares/Third_Party/FreeRTOS/Source/CMSIS_RTOS_V2/cmsis_os2.c ****     mem   = -1;
 365:Middlewares/Third_Party/FreeRTOS/Source/CMSIS_RTOS_V2/cmsis_os2.c **** 
 366:Middlewares/Third_Party/FreeRTOS/Source/CMSIS_RTOS_V2/cmsis_os2.c ****     if (attr != NULL) {
 367:Middlewares/Third_Party/FreeRTOS/Source/CMSIS_RTOS_V2/cmsis_os2.c ****       if (attr->name != NULL) {
 368:Middlewares/Third_Party/FreeRTOS/Source/CMSIS_RTOS_V2/cmsis_os2.c ****         name = attr->name;
 369:Middlewares/Third_Party/FreeRTOS/Source/CMSIS_RTOS_V2/cmsis_os2.c ****       }
 370:Middlewares/Third_Party/FreeRTOS/Source/CMSIS_RTOS_V2/cmsis_os2.c ****       if (attr->priority != osPriorityNone) {
 371:Middlewares/Third_Party/FreeRTOS/Source/CMSIS_RTOS_V2/cmsis_os2.c ****         prio = (UBaseType_t)attr->priority;
 372:Middlewares/Third_Party/FreeRTOS/Source/CMSIS_RTOS_V2/cmsis_os2.c ****       }
 373:Middlewares/Third_Party/FreeRTOS/Source/CMSIS_RTOS_V2/cmsis_os2.c **** 
 374:Middlewares/Third_Party/FreeRTOS/Source/CMSIS_RTOS_V2/cmsis_os2.c ****       if ((prio < osPriorityIdle) || (prio > osPriorityISR) || ((attr->attr_bits & osThreadJoinable
 375:Middlewares/Third_Party/FreeRTOS/Source/CMSIS_RTOS_V2/cmsis_os2.c ****         return (NULL);
 376:Middlewares/Third_Party/FreeRTOS/Source/CMSIS_RTOS_V2/cmsis_os2.c ****       }
ARM GAS  /tmp/ccJ2K96T.s 			page 8


 377:Middlewares/Third_Party/FreeRTOS/Source/CMSIS_RTOS_V2/cmsis_os2.c **** 
 378:Middlewares/Third_Party/FreeRTOS/Source/CMSIS_RTOS_V2/cmsis_os2.c ****       if (attr->stack_size > 0U) {
 379:Middlewares/Third_Party/FreeRTOS/Source/CMSIS_RTOS_V2/cmsis_os2.c ****         /* In FreeRTOS stack is not in bytes, but in sizeof(StackType_t) which is 4 on ARM ports.  
 380:Middlewares/Third_Party/FreeRTOS/Source/CMSIS_RTOS_V2/cmsis_os2.c ****         /* Stack size should be therefore 4 byte aligned in order to avoid division caused side eff
 381:Middlewares/Third_Party/FreeRTOS/Source/CMSIS_RTOS_V2/cmsis_os2.c ****         stack = attr->stack_size / sizeof(StackType_t);
 382:Middlewares/Third_Party/FreeRTOS/Source/CMSIS_RTOS_V2/cmsis_os2.c ****       }
 383:Middlewares/Third_Party/FreeRTOS/Source/CMSIS_RTOS_V2/cmsis_os2.c **** 
 384:Middlewares/Third_Party/FreeRTOS/Source/CMSIS_RTOS_V2/cmsis_os2.c ****       if ((attr->cb_mem    != NULL) && (attr->cb_size    >= sizeof(StaticTask_t)) &&
 385:Middlewares/Third_Party/FreeRTOS/Source/CMSIS_RTOS_V2/cmsis_os2.c ****           (attr->stack_mem != NULL) && (attr->stack_size >  0U)) {
 386:Middlewares/Third_Party/FreeRTOS/Source/CMSIS_RTOS_V2/cmsis_os2.c ****         mem = 1;
 387:Middlewares/Third_Party/FreeRTOS/Source/CMSIS_RTOS_V2/cmsis_os2.c ****       }
 388:Middlewares/Third_Party/FreeRTOS/Source/CMSIS_RTOS_V2/cmsis_os2.c ****       else {
 389:Middlewares/Third_Party/FreeRTOS/Source/CMSIS_RTOS_V2/cmsis_os2.c ****         if ((attr->cb_mem == NULL) && (attr->cb_size == 0U) && (attr->stack_mem == NULL)) {
 390:Middlewares/Third_Party/FreeRTOS/Source/CMSIS_RTOS_V2/cmsis_os2.c ****           mem = 0;
 391:Middlewares/Third_Party/FreeRTOS/Source/CMSIS_RTOS_V2/cmsis_os2.c ****         }
 392:Middlewares/Third_Party/FreeRTOS/Source/CMSIS_RTOS_V2/cmsis_os2.c ****       }
 393:Middlewares/Third_Party/FreeRTOS/Source/CMSIS_RTOS_V2/cmsis_os2.c ****     }
 394:Middlewares/Third_Party/FreeRTOS/Source/CMSIS_RTOS_V2/cmsis_os2.c ****     else {
 395:Middlewares/Third_Party/FreeRTOS/Source/CMSIS_RTOS_V2/cmsis_os2.c ****       mem = 0;
 396:Middlewares/Third_Party/FreeRTOS/Source/CMSIS_RTOS_V2/cmsis_os2.c ****     }
 397:Middlewares/Third_Party/FreeRTOS/Source/CMSIS_RTOS_V2/cmsis_os2.c **** 
 398:Middlewares/Third_Party/FreeRTOS/Source/CMSIS_RTOS_V2/cmsis_os2.c ****     if (mem == 1) {
 399:Middlewares/Third_Party/FreeRTOS/Source/CMSIS_RTOS_V2/cmsis_os2.c ****       hTask = xTaskCreateStatic ((TaskFunction_t)func, name, stack, argument, prio, (StackType_t  *
 400:Middlewares/Third_Party/FreeRTOS/Source/CMSIS_RTOS_V2/cmsis_os2.c ****                                                                                     (StaticTask_t *
 401:Middlewares/Third_Party/FreeRTOS/Source/CMSIS_RTOS_V2/cmsis_os2.c ****     }
 402:Middlewares/Third_Party/FreeRTOS/Source/CMSIS_RTOS_V2/cmsis_os2.c ****     else {
 403:Middlewares/Third_Party/FreeRTOS/Source/CMSIS_RTOS_V2/cmsis_os2.c ****       if (mem == 0) {
 404:Middlewares/Third_Party/FreeRTOS/Source/CMSIS_RTOS_V2/cmsis_os2.c ****         if (xTaskCreate ((TaskFunction_t)func, name, (uint16_t)stack, argument, prio, &hTask) != pd
 405:Middlewares/Third_Party/FreeRTOS/Source/CMSIS_RTOS_V2/cmsis_os2.c ****           hTask = NULL;
 406:Middlewares/Third_Party/FreeRTOS/Source/CMSIS_RTOS_V2/cmsis_os2.c ****         }
 407:Middlewares/Third_Party/FreeRTOS/Source/CMSIS_RTOS_V2/cmsis_os2.c ****       }
 408:Middlewares/Third_Party/FreeRTOS/Source/CMSIS_RTOS_V2/cmsis_os2.c ****     }
 409:Middlewares/Third_Party/FreeRTOS/Source/CMSIS_RTOS_V2/cmsis_os2.c ****   }
 410:Middlewares/Third_Party/FreeRTOS/Source/CMSIS_RTOS_V2/cmsis_os2.c **** 
 411:Middlewares/Third_Party/FreeRTOS/Source/CMSIS_RTOS_V2/cmsis_os2.c ****   return ((osThreadId_t)hTask);
 412:Middlewares/Third_Party/FreeRTOS/Source/CMSIS_RTOS_V2/cmsis_os2.c **** }
 413:Middlewares/Third_Party/FreeRTOS/Source/CMSIS_RTOS_V2/cmsis_os2.c **** 
 414:Middlewares/Third_Party/FreeRTOS/Source/CMSIS_RTOS_V2/cmsis_os2.c **** const char *osThreadGetName (osThreadId_t thread_id) {
 415:Middlewares/Third_Party/FreeRTOS/Source/CMSIS_RTOS_V2/cmsis_os2.c ****   TaskHandle_t hTask = (TaskHandle_t)thread_id;
 416:Middlewares/Third_Party/FreeRTOS/Source/CMSIS_RTOS_V2/cmsis_os2.c ****   const char *name;
 417:Middlewares/Third_Party/FreeRTOS/Source/CMSIS_RTOS_V2/cmsis_os2.c **** 
 418:Middlewares/Third_Party/FreeRTOS/Source/CMSIS_RTOS_V2/cmsis_os2.c ****   if (IS_IRQ() || (hTask == NULL)) {
 419:Middlewares/Third_Party/FreeRTOS/Source/CMSIS_RTOS_V2/cmsis_os2.c ****     name = NULL;
 420:Middlewares/Third_Party/FreeRTOS/Source/CMSIS_RTOS_V2/cmsis_os2.c ****   } else {
 421:Middlewares/Third_Party/FreeRTOS/Source/CMSIS_RTOS_V2/cmsis_os2.c ****     name = pcTaskGetName (hTask);
 422:Middlewares/Third_Party/FreeRTOS/Source/CMSIS_RTOS_V2/cmsis_os2.c ****   }
 423:Middlewares/Third_Party/FreeRTOS/Source/CMSIS_RTOS_V2/cmsis_os2.c **** 
 424:Middlewares/Third_Party/FreeRTOS/Source/CMSIS_RTOS_V2/cmsis_os2.c ****   return (name);
 425:Middlewares/Third_Party/FreeRTOS/Source/CMSIS_RTOS_V2/cmsis_os2.c **** }
 426:Middlewares/Third_Party/FreeRTOS/Source/CMSIS_RTOS_V2/cmsis_os2.c **** 
 427:Middlewares/Third_Party/FreeRTOS/Source/CMSIS_RTOS_V2/cmsis_os2.c **** osThreadId_t osThreadGetId (void) {
 428:Middlewares/Third_Party/FreeRTOS/Source/CMSIS_RTOS_V2/cmsis_os2.c ****   osThreadId_t id;
 429:Middlewares/Third_Party/FreeRTOS/Source/CMSIS_RTOS_V2/cmsis_os2.c **** 
 430:Middlewares/Third_Party/FreeRTOS/Source/CMSIS_RTOS_V2/cmsis_os2.c ****   if (IS_IRQ()) {
 431:Middlewares/Third_Party/FreeRTOS/Source/CMSIS_RTOS_V2/cmsis_os2.c ****     id = NULL;
 432:Middlewares/Third_Party/FreeRTOS/Source/CMSIS_RTOS_V2/cmsis_os2.c ****   } else {
 433:Middlewares/Third_Party/FreeRTOS/Source/CMSIS_RTOS_V2/cmsis_os2.c ****     id = (osThreadId_t)xTaskGetCurrentTaskHandle();
ARM GAS  /tmp/ccJ2K96T.s 			page 9


 434:Middlewares/Third_Party/FreeRTOS/Source/CMSIS_RTOS_V2/cmsis_os2.c ****   }
 435:Middlewares/Third_Party/FreeRTOS/Source/CMSIS_RTOS_V2/cmsis_os2.c **** 
 436:Middlewares/Third_Party/FreeRTOS/Source/CMSIS_RTOS_V2/cmsis_os2.c ****   return (id);
 437:Middlewares/Third_Party/FreeRTOS/Source/CMSIS_RTOS_V2/cmsis_os2.c **** }
 438:Middlewares/Third_Party/FreeRTOS/Source/CMSIS_RTOS_V2/cmsis_os2.c **** 
 439:Middlewares/Third_Party/FreeRTOS/Source/CMSIS_RTOS_V2/cmsis_os2.c **** osThreadState_t osThreadGetState (osThreadId_t thread_id) {
 440:Middlewares/Third_Party/FreeRTOS/Source/CMSIS_RTOS_V2/cmsis_os2.c ****   TaskHandle_t hTask = (TaskHandle_t)thread_id;
 441:Middlewares/Third_Party/FreeRTOS/Source/CMSIS_RTOS_V2/cmsis_os2.c ****   osThreadState_t state;
 442:Middlewares/Third_Party/FreeRTOS/Source/CMSIS_RTOS_V2/cmsis_os2.c **** 
 443:Middlewares/Third_Party/FreeRTOS/Source/CMSIS_RTOS_V2/cmsis_os2.c ****   if (IS_IRQ() || (hTask == NULL)) {
 444:Middlewares/Third_Party/FreeRTOS/Source/CMSIS_RTOS_V2/cmsis_os2.c ****     state = osThreadError;
 445:Middlewares/Third_Party/FreeRTOS/Source/CMSIS_RTOS_V2/cmsis_os2.c ****   }
 446:Middlewares/Third_Party/FreeRTOS/Source/CMSIS_RTOS_V2/cmsis_os2.c ****   else {
 447:Middlewares/Third_Party/FreeRTOS/Source/CMSIS_RTOS_V2/cmsis_os2.c ****     switch (eTaskGetState (hTask)) {
 448:Middlewares/Third_Party/FreeRTOS/Source/CMSIS_RTOS_V2/cmsis_os2.c ****       case eRunning:   state = osThreadRunning;    break;
 449:Middlewares/Third_Party/FreeRTOS/Source/CMSIS_RTOS_V2/cmsis_os2.c ****       case eReady:     state = osThreadReady;      break;
 450:Middlewares/Third_Party/FreeRTOS/Source/CMSIS_RTOS_V2/cmsis_os2.c ****       case eBlocked:
 451:Middlewares/Third_Party/FreeRTOS/Source/CMSIS_RTOS_V2/cmsis_os2.c ****       case eSuspended: state = osThreadBlocked;    break;
 452:Middlewares/Third_Party/FreeRTOS/Source/CMSIS_RTOS_V2/cmsis_os2.c ****       case eDeleted:   state = osThreadTerminated; break;
 453:Middlewares/Third_Party/FreeRTOS/Source/CMSIS_RTOS_V2/cmsis_os2.c ****       case eInvalid:
 454:Middlewares/Third_Party/FreeRTOS/Source/CMSIS_RTOS_V2/cmsis_os2.c ****       default:         state = osThreadError;      break;
 455:Middlewares/Third_Party/FreeRTOS/Source/CMSIS_RTOS_V2/cmsis_os2.c ****     }
 456:Middlewares/Third_Party/FreeRTOS/Source/CMSIS_RTOS_V2/cmsis_os2.c ****   }
 457:Middlewares/Third_Party/FreeRTOS/Source/CMSIS_RTOS_V2/cmsis_os2.c **** 
 458:Middlewares/Third_Party/FreeRTOS/Source/CMSIS_RTOS_V2/cmsis_os2.c ****   return (state);
 459:Middlewares/Third_Party/FreeRTOS/Source/CMSIS_RTOS_V2/cmsis_os2.c **** }
 460:Middlewares/Third_Party/FreeRTOS/Source/CMSIS_RTOS_V2/cmsis_os2.c **** 
 461:Middlewares/Third_Party/FreeRTOS/Source/CMSIS_RTOS_V2/cmsis_os2.c **** uint32_t osThreadGetStackSpace (osThreadId_t thread_id) {
 462:Middlewares/Third_Party/FreeRTOS/Source/CMSIS_RTOS_V2/cmsis_os2.c ****   TaskHandle_t hTask = (TaskHandle_t)thread_id;
 463:Middlewares/Third_Party/FreeRTOS/Source/CMSIS_RTOS_V2/cmsis_os2.c ****   uint32_t sz;
 464:Middlewares/Third_Party/FreeRTOS/Source/CMSIS_RTOS_V2/cmsis_os2.c **** 
 465:Middlewares/Third_Party/FreeRTOS/Source/CMSIS_RTOS_V2/cmsis_os2.c ****   if (IS_IRQ() || (hTask == NULL)) {
 466:Middlewares/Third_Party/FreeRTOS/Source/CMSIS_RTOS_V2/cmsis_os2.c ****     sz = 0U;
 467:Middlewares/Third_Party/FreeRTOS/Source/CMSIS_RTOS_V2/cmsis_os2.c ****   } else {
 468:Middlewares/Third_Party/FreeRTOS/Source/CMSIS_RTOS_V2/cmsis_os2.c ****     sz = (uint32_t)uxTaskGetStackHighWaterMark (hTask);
 469:Middlewares/Third_Party/FreeRTOS/Source/CMSIS_RTOS_V2/cmsis_os2.c ****   }
 470:Middlewares/Third_Party/FreeRTOS/Source/CMSIS_RTOS_V2/cmsis_os2.c **** 
 471:Middlewares/Third_Party/FreeRTOS/Source/CMSIS_RTOS_V2/cmsis_os2.c ****   return (sz);
 472:Middlewares/Third_Party/FreeRTOS/Source/CMSIS_RTOS_V2/cmsis_os2.c **** }
 473:Middlewares/Third_Party/FreeRTOS/Source/CMSIS_RTOS_V2/cmsis_os2.c **** 
 474:Middlewares/Third_Party/FreeRTOS/Source/CMSIS_RTOS_V2/cmsis_os2.c **** uint32_t osThreadGetStackSize	(osThreadId_t thread_id) {
 475:Middlewares/Third_Party/FreeRTOS/Source/CMSIS_RTOS_V2/cmsis_os2.c ****   /*
 476:Middlewares/Third_Party/FreeRTOS/Source/CMSIS_RTOS_V2/cmsis_os2.c ****    * this implmentation is not correct.
 477:Middlewares/Third_Party/FreeRTOS/Source/CMSIS_RTOS_V2/cmsis_os2.c ****    * this function is implmented to avoid link errors (undefined reference)
 478:Middlewares/Third_Party/FreeRTOS/Source/CMSIS_RTOS_V2/cmsis_os2.c ****    * Bug reported : https://github.com/ARM-software/CMSIS-FreeRTOS/issues/14
 479:Middlewares/Third_Party/FreeRTOS/Source/CMSIS_RTOS_V2/cmsis_os2.c ****    */
 480:Middlewares/Third_Party/FreeRTOS/Source/CMSIS_RTOS_V2/cmsis_os2.c ****   (void) thread_id;
 481:Middlewares/Third_Party/FreeRTOS/Source/CMSIS_RTOS_V2/cmsis_os2.c ****   return 0;
 482:Middlewares/Third_Party/FreeRTOS/Source/CMSIS_RTOS_V2/cmsis_os2.c **** }
 483:Middlewares/Third_Party/FreeRTOS/Source/CMSIS_RTOS_V2/cmsis_os2.c **** 
 484:Middlewares/Third_Party/FreeRTOS/Source/CMSIS_RTOS_V2/cmsis_os2.c **** osStatus_t osThreadSetPriority (osThreadId_t thread_id, osPriority_t priority) {
 485:Middlewares/Third_Party/FreeRTOS/Source/CMSIS_RTOS_V2/cmsis_os2.c ****   TaskHandle_t hTask = (TaskHandle_t)thread_id;
 486:Middlewares/Third_Party/FreeRTOS/Source/CMSIS_RTOS_V2/cmsis_os2.c ****   osStatus_t stat;
 487:Middlewares/Third_Party/FreeRTOS/Source/CMSIS_RTOS_V2/cmsis_os2.c **** 
 488:Middlewares/Third_Party/FreeRTOS/Source/CMSIS_RTOS_V2/cmsis_os2.c ****   if (IS_IRQ()) {
 489:Middlewares/Third_Party/FreeRTOS/Source/CMSIS_RTOS_V2/cmsis_os2.c ****     stat = osErrorISR;
 490:Middlewares/Third_Party/FreeRTOS/Source/CMSIS_RTOS_V2/cmsis_os2.c ****   }
ARM GAS  /tmp/ccJ2K96T.s 			page 10


 491:Middlewares/Third_Party/FreeRTOS/Source/CMSIS_RTOS_V2/cmsis_os2.c ****   else if ((hTask == NULL) || (priority < osPriorityIdle) || (priority > osPriorityISR)) {
 492:Middlewares/Third_Party/FreeRTOS/Source/CMSIS_RTOS_V2/cmsis_os2.c ****     stat = osErrorParameter;
 493:Middlewares/Third_Party/FreeRTOS/Source/CMSIS_RTOS_V2/cmsis_os2.c ****   }
 494:Middlewares/Third_Party/FreeRTOS/Source/CMSIS_RTOS_V2/cmsis_os2.c ****   else {
 495:Middlewares/Third_Party/FreeRTOS/Source/CMSIS_RTOS_V2/cmsis_os2.c ****     stat = osOK;
 496:Middlewares/Third_Party/FreeRTOS/Source/CMSIS_RTOS_V2/cmsis_os2.c ****     vTaskPrioritySet (hTask, (UBaseType_t)priority);
 497:Middlewares/Third_Party/FreeRTOS/Source/CMSIS_RTOS_V2/cmsis_os2.c ****   }
 498:Middlewares/Third_Party/FreeRTOS/Source/CMSIS_RTOS_V2/cmsis_os2.c **** 
 499:Middlewares/Third_Party/FreeRTOS/Source/CMSIS_RTOS_V2/cmsis_os2.c ****   return (stat);
 500:Middlewares/Third_Party/FreeRTOS/Source/CMSIS_RTOS_V2/cmsis_os2.c **** }
 501:Middlewares/Third_Party/FreeRTOS/Source/CMSIS_RTOS_V2/cmsis_os2.c **** 
 502:Middlewares/Third_Party/FreeRTOS/Source/CMSIS_RTOS_V2/cmsis_os2.c **** osPriority_t osThreadGetPriority (osThreadId_t thread_id) {
 503:Middlewares/Third_Party/FreeRTOS/Source/CMSIS_RTOS_V2/cmsis_os2.c ****   TaskHandle_t hTask = (TaskHandle_t)thread_id;
 504:Middlewares/Third_Party/FreeRTOS/Source/CMSIS_RTOS_V2/cmsis_os2.c ****   osPriority_t prio;
 505:Middlewares/Third_Party/FreeRTOS/Source/CMSIS_RTOS_V2/cmsis_os2.c **** 
 506:Middlewares/Third_Party/FreeRTOS/Source/CMSIS_RTOS_V2/cmsis_os2.c ****   if (IS_IRQ() || (hTask == NULL)) {
 507:Middlewares/Third_Party/FreeRTOS/Source/CMSIS_RTOS_V2/cmsis_os2.c ****     prio = osPriorityError;
 508:Middlewares/Third_Party/FreeRTOS/Source/CMSIS_RTOS_V2/cmsis_os2.c ****   } else {
 509:Middlewares/Third_Party/FreeRTOS/Source/CMSIS_RTOS_V2/cmsis_os2.c ****     prio = (osPriority_t)uxTaskPriorityGet (hTask);
 510:Middlewares/Third_Party/FreeRTOS/Source/CMSIS_RTOS_V2/cmsis_os2.c ****   }
 511:Middlewares/Third_Party/FreeRTOS/Source/CMSIS_RTOS_V2/cmsis_os2.c **** 
 512:Middlewares/Third_Party/FreeRTOS/Source/CMSIS_RTOS_V2/cmsis_os2.c ****   return (prio);
 513:Middlewares/Third_Party/FreeRTOS/Source/CMSIS_RTOS_V2/cmsis_os2.c **** }
 514:Middlewares/Third_Party/FreeRTOS/Source/CMSIS_RTOS_V2/cmsis_os2.c **** 
 515:Middlewares/Third_Party/FreeRTOS/Source/CMSIS_RTOS_V2/cmsis_os2.c **** osStatus_t osThreadYield (void) {
 516:Middlewares/Third_Party/FreeRTOS/Source/CMSIS_RTOS_V2/cmsis_os2.c ****   osStatus_t stat;
 517:Middlewares/Third_Party/FreeRTOS/Source/CMSIS_RTOS_V2/cmsis_os2.c **** 
 518:Middlewares/Third_Party/FreeRTOS/Source/CMSIS_RTOS_V2/cmsis_os2.c ****   if (IS_IRQ()) {
 519:Middlewares/Third_Party/FreeRTOS/Source/CMSIS_RTOS_V2/cmsis_os2.c ****     stat = osErrorISR;
 520:Middlewares/Third_Party/FreeRTOS/Source/CMSIS_RTOS_V2/cmsis_os2.c ****   } else {
 521:Middlewares/Third_Party/FreeRTOS/Source/CMSIS_RTOS_V2/cmsis_os2.c ****     stat = osOK;
 522:Middlewares/Third_Party/FreeRTOS/Source/CMSIS_RTOS_V2/cmsis_os2.c ****     taskYIELD();
 523:Middlewares/Third_Party/FreeRTOS/Source/CMSIS_RTOS_V2/cmsis_os2.c ****   }
 524:Middlewares/Third_Party/FreeRTOS/Source/CMSIS_RTOS_V2/cmsis_os2.c **** 
 525:Middlewares/Third_Party/FreeRTOS/Source/CMSIS_RTOS_V2/cmsis_os2.c ****   return (stat);
 526:Middlewares/Third_Party/FreeRTOS/Source/CMSIS_RTOS_V2/cmsis_os2.c **** }
 527:Middlewares/Third_Party/FreeRTOS/Source/CMSIS_RTOS_V2/cmsis_os2.c **** 
 528:Middlewares/Third_Party/FreeRTOS/Source/CMSIS_RTOS_V2/cmsis_os2.c **** osStatus_t osThreadSuspend (osThreadId_t thread_id) {
 529:Middlewares/Third_Party/FreeRTOS/Source/CMSIS_RTOS_V2/cmsis_os2.c ****   TaskHandle_t hTask = (TaskHandle_t)thread_id;
 530:Middlewares/Third_Party/FreeRTOS/Source/CMSIS_RTOS_V2/cmsis_os2.c ****   osStatus_t stat;
 531:Middlewares/Third_Party/FreeRTOS/Source/CMSIS_RTOS_V2/cmsis_os2.c **** 
 532:Middlewares/Third_Party/FreeRTOS/Source/CMSIS_RTOS_V2/cmsis_os2.c ****   if (IS_IRQ()) {
 533:Middlewares/Third_Party/FreeRTOS/Source/CMSIS_RTOS_V2/cmsis_os2.c ****     stat = osErrorISR;
 534:Middlewares/Third_Party/FreeRTOS/Source/CMSIS_RTOS_V2/cmsis_os2.c ****   }
 535:Middlewares/Third_Party/FreeRTOS/Source/CMSIS_RTOS_V2/cmsis_os2.c ****   else if (hTask == NULL) {
 536:Middlewares/Third_Party/FreeRTOS/Source/CMSIS_RTOS_V2/cmsis_os2.c ****     stat = osErrorParameter;
 537:Middlewares/Third_Party/FreeRTOS/Source/CMSIS_RTOS_V2/cmsis_os2.c ****   }
 538:Middlewares/Third_Party/FreeRTOS/Source/CMSIS_RTOS_V2/cmsis_os2.c ****   else {
 539:Middlewares/Third_Party/FreeRTOS/Source/CMSIS_RTOS_V2/cmsis_os2.c ****     stat = osOK;
 540:Middlewares/Third_Party/FreeRTOS/Source/CMSIS_RTOS_V2/cmsis_os2.c ****     vTaskSuspend (hTask);
 541:Middlewares/Third_Party/FreeRTOS/Source/CMSIS_RTOS_V2/cmsis_os2.c ****   }
 542:Middlewares/Third_Party/FreeRTOS/Source/CMSIS_RTOS_V2/cmsis_os2.c **** 
 543:Middlewares/Third_Party/FreeRTOS/Source/CMSIS_RTOS_V2/cmsis_os2.c ****   return (stat);
 544:Middlewares/Third_Party/FreeRTOS/Source/CMSIS_RTOS_V2/cmsis_os2.c **** }
 545:Middlewares/Third_Party/FreeRTOS/Source/CMSIS_RTOS_V2/cmsis_os2.c **** 
 546:Middlewares/Third_Party/FreeRTOS/Source/CMSIS_RTOS_V2/cmsis_os2.c **** osStatus_t osThreadResume (osThreadId_t thread_id) {
 547:Middlewares/Third_Party/FreeRTOS/Source/CMSIS_RTOS_V2/cmsis_os2.c ****   TaskHandle_t hTask = (TaskHandle_t)thread_id;
ARM GAS  /tmp/ccJ2K96T.s 			page 11


 548:Middlewares/Third_Party/FreeRTOS/Source/CMSIS_RTOS_V2/cmsis_os2.c ****   osStatus_t stat;
 549:Middlewares/Third_Party/FreeRTOS/Source/CMSIS_RTOS_V2/cmsis_os2.c **** 
 550:Middlewares/Third_Party/FreeRTOS/Source/CMSIS_RTOS_V2/cmsis_os2.c ****   if (IS_IRQ()) {
 551:Middlewares/Third_Party/FreeRTOS/Source/CMSIS_RTOS_V2/cmsis_os2.c ****     stat = osErrorISR;
 552:Middlewares/Third_Party/FreeRTOS/Source/CMSIS_RTOS_V2/cmsis_os2.c ****   }
 553:Middlewares/Third_Party/FreeRTOS/Source/CMSIS_RTOS_V2/cmsis_os2.c ****   else if (hTask == NULL) {
 554:Middlewares/Third_Party/FreeRTOS/Source/CMSIS_RTOS_V2/cmsis_os2.c ****     stat = osErrorParameter;
 555:Middlewares/Third_Party/FreeRTOS/Source/CMSIS_RTOS_V2/cmsis_os2.c ****   }
 556:Middlewares/Third_Party/FreeRTOS/Source/CMSIS_RTOS_V2/cmsis_os2.c ****   else {
 557:Middlewares/Third_Party/FreeRTOS/Source/CMSIS_RTOS_V2/cmsis_os2.c ****     stat = osOK;
 558:Middlewares/Third_Party/FreeRTOS/Source/CMSIS_RTOS_V2/cmsis_os2.c ****     vTaskResume (hTask);
 559:Middlewares/Third_Party/FreeRTOS/Source/CMSIS_RTOS_V2/cmsis_os2.c ****   }
 560:Middlewares/Third_Party/FreeRTOS/Source/CMSIS_RTOS_V2/cmsis_os2.c **** 
 561:Middlewares/Third_Party/FreeRTOS/Source/CMSIS_RTOS_V2/cmsis_os2.c ****   return (stat);
 562:Middlewares/Third_Party/FreeRTOS/Source/CMSIS_RTOS_V2/cmsis_os2.c **** }
 563:Middlewares/Third_Party/FreeRTOS/Source/CMSIS_RTOS_V2/cmsis_os2.c **** 
 564:Middlewares/Third_Party/FreeRTOS/Source/CMSIS_RTOS_V2/cmsis_os2.c **** __NO_RETURN void osThreadExit (void) {
 565:Middlewares/Third_Party/FreeRTOS/Source/CMSIS_RTOS_V2/cmsis_os2.c **** #ifndef USE_FreeRTOS_HEAP_1
 566:Middlewares/Third_Party/FreeRTOS/Source/CMSIS_RTOS_V2/cmsis_os2.c ****   vTaskDelete (NULL);
 567:Middlewares/Third_Party/FreeRTOS/Source/CMSIS_RTOS_V2/cmsis_os2.c **** #endif
 568:Middlewares/Third_Party/FreeRTOS/Source/CMSIS_RTOS_V2/cmsis_os2.c ****   for (;;);
 569:Middlewares/Third_Party/FreeRTOS/Source/CMSIS_RTOS_V2/cmsis_os2.c **** }
 570:Middlewares/Third_Party/FreeRTOS/Source/CMSIS_RTOS_V2/cmsis_os2.c **** 
 571:Middlewares/Third_Party/FreeRTOS/Source/CMSIS_RTOS_V2/cmsis_os2.c **** osStatus_t osThreadTerminate (osThreadId_t thread_id) {
 572:Middlewares/Third_Party/FreeRTOS/Source/CMSIS_RTOS_V2/cmsis_os2.c ****   TaskHandle_t hTask = (TaskHandle_t)thread_id;
 573:Middlewares/Third_Party/FreeRTOS/Source/CMSIS_RTOS_V2/cmsis_os2.c ****   osStatus_t stat;
 574:Middlewares/Third_Party/FreeRTOS/Source/CMSIS_RTOS_V2/cmsis_os2.c **** #ifndef USE_FreeRTOS_HEAP_1
 575:Middlewares/Third_Party/FreeRTOS/Source/CMSIS_RTOS_V2/cmsis_os2.c ****   eTaskState tstate;
 576:Middlewares/Third_Party/FreeRTOS/Source/CMSIS_RTOS_V2/cmsis_os2.c **** 
 577:Middlewares/Third_Party/FreeRTOS/Source/CMSIS_RTOS_V2/cmsis_os2.c ****   if (IS_IRQ()) {
 578:Middlewares/Third_Party/FreeRTOS/Source/CMSIS_RTOS_V2/cmsis_os2.c ****     stat = osErrorISR;
 579:Middlewares/Third_Party/FreeRTOS/Source/CMSIS_RTOS_V2/cmsis_os2.c ****   }
 580:Middlewares/Third_Party/FreeRTOS/Source/CMSIS_RTOS_V2/cmsis_os2.c ****   else if (hTask == NULL) {
 581:Middlewares/Third_Party/FreeRTOS/Source/CMSIS_RTOS_V2/cmsis_os2.c ****     stat = osErrorParameter;
 582:Middlewares/Third_Party/FreeRTOS/Source/CMSIS_RTOS_V2/cmsis_os2.c ****   }
 583:Middlewares/Third_Party/FreeRTOS/Source/CMSIS_RTOS_V2/cmsis_os2.c ****   else {
 584:Middlewares/Third_Party/FreeRTOS/Source/CMSIS_RTOS_V2/cmsis_os2.c ****     tstate = eTaskGetState (hTask);
 585:Middlewares/Third_Party/FreeRTOS/Source/CMSIS_RTOS_V2/cmsis_os2.c **** 
 586:Middlewares/Third_Party/FreeRTOS/Source/CMSIS_RTOS_V2/cmsis_os2.c ****     if (tstate != eDeleted) {
 587:Middlewares/Third_Party/FreeRTOS/Source/CMSIS_RTOS_V2/cmsis_os2.c ****       stat = osOK;
 588:Middlewares/Third_Party/FreeRTOS/Source/CMSIS_RTOS_V2/cmsis_os2.c ****       vTaskDelete (hTask);
 589:Middlewares/Third_Party/FreeRTOS/Source/CMSIS_RTOS_V2/cmsis_os2.c ****     } else {
 590:Middlewares/Third_Party/FreeRTOS/Source/CMSIS_RTOS_V2/cmsis_os2.c ****       stat = osErrorResource;
 591:Middlewares/Third_Party/FreeRTOS/Source/CMSIS_RTOS_V2/cmsis_os2.c ****     }
 592:Middlewares/Third_Party/FreeRTOS/Source/CMSIS_RTOS_V2/cmsis_os2.c ****   }
 593:Middlewares/Third_Party/FreeRTOS/Source/CMSIS_RTOS_V2/cmsis_os2.c **** #else
 594:Middlewares/Third_Party/FreeRTOS/Source/CMSIS_RTOS_V2/cmsis_os2.c ****   stat = osError;
 595:Middlewares/Third_Party/FreeRTOS/Source/CMSIS_RTOS_V2/cmsis_os2.c **** #endif
 596:Middlewares/Third_Party/FreeRTOS/Source/CMSIS_RTOS_V2/cmsis_os2.c **** 
 597:Middlewares/Third_Party/FreeRTOS/Source/CMSIS_RTOS_V2/cmsis_os2.c ****   return (stat);
 598:Middlewares/Third_Party/FreeRTOS/Source/CMSIS_RTOS_V2/cmsis_os2.c **** }
 599:Middlewares/Third_Party/FreeRTOS/Source/CMSIS_RTOS_V2/cmsis_os2.c **** 
 600:Middlewares/Third_Party/FreeRTOS/Source/CMSIS_RTOS_V2/cmsis_os2.c **** uint32_t osThreadGetCount (void) {
 601:Middlewares/Third_Party/FreeRTOS/Source/CMSIS_RTOS_V2/cmsis_os2.c ****   uint32_t count;
 602:Middlewares/Third_Party/FreeRTOS/Source/CMSIS_RTOS_V2/cmsis_os2.c **** 
 603:Middlewares/Third_Party/FreeRTOS/Source/CMSIS_RTOS_V2/cmsis_os2.c ****   if (IS_IRQ()) {
 604:Middlewares/Third_Party/FreeRTOS/Source/CMSIS_RTOS_V2/cmsis_os2.c ****     count = 0U;
ARM GAS  /tmp/ccJ2K96T.s 			page 12


 605:Middlewares/Third_Party/FreeRTOS/Source/CMSIS_RTOS_V2/cmsis_os2.c ****   } else {
 606:Middlewares/Third_Party/FreeRTOS/Source/CMSIS_RTOS_V2/cmsis_os2.c ****     count = uxTaskGetNumberOfTasks();
 607:Middlewares/Third_Party/FreeRTOS/Source/CMSIS_RTOS_V2/cmsis_os2.c ****   }
 608:Middlewares/Third_Party/FreeRTOS/Source/CMSIS_RTOS_V2/cmsis_os2.c **** 
 609:Middlewares/Third_Party/FreeRTOS/Source/CMSIS_RTOS_V2/cmsis_os2.c ****   return (count);
 610:Middlewares/Third_Party/FreeRTOS/Source/CMSIS_RTOS_V2/cmsis_os2.c **** }
 611:Middlewares/Third_Party/FreeRTOS/Source/CMSIS_RTOS_V2/cmsis_os2.c **** 
 612:Middlewares/Third_Party/FreeRTOS/Source/CMSIS_RTOS_V2/cmsis_os2.c **** uint32_t osThreadEnumerate (osThreadId_t *thread_array, uint32_t array_items) {
 613:Middlewares/Third_Party/FreeRTOS/Source/CMSIS_RTOS_V2/cmsis_os2.c ****   uint32_t i, count;
 614:Middlewares/Third_Party/FreeRTOS/Source/CMSIS_RTOS_V2/cmsis_os2.c ****   TaskStatus_t *task;
 615:Middlewares/Third_Party/FreeRTOS/Source/CMSIS_RTOS_V2/cmsis_os2.c **** 
 616:Middlewares/Third_Party/FreeRTOS/Source/CMSIS_RTOS_V2/cmsis_os2.c ****   if (IS_IRQ() || (thread_array == NULL) || (array_items == 0U)) {
 617:Middlewares/Third_Party/FreeRTOS/Source/CMSIS_RTOS_V2/cmsis_os2.c ****     count = 0U;
 618:Middlewares/Third_Party/FreeRTOS/Source/CMSIS_RTOS_V2/cmsis_os2.c ****   } else {
 619:Middlewares/Third_Party/FreeRTOS/Source/CMSIS_RTOS_V2/cmsis_os2.c ****     vTaskSuspendAll();
 620:Middlewares/Third_Party/FreeRTOS/Source/CMSIS_RTOS_V2/cmsis_os2.c **** 
 621:Middlewares/Third_Party/FreeRTOS/Source/CMSIS_RTOS_V2/cmsis_os2.c ****     count = uxTaskGetNumberOfTasks();
 622:Middlewares/Third_Party/FreeRTOS/Source/CMSIS_RTOS_V2/cmsis_os2.c ****     task  = pvPortMalloc (count * sizeof(TaskStatus_t));
 623:Middlewares/Third_Party/FreeRTOS/Source/CMSIS_RTOS_V2/cmsis_os2.c **** 
 624:Middlewares/Third_Party/FreeRTOS/Source/CMSIS_RTOS_V2/cmsis_os2.c ****     if (task != NULL) {
 625:Middlewares/Third_Party/FreeRTOS/Source/CMSIS_RTOS_V2/cmsis_os2.c ****       count = uxTaskGetSystemState (task, count, NULL);
 626:Middlewares/Third_Party/FreeRTOS/Source/CMSIS_RTOS_V2/cmsis_os2.c **** 
 627:Middlewares/Third_Party/FreeRTOS/Source/CMSIS_RTOS_V2/cmsis_os2.c ****       for (i = 0U; (i < count) && (i < array_items); i++) {
 628:Middlewares/Third_Party/FreeRTOS/Source/CMSIS_RTOS_V2/cmsis_os2.c ****         thread_array[i] = (osThreadId_t)task[i].xHandle;
 629:Middlewares/Third_Party/FreeRTOS/Source/CMSIS_RTOS_V2/cmsis_os2.c ****       }
 630:Middlewares/Third_Party/FreeRTOS/Source/CMSIS_RTOS_V2/cmsis_os2.c ****       count = i;
 631:Middlewares/Third_Party/FreeRTOS/Source/CMSIS_RTOS_V2/cmsis_os2.c ****     }
 632:Middlewares/Third_Party/FreeRTOS/Source/CMSIS_RTOS_V2/cmsis_os2.c ****     (void)xTaskResumeAll();
 633:Middlewares/Third_Party/FreeRTOS/Source/CMSIS_RTOS_V2/cmsis_os2.c **** 
 634:Middlewares/Third_Party/FreeRTOS/Source/CMSIS_RTOS_V2/cmsis_os2.c ****     vPortFree (task);
 635:Middlewares/Third_Party/FreeRTOS/Source/CMSIS_RTOS_V2/cmsis_os2.c ****   }
 636:Middlewares/Third_Party/FreeRTOS/Source/CMSIS_RTOS_V2/cmsis_os2.c **** 
 637:Middlewares/Third_Party/FreeRTOS/Source/CMSIS_RTOS_V2/cmsis_os2.c ****   return (count);
 638:Middlewares/Third_Party/FreeRTOS/Source/CMSIS_RTOS_V2/cmsis_os2.c **** }
 639:Middlewares/Third_Party/FreeRTOS/Source/CMSIS_RTOS_V2/cmsis_os2.c **** 
 640:Middlewares/Third_Party/FreeRTOS/Source/CMSIS_RTOS_V2/cmsis_os2.c **** uint32_t osThreadFlagsSet (osThreadId_t thread_id, uint32_t flags) {
 641:Middlewares/Third_Party/FreeRTOS/Source/CMSIS_RTOS_V2/cmsis_os2.c ****   TaskHandle_t hTask = (TaskHandle_t)thread_id;
 642:Middlewares/Third_Party/FreeRTOS/Source/CMSIS_RTOS_V2/cmsis_os2.c ****   uint32_t rflags;
 643:Middlewares/Third_Party/FreeRTOS/Source/CMSIS_RTOS_V2/cmsis_os2.c ****   BaseType_t yield;
 644:Middlewares/Third_Party/FreeRTOS/Source/CMSIS_RTOS_V2/cmsis_os2.c **** 
 645:Middlewares/Third_Party/FreeRTOS/Source/CMSIS_RTOS_V2/cmsis_os2.c ****   if ((hTask == NULL) || ((flags & THREAD_FLAGS_INVALID_BITS) != 0U)) {
 646:Middlewares/Third_Party/FreeRTOS/Source/CMSIS_RTOS_V2/cmsis_os2.c ****     rflags = (uint32_t)osErrorParameter;
 647:Middlewares/Third_Party/FreeRTOS/Source/CMSIS_RTOS_V2/cmsis_os2.c ****   }
 648:Middlewares/Third_Party/FreeRTOS/Source/CMSIS_RTOS_V2/cmsis_os2.c ****   else {
 649:Middlewares/Third_Party/FreeRTOS/Source/CMSIS_RTOS_V2/cmsis_os2.c ****     rflags = (uint32_t)osError;
 650:Middlewares/Third_Party/FreeRTOS/Source/CMSIS_RTOS_V2/cmsis_os2.c **** 
 651:Middlewares/Third_Party/FreeRTOS/Source/CMSIS_RTOS_V2/cmsis_os2.c ****     if (IS_IRQ()) {
 652:Middlewares/Third_Party/FreeRTOS/Source/CMSIS_RTOS_V2/cmsis_os2.c ****       yield = pdFALSE;
 653:Middlewares/Third_Party/FreeRTOS/Source/CMSIS_RTOS_V2/cmsis_os2.c **** 
 654:Middlewares/Third_Party/FreeRTOS/Source/CMSIS_RTOS_V2/cmsis_os2.c ****       (void)xTaskNotifyFromISR (hTask, flags, eSetBits, &yield);
 655:Middlewares/Third_Party/FreeRTOS/Source/CMSIS_RTOS_V2/cmsis_os2.c ****       (void)xTaskNotifyAndQueryFromISR (hTask, 0, eNoAction, &rflags, NULL);
 656:Middlewares/Third_Party/FreeRTOS/Source/CMSIS_RTOS_V2/cmsis_os2.c **** 
 657:Middlewares/Third_Party/FreeRTOS/Source/CMSIS_RTOS_V2/cmsis_os2.c ****       portYIELD_FROM_ISR (yield);
 658:Middlewares/Third_Party/FreeRTOS/Source/CMSIS_RTOS_V2/cmsis_os2.c ****     }
 659:Middlewares/Third_Party/FreeRTOS/Source/CMSIS_RTOS_V2/cmsis_os2.c ****     else {
 660:Middlewares/Third_Party/FreeRTOS/Source/CMSIS_RTOS_V2/cmsis_os2.c ****       (void)xTaskNotify (hTask, flags, eSetBits);
 661:Middlewares/Third_Party/FreeRTOS/Source/CMSIS_RTOS_V2/cmsis_os2.c ****       (void)xTaskNotifyAndQuery (hTask, 0, eNoAction, &rflags);
ARM GAS  /tmp/ccJ2K96T.s 			page 13


 662:Middlewares/Third_Party/FreeRTOS/Source/CMSIS_RTOS_V2/cmsis_os2.c ****     }
 663:Middlewares/Third_Party/FreeRTOS/Source/CMSIS_RTOS_V2/cmsis_os2.c ****   }
 664:Middlewares/Third_Party/FreeRTOS/Source/CMSIS_RTOS_V2/cmsis_os2.c ****   /* Return flags after setting */
 665:Middlewares/Third_Party/FreeRTOS/Source/CMSIS_RTOS_V2/cmsis_os2.c ****   return (rflags);
 666:Middlewares/Third_Party/FreeRTOS/Source/CMSIS_RTOS_V2/cmsis_os2.c **** }
 667:Middlewares/Third_Party/FreeRTOS/Source/CMSIS_RTOS_V2/cmsis_os2.c **** 
 668:Middlewares/Third_Party/FreeRTOS/Source/CMSIS_RTOS_V2/cmsis_os2.c **** uint32_t osThreadFlagsClear (uint32_t flags) {
 669:Middlewares/Third_Party/FreeRTOS/Source/CMSIS_RTOS_V2/cmsis_os2.c ****   TaskHandle_t hTask;
 670:Middlewares/Third_Party/FreeRTOS/Source/CMSIS_RTOS_V2/cmsis_os2.c ****   uint32_t rflags, cflags;
 671:Middlewares/Third_Party/FreeRTOS/Source/CMSIS_RTOS_V2/cmsis_os2.c **** 
 672:Middlewares/Third_Party/FreeRTOS/Source/CMSIS_RTOS_V2/cmsis_os2.c ****   if (IS_IRQ()) {
 673:Middlewares/Third_Party/FreeRTOS/Source/CMSIS_RTOS_V2/cmsis_os2.c ****     rflags = (uint32_t)osErrorISR;
 674:Middlewares/Third_Party/FreeRTOS/Source/CMSIS_RTOS_V2/cmsis_os2.c ****   }
 675:Middlewares/Third_Party/FreeRTOS/Source/CMSIS_RTOS_V2/cmsis_os2.c ****   else if ((flags & THREAD_FLAGS_INVALID_BITS) != 0U) {
 676:Middlewares/Third_Party/FreeRTOS/Source/CMSIS_RTOS_V2/cmsis_os2.c ****     rflags = (uint32_t)osErrorParameter;
 677:Middlewares/Third_Party/FreeRTOS/Source/CMSIS_RTOS_V2/cmsis_os2.c ****   }
 678:Middlewares/Third_Party/FreeRTOS/Source/CMSIS_RTOS_V2/cmsis_os2.c ****   else {
 679:Middlewares/Third_Party/FreeRTOS/Source/CMSIS_RTOS_V2/cmsis_os2.c ****     hTask = xTaskGetCurrentTaskHandle();
 680:Middlewares/Third_Party/FreeRTOS/Source/CMSIS_RTOS_V2/cmsis_os2.c **** 
 681:Middlewares/Third_Party/FreeRTOS/Source/CMSIS_RTOS_V2/cmsis_os2.c ****     if (xTaskNotifyAndQuery (hTask, 0, eNoAction, &cflags) == pdPASS) {
 682:Middlewares/Third_Party/FreeRTOS/Source/CMSIS_RTOS_V2/cmsis_os2.c ****       rflags = cflags;
 683:Middlewares/Third_Party/FreeRTOS/Source/CMSIS_RTOS_V2/cmsis_os2.c ****       cflags &= ~flags;
 684:Middlewares/Third_Party/FreeRTOS/Source/CMSIS_RTOS_V2/cmsis_os2.c **** 
 685:Middlewares/Third_Party/FreeRTOS/Source/CMSIS_RTOS_V2/cmsis_os2.c ****       if (xTaskNotify (hTask, cflags, eSetValueWithOverwrite) != pdPASS) {
 686:Middlewares/Third_Party/FreeRTOS/Source/CMSIS_RTOS_V2/cmsis_os2.c ****         rflags = (uint32_t)osError;
 687:Middlewares/Third_Party/FreeRTOS/Source/CMSIS_RTOS_V2/cmsis_os2.c ****       }
 688:Middlewares/Third_Party/FreeRTOS/Source/CMSIS_RTOS_V2/cmsis_os2.c ****     }
 689:Middlewares/Third_Party/FreeRTOS/Source/CMSIS_RTOS_V2/cmsis_os2.c ****     else {
 690:Middlewares/Third_Party/FreeRTOS/Source/CMSIS_RTOS_V2/cmsis_os2.c ****       rflags = (uint32_t)osError;
 691:Middlewares/Third_Party/FreeRTOS/Source/CMSIS_RTOS_V2/cmsis_os2.c ****     }
 692:Middlewares/Third_Party/FreeRTOS/Source/CMSIS_RTOS_V2/cmsis_os2.c ****   }
 693:Middlewares/Third_Party/FreeRTOS/Source/CMSIS_RTOS_V2/cmsis_os2.c **** 
 694:Middlewares/Third_Party/FreeRTOS/Source/CMSIS_RTOS_V2/cmsis_os2.c ****   /* Return flags before clearing */
 695:Middlewares/Third_Party/FreeRTOS/Source/CMSIS_RTOS_V2/cmsis_os2.c ****   return (rflags);
 696:Middlewares/Third_Party/FreeRTOS/Source/CMSIS_RTOS_V2/cmsis_os2.c **** }
 697:Middlewares/Third_Party/FreeRTOS/Source/CMSIS_RTOS_V2/cmsis_os2.c **** 
 698:Middlewares/Third_Party/FreeRTOS/Source/CMSIS_RTOS_V2/cmsis_os2.c **** uint32_t osThreadFlagsGet (void) {
 699:Middlewares/Third_Party/FreeRTOS/Source/CMSIS_RTOS_V2/cmsis_os2.c ****   TaskHandle_t hTask;
 700:Middlewares/Third_Party/FreeRTOS/Source/CMSIS_RTOS_V2/cmsis_os2.c ****   uint32_t rflags;
 701:Middlewares/Third_Party/FreeRTOS/Source/CMSIS_RTOS_V2/cmsis_os2.c **** 
 702:Middlewares/Third_Party/FreeRTOS/Source/CMSIS_RTOS_V2/cmsis_os2.c ****   if (IS_IRQ()) {
 703:Middlewares/Third_Party/FreeRTOS/Source/CMSIS_RTOS_V2/cmsis_os2.c ****     rflags = (uint32_t)osErrorISR;
 704:Middlewares/Third_Party/FreeRTOS/Source/CMSIS_RTOS_V2/cmsis_os2.c ****   }
 705:Middlewares/Third_Party/FreeRTOS/Source/CMSIS_RTOS_V2/cmsis_os2.c ****   else {
 706:Middlewares/Third_Party/FreeRTOS/Source/CMSIS_RTOS_V2/cmsis_os2.c ****     hTask = xTaskGetCurrentTaskHandle();
 707:Middlewares/Third_Party/FreeRTOS/Source/CMSIS_RTOS_V2/cmsis_os2.c **** 
 708:Middlewares/Third_Party/FreeRTOS/Source/CMSIS_RTOS_V2/cmsis_os2.c ****     if (xTaskNotifyAndQuery (hTask, 0, eNoAction, &rflags) != pdPASS) {
 709:Middlewares/Third_Party/FreeRTOS/Source/CMSIS_RTOS_V2/cmsis_os2.c ****       rflags = (uint32_t)osError;
 710:Middlewares/Third_Party/FreeRTOS/Source/CMSIS_RTOS_V2/cmsis_os2.c ****     }
 711:Middlewares/Third_Party/FreeRTOS/Source/CMSIS_RTOS_V2/cmsis_os2.c ****   }
 712:Middlewares/Third_Party/FreeRTOS/Source/CMSIS_RTOS_V2/cmsis_os2.c **** 
 713:Middlewares/Third_Party/FreeRTOS/Source/CMSIS_RTOS_V2/cmsis_os2.c ****   return (rflags);
 714:Middlewares/Third_Party/FreeRTOS/Source/CMSIS_RTOS_V2/cmsis_os2.c **** }
 715:Middlewares/Third_Party/FreeRTOS/Source/CMSIS_RTOS_V2/cmsis_os2.c **** 
 716:Middlewares/Third_Party/FreeRTOS/Source/CMSIS_RTOS_V2/cmsis_os2.c **** uint32_t osThreadFlagsWait (uint32_t flags, uint32_t options, uint32_t timeout) {
 717:Middlewares/Third_Party/FreeRTOS/Source/CMSIS_RTOS_V2/cmsis_os2.c ****   uint32_t rflags, nval;
 718:Middlewares/Third_Party/FreeRTOS/Source/CMSIS_RTOS_V2/cmsis_os2.c ****   uint32_t clear;
ARM GAS  /tmp/ccJ2K96T.s 			page 14


 719:Middlewares/Third_Party/FreeRTOS/Source/CMSIS_RTOS_V2/cmsis_os2.c ****   TickType_t t0, td, tout;
 720:Middlewares/Third_Party/FreeRTOS/Source/CMSIS_RTOS_V2/cmsis_os2.c ****   BaseType_t rval;
 721:Middlewares/Third_Party/FreeRTOS/Source/CMSIS_RTOS_V2/cmsis_os2.c **** 
 722:Middlewares/Third_Party/FreeRTOS/Source/CMSIS_RTOS_V2/cmsis_os2.c ****   if (IS_IRQ()) {
 723:Middlewares/Third_Party/FreeRTOS/Source/CMSIS_RTOS_V2/cmsis_os2.c ****     rflags = (uint32_t)osErrorISR;
 724:Middlewares/Third_Party/FreeRTOS/Source/CMSIS_RTOS_V2/cmsis_os2.c ****   }
 725:Middlewares/Third_Party/FreeRTOS/Source/CMSIS_RTOS_V2/cmsis_os2.c ****   else if ((flags & THREAD_FLAGS_INVALID_BITS) != 0U) {
 726:Middlewares/Third_Party/FreeRTOS/Source/CMSIS_RTOS_V2/cmsis_os2.c ****     rflags = (uint32_t)osErrorParameter;
 727:Middlewares/Third_Party/FreeRTOS/Source/CMSIS_RTOS_V2/cmsis_os2.c ****   }
 728:Middlewares/Third_Party/FreeRTOS/Source/CMSIS_RTOS_V2/cmsis_os2.c ****   else {
 729:Middlewares/Third_Party/FreeRTOS/Source/CMSIS_RTOS_V2/cmsis_os2.c ****     if ((options & osFlagsNoClear) == osFlagsNoClear) {
 730:Middlewares/Third_Party/FreeRTOS/Source/CMSIS_RTOS_V2/cmsis_os2.c ****       clear = 0U;
 731:Middlewares/Third_Party/FreeRTOS/Source/CMSIS_RTOS_V2/cmsis_os2.c ****     } else {
 732:Middlewares/Third_Party/FreeRTOS/Source/CMSIS_RTOS_V2/cmsis_os2.c ****       clear = flags;
 733:Middlewares/Third_Party/FreeRTOS/Source/CMSIS_RTOS_V2/cmsis_os2.c ****     }
 734:Middlewares/Third_Party/FreeRTOS/Source/CMSIS_RTOS_V2/cmsis_os2.c **** 
 735:Middlewares/Third_Party/FreeRTOS/Source/CMSIS_RTOS_V2/cmsis_os2.c ****     rflags = 0U;
 736:Middlewares/Third_Party/FreeRTOS/Source/CMSIS_RTOS_V2/cmsis_os2.c ****     tout   = timeout;
 737:Middlewares/Third_Party/FreeRTOS/Source/CMSIS_RTOS_V2/cmsis_os2.c **** 
 738:Middlewares/Third_Party/FreeRTOS/Source/CMSIS_RTOS_V2/cmsis_os2.c ****     t0 = xTaskGetTickCount();
 739:Middlewares/Third_Party/FreeRTOS/Source/CMSIS_RTOS_V2/cmsis_os2.c ****     do {
 740:Middlewares/Third_Party/FreeRTOS/Source/CMSIS_RTOS_V2/cmsis_os2.c ****       rval = xTaskNotifyWait (0, clear, &nval, tout);
 741:Middlewares/Third_Party/FreeRTOS/Source/CMSIS_RTOS_V2/cmsis_os2.c **** 
 742:Middlewares/Third_Party/FreeRTOS/Source/CMSIS_RTOS_V2/cmsis_os2.c ****       if (rval == pdPASS) {
 743:Middlewares/Third_Party/FreeRTOS/Source/CMSIS_RTOS_V2/cmsis_os2.c ****         rflags &= flags;
 744:Middlewares/Third_Party/FreeRTOS/Source/CMSIS_RTOS_V2/cmsis_os2.c ****         rflags |= nval;
 745:Middlewares/Third_Party/FreeRTOS/Source/CMSIS_RTOS_V2/cmsis_os2.c **** 
 746:Middlewares/Third_Party/FreeRTOS/Source/CMSIS_RTOS_V2/cmsis_os2.c ****         if ((options & osFlagsWaitAll) == osFlagsWaitAll) {
 747:Middlewares/Third_Party/FreeRTOS/Source/CMSIS_RTOS_V2/cmsis_os2.c ****           if ((flags & rflags) == flags) {
 748:Middlewares/Third_Party/FreeRTOS/Source/CMSIS_RTOS_V2/cmsis_os2.c ****             break;
 749:Middlewares/Third_Party/FreeRTOS/Source/CMSIS_RTOS_V2/cmsis_os2.c ****           } else {
 750:Middlewares/Third_Party/FreeRTOS/Source/CMSIS_RTOS_V2/cmsis_os2.c ****             if (timeout == 0U) {
 751:Middlewares/Third_Party/FreeRTOS/Source/CMSIS_RTOS_V2/cmsis_os2.c ****               rflags = (uint32_t)osErrorResource;
 752:Middlewares/Third_Party/FreeRTOS/Source/CMSIS_RTOS_V2/cmsis_os2.c ****               break;
 753:Middlewares/Third_Party/FreeRTOS/Source/CMSIS_RTOS_V2/cmsis_os2.c ****             }
 754:Middlewares/Third_Party/FreeRTOS/Source/CMSIS_RTOS_V2/cmsis_os2.c ****           }
 755:Middlewares/Third_Party/FreeRTOS/Source/CMSIS_RTOS_V2/cmsis_os2.c ****         }
 756:Middlewares/Third_Party/FreeRTOS/Source/CMSIS_RTOS_V2/cmsis_os2.c ****         else {
 757:Middlewares/Third_Party/FreeRTOS/Source/CMSIS_RTOS_V2/cmsis_os2.c ****           if ((flags & rflags) != 0) {
 758:Middlewares/Third_Party/FreeRTOS/Source/CMSIS_RTOS_V2/cmsis_os2.c ****             break;
 759:Middlewares/Third_Party/FreeRTOS/Source/CMSIS_RTOS_V2/cmsis_os2.c ****           } else {
 760:Middlewares/Third_Party/FreeRTOS/Source/CMSIS_RTOS_V2/cmsis_os2.c ****             if (timeout == 0U) {
 761:Middlewares/Third_Party/FreeRTOS/Source/CMSIS_RTOS_V2/cmsis_os2.c ****               rflags = (uint32_t)osErrorResource;
 762:Middlewares/Third_Party/FreeRTOS/Source/CMSIS_RTOS_V2/cmsis_os2.c ****               break;
 763:Middlewares/Third_Party/FreeRTOS/Source/CMSIS_RTOS_V2/cmsis_os2.c ****             }
 764:Middlewares/Third_Party/FreeRTOS/Source/CMSIS_RTOS_V2/cmsis_os2.c ****           }
 765:Middlewares/Third_Party/FreeRTOS/Source/CMSIS_RTOS_V2/cmsis_os2.c ****         }
 766:Middlewares/Third_Party/FreeRTOS/Source/CMSIS_RTOS_V2/cmsis_os2.c **** 
 767:Middlewares/Third_Party/FreeRTOS/Source/CMSIS_RTOS_V2/cmsis_os2.c ****         /* Update timeout */
 768:Middlewares/Third_Party/FreeRTOS/Source/CMSIS_RTOS_V2/cmsis_os2.c ****         td = xTaskGetTickCount() - t0;
 769:Middlewares/Third_Party/FreeRTOS/Source/CMSIS_RTOS_V2/cmsis_os2.c **** 
 770:Middlewares/Third_Party/FreeRTOS/Source/CMSIS_RTOS_V2/cmsis_os2.c ****         if (td > tout) {
 771:Middlewares/Third_Party/FreeRTOS/Source/CMSIS_RTOS_V2/cmsis_os2.c ****           tout  = 0;
 772:Middlewares/Third_Party/FreeRTOS/Source/CMSIS_RTOS_V2/cmsis_os2.c ****         } else {
 773:Middlewares/Third_Party/FreeRTOS/Source/CMSIS_RTOS_V2/cmsis_os2.c ****           tout -= td;
 774:Middlewares/Third_Party/FreeRTOS/Source/CMSIS_RTOS_V2/cmsis_os2.c ****         }
 775:Middlewares/Third_Party/FreeRTOS/Source/CMSIS_RTOS_V2/cmsis_os2.c ****       }
ARM GAS  /tmp/ccJ2K96T.s 			page 15


 776:Middlewares/Third_Party/FreeRTOS/Source/CMSIS_RTOS_V2/cmsis_os2.c ****       else {
 777:Middlewares/Third_Party/FreeRTOS/Source/CMSIS_RTOS_V2/cmsis_os2.c ****         if (timeout == 0) {
 778:Middlewares/Third_Party/FreeRTOS/Source/CMSIS_RTOS_V2/cmsis_os2.c ****           rflags = (uint32_t)osErrorResource;
 779:Middlewares/Third_Party/FreeRTOS/Source/CMSIS_RTOS_V2/cmsis_os2.c ****         } else {
 780:Middlewares/Third_Party/FreeRTOS/Source/CMSIS_RTOS_V2/cmsis_os2.c ****           rflags = (uint32_t)osErrorTimeout;
 781:Middlewares/Third_Party/FreeRTOS/Source/CMSIS_RTOS_V2/cmsis_os2.c ****         }
 782:Middlewares/Third_Party/FreeRTOS/Source/CMSIS_RTOS_V2/cmsis_os2.c ****       }
 783:Middlewares/Third_Party/FreeRTOS/Source/CMSIS_RTOS_V2/cmsis_os2.c ****     }
 784:Middlewares/Third_Party/FreeRTOS/Source/CMSIS_RTOS_V2/cmsis_os2.c ****     while (rval != pdFAIL);
 785:Middlewares/Third_Party/FreeRTOS/Source/CMSIS_RTOS_V2/cmsis_os2.c ****   }
 786:Middlewares/Third_Party/FreeRTOS/Source/CMSIS_RTOS_V2/cmsis_os2.c **** 
 787:Middlewares/Third_Party/FreeRTOS/Source/CMSIS_RTOS_V2/cmsis_os2.c ****   /* Return flags before clearing */
 788:Middlewares/Third_Party/FreeRTOS/Source/CMSIS_RTOS_V2/cmsis_os2.c ****   return (rflags);
 789:Middlewares/Third_Party/FreeRTOS/Source/CMSIS_RTOS_V2/cmsis_os2.c **** }
 790:Middlewares/Third_Party/FreeRTOS/Source/CMSIS_RTOS_V2/cmsis_os2.c **** 
 791:Middlewares/Third_Party/FreeRTOS/Source/CMSIS_RTOS_V2/cmsis_os2.c **** osStatus_t osDelay (uint32_t ticks) {
 792:Middlewares/Third_Party/FreeRTOS/Source/CMSIS_RTOS_V2/cmsis_os2.c ****   osStatus_t stat;
 793:Middlewares/Third_Party/FreeRTOS/Source/CMSIS_RTOS_V2/cmsis_os2.c **** 
 794:Middlewares/Third_Party/FreeRTOS/Source/CMSIS_RTOS_V2/cmsis_os2.c ****   if (IS_IRQ()) {
 795:Middlewares/Third_Party/FreeRTOS/Source/CMSIS_RTOS_V2/cmsis_os2.c ****     stat = osErrorISR;
 796:Middlewares/Third_Party/FreeRTOS/Source/CMSIS_RTOS_V2/cmsis_os2.c ****   }
 797:Middlewares/Third_Party/FreeRTOS/Source/CMSIS_RTOS_V2/cmsis_os2.c ****   else {
 798:Middlewares/Third_Party/FreeRTOS/Source/CMSIS_RTOS_V2/cmsis_os2.c ****     stat = osOK;
 799:Middlewares/Third_Party/FreeRTOS/Source/CMSIS_RTOS_V2/cmsis_os2.c **** 
 800:Middlewares/Third_Party/FreeRTOS/Source/CMSIS_RTOS_V2/cmsis_os2.c ****     if (ticks != 0U) {
 801:Middlewares/Third_Party/FreeRTOS/Source/CMSIS_RTOS_V2/cmsis_os2.c ****       vTaskDelay(ticks);
 802:Middlewares/Third_Party/FreeRTOS/Source/CMSIS_RTOS_V2/cmsis_os2.c ****     }
 803:Middlewares/Third_Party/FreeRTOS/Source/CMSIS_RTOS_V2/cmsis_os2.c ****   }
 804:Middlewares/Third_Party/FreeRTOS/Source/CMSIS_RTOS_V2/cmsis_os2.c **** 
 805:Middlewares/Third_Party/FreeRTOS/Source/CMSIS_RTOS_V2/cmsis_os2.c ****   return (stat);
 806:Middlewares/Third_Party/FreeRTOS/Source/CMSIS_RTOS_V2/cmsis_os2.c **** }
 807:Middlewares/Third_Party/FreeRTOS/Source/CMSIS_RTOS_V2/cmsis_os2.c **** 
 808:Middlewares/Third_Party/FreeRTOS/Source/CMSIS_RTOS_V2/cmsis_os2.c **** osStatus_t osDelayUntil (uint32_t ticks) {
 809:Middlewares/Third_Party/FreeRTOS/Source/CMSIS_RTOS_V2/cmsis_os2.c ****   TickType_t tcnt;
 810:Middlewares/Third_Party/FreeRTOS/Source/CMSIS_RTOS_V2/cmsis_os2.c ****   osStatus_t stat;
 811:Middlewares/Third_Party/FreeRTOS/Source/CMSIS_RTOS_V2/cmsis_os2.c **** 
 812:Middlewares/Third_Party/FreeRTOS/Source/CMSIS_RTOS_V2/cmsis_os2.c ****   if (IS_IRQ()) {
 813:Middlewares/Third_Party/FreeRTOS/Source/CMSIS_RTOS_V2/cmsis_os2.c ****     stat = osErrorISR;
 814:Middlewares/Third_Party/FreeRTOS/Source/CMSIS_RTOS_V2/cmsis_os2.c ****   }
 815:Middlewares/Third_Party/FreeRTOS/Source/CMSIS_RTOS_V2/cmsis_os2.c ****   else {
 816:Middlewares/Third_Party/FreeRTOS/Source/CMSIS_RTOS_V2/cmsis_os2.c ****     stat = osOK;
 817:Middlewares/Third_Party/FreeRTOS/Source/CMSIS_RTOS_V2/cmsis_os2.c ****     tcnt = xTaskGetTickCount();
 818:Middlewares/Third_Party/FreeRTOS/Source/CMSIS_RTOS_V2/cmsis_os2.c **** 
 819:Middlewares/Third_Party/FreeRTOS/Source/CMSIS_RTOS_V2/cmsis_os2.c ****     vTaskDelayUntil (&tcnt, (TickType_t)(ticks - tcnt));
 820:Middlewares/Third_Party/FreeRTOS/Source/CMSIS_RTOS_V2/cmsis_os2.c ****   }
 821:Middlewares/Third_Party/FreeRTOS/Source/CMSIS_RTOS_V2/cmsis_os2.c **** 
 822:Middlewares/Third_Party/FreeRTOS/Source/CMSIS_RTOS_V2/cmsis_os2.c ****   return (stat);
 823:Middlewares/Third_Party/FreeRTOS/Source/CMSIS_RTOS_V2/cmsis_os2.c **** }
 824:Middlewares/Third_Party/FreeRTOS/Source/CMSIS_RTOS_V2/cmsis_os2.c **** 
 825:Middlewares/Third_Party/FreeRTOS/Source/CMSIS_RTOS_V2/cmsis_os2.c **** /*---------------------------------------------------------------------------*/
 826:Middlewares/Third_Party/FreeRTOS/Source/CMSIS_RTOS_V2/cmsis_os2.c **** 
 827:Middlewares/Third_Party/FreeRTOS/Source/CMSIS_RTOS_V2/cmsis_os2.c **** static void TimerCallback (TimerHandle_t hTimer) {
  25              		.loc 1 827 0
  26              		.cfi_startproc
  27              		@ args = 0, pretend = 0, frame = 0
  28              		@ frame_needed = 0, uses_anonymous_args = 0
  29              	.LVL0:
ARM GAS  /tmp/ccJ2K96T.s 			page 16


  30 0000 10B5     		push	{r4, lr}
  31              	.LCFI0:
  32              		.cfi_def_cfa_offset 8
  33              		.cfi_offset 4, -8
  34              		.cfi_offset 14, -4
 828:Middlewares/Third_Party/FreeRTOS/Source/CMSIS_RTOS_V2/cmsis_os2.c ****   TimerCallback_t *callb;
 829:Middlewares/Third_Party/FreeRTOS/Source/CMSIS_RTOS_V2/cmsis_os2.c **** 
 830:Middlewares/Third_Party/FreeRTOS/Source/CMSIS_RTOS_V2/cmsis_os2.c ****   callb = (TimerCallback_t *)pvTimerGetTimerID (hTimer);
  35              		.loc 1 830 0
  36 0002 FFF7FEFF 		bl	pvTimerGetTimerID
  37              	.LVL1:
 831:Middlewares/Third_Party/FreeRTOS/Source/CMSIS_RTOS_V2/cmsis_os2.c **** 
 832:Middlewares/Third_Party/FreeRTOS/Source/CMSIS_RTOS_V2/cmsis_os2.c ****   if (callb != NULL) {
  38              		.loc 1 832 0
  39 0006 0028     		cmp	r0, #0
  40 0008 02D0     		beq	.L1
 833:Middlewares/Third_Party/FreeRTOS/Source/CMSIS_RTOS_V2/cmsis_os2.c ****     callb->func (callb->arg);
  41              		.loc 1 833 0
  42 000a 0368     		ldr	r3, [r0]
  43 000c 4068     		ldr	r0, [r0, #4]
  44              	.LVL2:
  45 000e 9847     		blx	r3
  46              	.LVL3:
  47              	.L1:
 834:Middlewares/Third_Party/FreeRTOS/Source/CMSIS_RTOS_V2/cmsis_os2.c ****   }
 835:Middlewares/Third_Party/FreeRTOS/Source/CMSIS_RTOS_V2/cmsis_os2.c **** }
  48              		.loc 1 835 0
  49              		@ sp needed
  50 0010 10BD     		pop	{r4, pc}
  51              		.cfi_endproc
  52              	.LFE57:
  54              		.section	.text.osKernelInitialize,"ax",%progbits
  55              		.align	1
  56              		.global	osKernelInitialize
  57              		.syntax unified
  58              		.code	16
  59              		.thumb_func
  60              		.fpu softvfp
  62              	osKernelInitialize:
  63              	.LFB25:
 135:Middlewares/Third_Party/FreeRTOS/Source/CMSIS_RTOS_V2/cmsis_os2.c ****   osStatus_t stat;
  64              		.loc 1 135 0
  65              		.cfi_startproc
  66              		@ args = 0, pretend = 0, frame = 0
  67              		@ frame_needed = 0, uses_anonymous_args = 0
  68              		@ link register save eliminated.
  69              	.LBB218:
  70              	.LBB219:
  71              		.file 2 "Drivers/CMSIS/Include/cmsis_gcc.h"
   1:Drivers/CMSIS/Include/cmsis_gcc.h **** /**************************************************************************//**
   2:Drivers/CMSIS/Include/cmsis_gcc.h ****  * @file     cmsis_gcc.h
   3:Drivers/CMSIS/Include/cmsis_gcc.h ****  * @brief    CMSIS compiler GCC header file
   4:Drivers/CMSIS/Include/cmsis_gcc.h ****  * @version  V5.0.4
   5:Drivers/CMSIS/Include/cmsis_gcc.h ****  * @date     09. April 2018
   6:Drivers/CMSIS/Include/cmsis_gcc.h ****  ******************************************************************************/
   7:Drivers/CMSIS/Include/cmsis_gcc.h **** /*
   8:Drivers/CMSIS/Include/cmsis_gcc.h ****  * Copyright (c) 2009-2018 Arm Limited. All rights reserved.
ARM GAS  /tmp/ccJ2K96T.s 			page 17


   9:Drivers/CMSIS/Include/cmsis_gcc.h ****  *
  10:Drivers/CMSIS/Include/cmsis_gcc.h ****  * SPDX-License-Identifier: Apache-2.0
  11:Drivers/CMSIS/Include/cmsis_gcc.h ****  *
  12:Drivers/CMSIS/Include/cmsis_gcc.h ****  * Licensed under the Apache License, Version 2.0 (the License); you may
  13:Drivers/CMSIS/Include/cmsis_gcc.h ****  * not use this file except in compliance with the License.
  14:Drivers/CMSIS/Include/cmsis_gcc.h ****  * You may obtain a copy of the License at
  15:Drivers/CMSIS/Include/cmsis_gcc.h ****  *
  16:Drivers/CMSIS/Include/cmsis_gcc.h ****  * www.apache.org/licenses/LICENSE-2.0
  17:Drivers/CMSIS/Include/cmsis_gcc.h ****  *
  18:Drivers/CMSIS/Include/cmsis_gcc.h ****  * Unless required by applicable law or agreed to in writing, software
  19:Drivers/CMSIS/Include/cmsis_gcc.h ****  * distributed under the License is distributed on an AS IS BASIS, WITHOUT
  20:Drivers/CMSIS/Include/cmsis_gcc.h ****  * WARRANTIES OR CONDITIONS OF ANY KIND, either express or implied.
  21:Drivers/CMSIS/Include/cmsis_gcc.h ****  * See the License for the specific language governing permissions and
  22:Drivers/CMSIS/Include/cmsis_gcc.h ****  * limitations under the License.
  23:Drivers/CMSIS/Include/cmsis_gcc.h ****  */
  24:Drivers/CMSIS/Include/cmsis_gcc.h **** 
  25:Drivers/CMSIS/Include/cmsis_gcc.h **** #ifndef __CMSIS_GCC_H
  26:Drivers/CMSIS/Include/cmsis_gcc.h **** #define __CMSIS_GCC_H
  27:Drivers/CMSIS/Include/cmsis_gcc.h **** 
  28:Drivers/CMSIS/Include/cmsis_gcc.h **** /* ignore some GCC warnings */
  29:Drivers/CMSIS/Include/cmsis_gcc.h **** #pragma GCC diagnostic push
  30:Drivers/CMSIS/Include/cmsis_gcc.h **** #pragma GCC diagnostic ignored "-Wsign-conversion"
  31:Drivers/CMSIS/Include/cmsis_gcc.h **** #pragma GCC diagnostic ignored "-Wconversion"
  32:Drivers/CMSIS/Include/cmsis_gcc.h **** #pragma GCC diagnostic ignored "-Wunused-parameter"
  33:Drivers/CMSIS/Include/cmsis_gcc.h **** 
  34:Drivers/CMSIS/Include/cmsis_gcc.h **** /* Fallback for __has_builtin */
  35:Drivers/CMSIS/Include/cmsis_gcc.h **** #ifndef __has_builtin
  36:Drivers/CMSIS/Include/cmsis_gcc.h ****   #define __has_builtin(x) (0)
  37:Drivers/CMSIS/Include/cmsis_gcc.h **** #endif
  38:Drivers/CMSIS/Include/cmsis_gcc.h **** 
  39:Drivers/CMSIS/Include/cmsis_gcc.h **** /* CMSIS compiler specific defines */
  40:Drivers/CMSIS/Include/cmsis_gcc.h **** #ifndef   __ASM
  41:Drivers/CMSIS/Include/cmsis_gcc.h ****   #define __ASM                                  __asm
  42:Drivers/CMSIS/Include/cmsis_gcc.h **** #endif
  43:Drivers/CMSIS/Include/cmsis_gcc.h **** #ifndef   __INLINE
  44:Drivers/CMSIS/Include/cmsis_gcc.h ****   #define __INLINE                               inline
  45:Drivers/CMSIS/Include/cmsis_gcc.h **** #endif
  46:Drivers/CMSIS/Include/cmsis_gcc.h **** #ifndef   __STATIC_INLINE
  47:Drivers/CMSIS/Include/cmsis_gcc.h ****   #define __STATIC_INLINE                        static inline
  48:Drivers/CMSIS/Include/cmsis_gcc.h **** #endif
  49:Drivers/CMSIS/Include/cmsis_gcc.h **** #ifndef   __STATIC_FORCEINLINE                 
  50:Drivers/CMSIS/Include/cmsis_gcc.h ****   #define __STATIC_FORCEINLINE                   __attribute__((always_inline)) static inline
  51:Drivers/CMSIS/Include/cmsis_gcc.h **** #endif                                           
  52:Drivers/CMSIS/Include/cmsis_gcc.h **** #ifndef   __NO_RETURN
  53:Drivers/CMSIS/Include/cmsis_gcc.h ****   #define __NO_RETURN                            __attribute__((__noreturn__))
  54:Drivers/CMSIS/Include/cmsis_gcc.h **** #endif
  55:Drivers/CMSIS/Include/cmsis_gcc.h **** #ifndef   __USED
  56:Drivers/CMSIS/Include/cmsis_gcc.h ****   #define __USED                                 __attribute__((used))
  57:Drivers/CMSIS/Include/cmsis_gcc.h **** #endif
  58:Drivers/CMSIS/Include/cmsis_gcc.h **** #ifndef   __WEAK
  59:Drivers/CMSIS/Include/cmsis_gcc.h ****   #define __WEAK                                 __attribute__((weak))
  60:Drivers/CMSIS/Include/cmsis_gcc.h **** #endif
  61:Drivers/CMSIS/Include/cmsis_gcc.h **** #ifndef   __PACKED
  62:Drivers/CMSIS/Include/cmsis_gcc.h ****   #define __PACKED                               __attribute__((packed, aligned(1)))
  63:Drivers/CMSIS/Include/cmsis_gcc.h **** #endif
  64:Drivers/CMSIS/Include/cmsis_gcc.h **** #ifndef   __PACKED_STRUCT
  65:Drivers/CMSIS/Include/cmsis_gcc.h ****   #define __PACKED_STRUCT                        struct __attribute__((packed, aligned(1)))
ARM GAS  /tmp/ccJ2K96T.s 			page 18


  66:Drivers/CMSIS/Include/cmsis_gcc.h **** #endif
  67:Drivers/CMSIS/Include/cmsis_gcc.h **** #ifndef   __PACKED_UNION
  68:Drivers/CMSIS/Include/cmsis_gcc.h ****   #define __PACKED_UNION                         union __attribute__((packed, aligned(1)))
  69:Drivers/CMSIS/Include/cmsis_gcc.h **** #endif
  70:Drivers/CMSIS/Include/cmsis_gcc.h **** #ifndef   __UNALIGNED_UINT32        /* deprecated */
  71:Drivers/CMSIS/Include/cmsis_gcc.h ****   #pragma GCC diagnostic push
  72:Drivers/CMSIS/Include/cmsis_gcc.h ****   #pragma GCC diagnostic ignored "-Wpacked"
  73:Drivers/CMSIS/Include/cmsis_gcc.h ****   #pragma GCC diagnostic ignored "-Wattributes"
  74:Drivers/CMSIS/Include/cmsis_gcc.h ****   struct __attribute__((packed)) T_UINT32 { uint32_t v; };
  75:Drivers/CMSIS/Include/cmsis_gcc.h ****   #pragma GCC diagnostic pop
  76:Drivers/CMSIS/Include/cmsis_gcc.h ****   #define __UNALIGNED_UINT32(x)                  (((struct T_UINT32 *)(x))->v)
  77:Drivers/CMSIS/Include/cmsis_gcc.h **** #endif
  78:Drivers/CMSIS/Include/cmsis_gcc.h **** #ifndef   __UNALIGNED_UINT16_WRITE
  79:Drivers/CMSIS/Include/cmsis_gcc.h ****   #pragma GCC diagnostic push
  80:Drivers/CMSIS/Include/cmsis_gcc.h ****   #pragma GCC diagnostic ignored "-Wpacked"
  81:Drivers/CMSIS/Include/cmsis_gcc.h ****   #pragma GCC diagnostic ignored "-Wattributes"
  82:Drivers/CMSIS/Include/cmsis_gcc.h ****   __PACKED_STRUCT T_UINT16_WRITE { uint16_t v; };
  83:Drivers/CMSIS/Include/cmsis_gcc.h ****   #pragma GCC diagnostic pop
  84:Drivers/CMSIS/Include/cmsis_gcc.h ****   #define __UNALIGNED_UINT16_WRITE(addr, val)    (void)((((struct T_UINT16_WRITE *)(void *)(addr))-
  85:Drivers/CMSIS/Include/cmsis_gcc.h **** #endif
  86:Drivers/CMSIS/Include/cmsis_gcc.h **** #ifndef   __UNALIGNED_UINT16_READ
  87:Drivers/CMSIS/Include/cmsis_gcc.h ****   #pragma GCC diagnostic push
  88:Drivers/CMSIS/Include/cmsis_gcc.h ****   #pragma GCC diagnostic ignored "-Wpacked"
  89:Drivers/CMSIS/Include/cmsis_gcc.h ****   #pragma GCC diagnostic ignored "-Wattributes"
  90:Drivers/CMSIS/Include/cmsis_gcc.h ****   __PACKED_STRUCT T_UINT16_READ { uint16_t v; };
  91:Drivers/CMSIS/Include/cmsis_gcc.h ****   #pragma GCC diagnostic pop
  92:Drivers/CMSIS/Include/cmsis_gcc.h ****   #define __UNALIGNED_UINT16_READ(addr)          (((const struct T_UINT16_READ *)(const void *)(add
  93:Drivers/CMSIS/Include/cmsis_gcc.h **** #endif
  94:Drivers/CMSIS/Include/cmsis_gcc.h **** #ifndef   __UNALIGNED_UINT32_WRITE
  95:Drivers/CMSIS/Include/cmsis_gcc.h ****   #pragma GCC diagnostic push
  96:Drivers/CMSIS/Include/cmsis_gcc.h ****   #pragma GCC diagnostic ignored "-Wpacked"
  97:Drivers/CMSIS/Include/cmsis_gcc.h ****   #pragma GCC diagnostic ignored "-Wattributes"
  98:Drivers/CMSIS/Include/cmsis_gcc.h ****   __PACKED_STRUCT T_UINT32_WRITE { uint32_t v; };
  99:Drivers/CMSIS/Include/cmsis_gcc.h ****   #pragma GCC diagnostic pop
 100:Drivers/CMSIS/Include/cmsis_gcc.h ****   #define __UNALIGNED_UINT32_WRITE(addr, val)    (void)((((struct T_UINT32_WRITE *)(void *)(addr))-
 101:Drivers/CMSIS/Include/cmsis_gcc.h **** #endif
 102:Drivers/CMSIS/Include/cmsis_gcc.h **** #ifndef   __UNALIGNED_UINT32_READ
 103:Drivers/CMSIS/Include/cmsis_gcc.h ****   #pragma GCC diagnostic push
 104:Drivers/CMSIS/Include/cmsis_gcc.h ****   #pragma GCC diagnostic ignored "-Wpacked"
 105:Drivers/CMSIS/Include/cmsis_gcc.h ****   #pragma GCC diagnostic ignored "-Wattributes"
 106:Drivers/CMSIS/Include/cmsis_gcc.h ****   __PACKED_STRUCT T_UINT32_READ { uint32_t v; };
 107:Drivers/CMSIS/Include/cmsis_gcc.h ****   #pragma GCC diagnostic pop
 108:Drivers/CMSIS/Include/cmsis_gcc.h ****   #define __UNALIGNED_UINT32_READ(addr)          (((const struct T_UINT32_READ *)(const void *)(add
 109:Drivers/CMSIS/Include/cmsis_gcc.h **** #endif
 110:Drivers/CMSIS/Include/cmsis_gcc.h **** #ifndef   __ALIGNED
 111:Drivers/CMSIS/Include/cmsis_gcc.h ****   #define __ALIGNED(x)                           __attribute__((aligned(x)))
 112:Drivers/CMSIS/Include/cmsis_gcc.h **** #endif
 113:Drivers/CMSIS/Include/cmsis_gcc.h **** #ifndef   __RESTRICT
 114:Drivers/CMSIS/Include/cmsis_gcc.h ****   #define __RESTRICT                             __restrict
 115:Drivers/CMSIS/Include/cmsis_gcc.h **** #endif
 116:Drivers/CMSIS/Include/cmsis_gcc.h **** 
 117:Drivers/CMSIS/Include/cmsis_gcc.h **** 
 118:Drivers/CMSIS/Include/cmsis_gcc.h **** /* ###########################  Core Function Access  ########################### */
 119:Drivers/CMSIS/Include/cmsis_gcc.h **** /** \ingroup  CMSIS_Core_FunctionInterface
 120:Drivers/CMSIS/Include/cmsis_gcc.h ****     \defgroup CMSIS_Core_RegAccFunctions CMSIS Core Register Access Functions
 121:Drivers/CMSIS/Include/cmsis_gcc.h ****   @{
 122:Drivers/CMSIS/Include/cmsis_gcc.h ****  */
ARM GAS  /tmp/ccJ2K96T.s 			page 19


 123:Drivers/CMSIS/Include/cmsis_gcc.h **** 
 124:Drivers/CMSIS/Include/cmsis_gcc.h **** /**
 125:Drivers/CMSIS/Include/cmsis_gcc.h ****   \brief   Enable IRQ Interrupts
 126:Drivers/CMSIS/Include/cmsis_gcc.h ****   \details Enables IRQ interrupts by clearing the I-bit in the CPSR.
 127:Drivers/CMSIS/Include/cmsis_gcc.h ****            Can only be executed in Privileged modes.
 128:Drivers/CMSIS/Include/cmsis_gcc.h ****  */
 129:Drivers/CMSIS/Include/cmsis_gcc.h **** __STATIC_FORCEINLINE void __enable_irq(void)
 130:Drivers/CMSIS/Include/cmsis_gcc.h **** {
 131:Drivers/CMSIS/Include/cmsis_gcc.h ****   __ASM volatile ("cpsie i" : : : "memory");
 132:Drivers/CMSIS/Include/cmsis_gcc.h **** }
 133:Drivers/CMSIS/Include/cmsis_gcc.h **** 
 134:Drivers/CMSIS/Include/cmsis_gcc.h **** 
 135:Drivers/CMSIS/Include/cmsis_gcc.h **** /**
 136:Drivers/CMSIS/Include/cmsis_gcc.h ****   \brief   Disable IRQ Interrupts
 137:Drivers/CMSIS/Include/cmsis_gcc.h ****   \details Disables IRQ interrupts by setting the I-bit in the CPSR.
 138:Drivers/CMSIS/Include/cmsis_gcc.h ****            Can only be executed in Privileged modes.
 139:Drivers/CMSIS/Include/cmsis_gcc.h ****  */
 140:Drivers/CMSIS/Include/cmsis_gcc.h **** __STATIC_FORCEINLINE void __disable_irq(void)
 141:Drivers/CMSIS/Include/cmsis_gcc.h **** {
 142:Drivers/CMSIS/Include/cmsis_gcc.h ****   __ASM volatile ("cpsid i" : : : "memory");
 143:Drivers/CMSIS/Include/cmsis_gcc.h **** }
 144:Drivers/CMSIS/Include/cmsis_gcc.h **** 
 145:Drivers/CMSIS/Include/cmsis_gcc.h **** 
 146:Drivers/CMSIS/Include/cmsis_gcc.h **** /**
 147:Drivers/CMSIS/Include/cmsis_gcc.h ****   \brief   Get Control Register
 148:Drivers/CMSIS/Include/cmsis_gcc.h ****   \details Returns the content of the Control Register.
 149:Drivers/CMSIS/Include/cmsis_gcc.h ****   \return               Control Register value
 150:Drivers/CMSIS/Include/cmsis_gcc.h ****  */
 151:Drivers/CMSIS/Include/cmsis_gcc.h **** __STATIC_FORCEINLINE uint32_t __get_CONTROL(void)
 152:Drivers/CMSIS/Include/cmsis_gcc.h **** {
 153:Drivers/CMSIS/Include/cmsis_gcc.h ****   uint32_t result;
 154:Drivers/CMSIS/Include/cmsis_gcc.h **** 
 155:Drivers/CMSIS/Include/cmsis_gcc.h ****   __ASM volatile ("MRS %0, control" : "=r" (result) );
 156:Drivers/CMSIS/Include/cmsis_gcc.h ****   return(result);
 157:Drivers/CMSIS/Include/cmsis_gcc.h **** }
 158:Drivers/CMSIS/Include/cmsis_gcc.h **** 
 159:Drivers/CMSIS/Include/cmsis_gcc.h **** 
 160:Drivers/CMSIS/Include/cmsis_gcc.h **** #if (defined (__ARM_FEATURE_CMSE ) && (__ARM_FEATURE_CMSE == 3))
 161:Drivers/CMSIS/Include/cmsis_gcc.h **** /**
 162:Drivers/CMSIS/Include/cmsis_gcc.h ****   \brief   Get Control Register (non-secure)
 163:Drivers/CMSIS/Include/cmsis_gcc.h ****   \details Returns the content of the non-secure Control Register when in secure mode.
 164:Drivers/CMSIS/Include/cmsis_gcc.h ****   \return               non-secure Control Register value
 165:Drivers/CMSIS/Include/cmsis_gcc.h ****  */
 166:Drivers/CMSIS/Include/cmsis_gcc.h **** __STATIC_FORCEINLINE uint32_t __TZ_get_CONTROL_NS(void)
 167:Drivers/CMSIS/Include/cmsis_gcc.h **** {
 168:Drivers/CMSIS/Include/cmsis_gcc.h ****   uint32_t result;
 169:Drivers/CMSIS/Include/cmsis_gcc.h **** 
 170:Drivers/CMSIS/Include/cmsis_gcc.h ****   __ASM volatile ("MRS %0, control_ns" : "=r" (result) );
 171:Drivers/CMSIS/Include/cmsis_gcc.h ****   return(result);
 172:Drivers/CMSIS/Include/cmsis_gcc.h **** }
 173:Drivers/CMSIS/Include/cmsis_gcc.h **** #endif
 174:Drivers/CMSIS/Include/cmsis_gcc.h **** 
 175:Drivers/CMSIS/Include/cmsis_gcc.h **** 
 176:Drivers/CMSIS/Include/cmsis_gcc.h **** /**
 177:Drivers/CMSIS/Include/cmsis_gcc.h ****   \brief   Set Control Register
 178:Drivers/CMSIS/Include/cmsis_gcc.h ****   \details Writes the given value to the Control Register.
 179:Drivers/CMSIS/Include/cmsis_gcc.h ****   \param [in]    control  Control Register value to set
ARM GAS  /tmp/ccJ2K96T.s 			page 20


 180:Drivers/CMSIS/Include/cmsis_gcc.h ****  */
 181:Drivers/CMSIS/Include/cmsis_gcc.h **** __STATIC_FORCEINLINE void __set_CONTROL(uint32_t control)
 182:Drivers/CMSIS/Include/cmsis_gcc.h **** {
 183:Drivers/CMSIS/Include/cmsis_gcc.h ****   __ASM volatile ("MSR control, %0" : : "r" (control) : "memory");
 184:Drivers/CMSIS/Include/cmsis_gcc.h **** }
 185:Drivers/CMSIS/Include/cmsis_gcc.h **** 
 186:Drivers/CMSIS/Include/cmsis_gcc.h **** 
 187:Drivers/CMSIS/Include/cmsis_gcc.h **** #if (defined (__ARM_FEATURE_CMSE ) && (__ARM_FEATURE_CMSE == 3))
 188:Drivers/CMSIS/Include/cmsis_gcc.h **** /**
 189:Drivers/CMSIS/Include/cmsis_gcc.h ****   \brief   Set Control Register (non-secure)
 190:Drivers/CMSIS/Include/cmsis_gcc.h ****   \details Writes the given value to the non-secure Control Register when in secure state.
 191:Drivers/CMSIS/Include/cmsis_gcc.h ****   \param [in]    control  Control Register value to set
 192:Drivers/CMSIS/Include/cmsis_gcc.h ****  */
 193:Drivers/CMSIS/Include/cmsis_gcc.h **** __STATIC_FORCEINLINE void __TZ_set_CONTROL_NS(uint32_t control)
 194:Drivers/CMSIS/Include/cmsis_gcc.h **** {
 195:Drivers/CMSIS/Include/cmsis_gcc.h ****   __ASM volatile ("MSR control_ns, %0" : : "r" (control) : "memory");
 196:Drivers/CMSIS/Include/cmsis_gcc.h **** }
 197:Drivers/CMSIS/Include/cmsis_gcc.h **** #endif
 198:Drivers/CMSIS/Include/cmsis_gcc.h **** 
 199:Drivers/CMSIS/Include/cmsis_gcc.h **** 
 200:Drivers/CMSIS/Include/cmsis_gcc.h **** /**
 201:Drivers/CMSIS/Include/cmsis_gcc.h ****   \brief   Get IPSR Register
 202:Drivers/CMSIS/Include/cmsis_gcc.h ****   \details Returns the content of the IPSR Register.
 203:Drivers/CMSIS/Include/cmsis_gcc.h ****   \return               IPSR Register value
 204:Drivers/CMSIS/Include/cmsis_gcc.h ****  */
 205:Drivers/CMSIS/Include/cmsis_gcc.h **** __STATIC_FORCEINLINE uint32_t __get_IPSR(void)
 206:Drivers/CMSIS/Include/cmsis_gcc.h **** {
 207:Drivers/CMSIS/Include/cmsis_gcc.h ****   uint32_t result;
 208:Drivers/CMSIS/Include/cmsis_gcc.h **** 
 209:Drivers/CMSIS/Include/cmsis_gcc.h ****   __ASM volatile ("MRS %0, ipsr" : "=r" (result) );
  72              		.loc 2 209 0
  73              		.syntax divided
  74              	@ 209 "Drivers/CMSIS/Include/cmsis_gcc.h" 1
  75 0000 EFF30583 		MRS r3, ipsr
  76              	@ 0 "" 2
  77              		.thumb
  78              		.syntax unified
  79              	.LBE219:
  80              	.LBE218:
 138:Middlewares/Third_Party/FreeRTOS/Source/CMSIS_RTOS_V2/cmsis_os2.c ****     stat = osErrorISR;
  81              		.loc 1 138 0
  82 0004 002B     		cmp	r3, #0
  83 0006 10D1     		bne	.L6
  84              	.LBB220:
  85              	.LBB221:
 210:Drivers/CMSIS/Include/cmsis_gcc.h ****   return(result);
 211:Drivers/CMSIS/Include/cmsis_gcc.h **** }
 212:Drivers/CMSIS/Include/cmsis_gcc.h **** 
 213:Drivers/CMSIS/Include/cmsis_gcc.h **** 
 214:Drivers/CMSIS/Include/cmsis_gcc.h **** /**
 215:Drivers/CMSIS/Include/cmsis_gcc.h ****   \brief   Get APSR Register
 216:Drivers/CMSIS/Include/cmsis_gcc.h ****   \details Returns the content of the APSR Register.
 217:Drivers/CMSIS/Include/cmsis_gcc.h ****   \return               APSR Register value
 218:Drivers/CMSIS/Include/cmsis_gcc.h ****  */
 219:Drivers/CMSIS/Include/cmsis_gcc.h **** __STATIC_FORCEINLINE uint32_t __get_APSR(void)
 220:Drivers/CMSIS/Include/cmsis_gcc.h **** {
 221:Drivers/CMSIS/Include/cmsis_gcc.h ****   uint32_t result;
ARM GAS  /tmp/ccJ2K96T.s 			page 21


 222:Drivers/CMSIS/Include/cmsis_gcc.h **** 
 223:Drivers/CMSIS/Include/cmsis_gcc.h ****   __ASM volatile ("MRS %0, apsr" : "=r" (result) );
 224:Drivers/CMSIS/Include/cmsis_gcc.h ****   return(result);
 225:Drivers/CMSIS/Include/cmsis_gcc.h **** }
 226:Drivers/CMSIS/Include/cmsis_gcc.h **** 
 227:Drivers/CMSIS/Include/cmsis_gcc.h **** 
 228:Drivers/CMSIS/Include/cmsis_gcc.h **** /**
 229:Drivers/CMSIS/Include/cmsis_gcc.h ****   \brief   Get xPSR Register
 230:Drivers/CMSIS/Include/cmsis_gcc.h ****   \details Returns the content of the xPSR Register.
 231:Drivers/CMSIS/Include/cmsis_gcc.h ****   \return               xPSR Register value
 232:Drivers/CMSIS/Include/cmsis_gcc.h ****  */
 233:Drivers/CMSIS/Include/cmsis_gcc.h **** __STATIC_FORCEINLINE uint32_t __get_xPSR(void)
 234:Drivers/CMSIS/Include/cmsis_gcc.h **** {
 235:Drivers/CMSIS/Include/cmsis_gcc.h ****   uint32_t result;
 236:Drivers/CMSIS/Include/cmsis_gcc.h **** 
 237:Drivers/CMSIS/Include/cmsis_gcc.h ****   __ASM volatile ("MRS %0, xpsr" : "=r" (result) );
 238:Drivers/CMSIS/Include/cmsis_gcc.h ****   return(result);
 239:Drivers/CMSIS/Include/cmsis_gcc.h **** }
 240:Drivers/CMSIS/Include/cmsis_gcc.h **** 
 241:Drivers/CMSIS/Include/cmsis_gcc.h **** 
 242:Drivers/CMSIS/Include/cmsis_gcc.h **** /**
 243:Drivers/CMSIS/Include/cmsis_gcc.h ****   \brief   Get Process Stack Pointer
 244:Drivers/CMSIS/Include/cmsis_gcc.h ****   \details Returns the current value of the Process Stack Pointer (PSP).
 245:Drivers/CMSIS/Include/cmsis_gcc.h ****   \return               PSP Register value
 246:Drivers/CMSIS/Include/cmsis_gcc.h ****  */
 247:Drivers/CMSIS/Include/cmsis_gcc.h **** __STATIC_FORCEINLINE uint32_t __get_PSP(void)
 248:Drivers/CMSIS/Include/cmsis_gcc.h **** {
 249:Drivers/CMSIS/Include/cmsis_gcc.h ****   uint32_t result;
 250:Drivers/CMSIS/Include/cmsis_gcc.h **** 
 251:Drivers/CMSIS/Include/cmsis_gcc.h ****   __ASM volatile ("MRS %0, psp"  : "=r" (result) );
 252:Drivers/CMSIS/Include/cmsis_gcc.h ****   return(result);
 253:Drivers/CMSIS/Include/cmsis_gcc.h **** }
 254:Drivers/CMSIS/Include/cmsis_gcc.h **** 
 255:Drivers/CMSIS/Include/cmsis_gcc.h **** 
 256:Drivers/CMSIS/Include/cmsis_gcc.h **** #if (defined (__ARM_FEATURE_CMSE ) && (__ARM_FEATURE_CMSE == 3))
 257:Drivers/CMSIS/Include/cmsis_gcc.h **** /**
 258:Drivers/CMSIS/Include/cmsis_gcc.h ****   \brief   Get Process Stack Pointer (non-secure)
 259:Drivers/CMSIS/Include/cmsis_gcc.h ****   \details Returns the current value of the non-secure Process Stack Pointer (PSP) when in secure s
 260:Drivers/CMSIS/Include/cmsis_gcc.h ****   \return               PSP Register value
 261:Drivers/CMSIS/Include/cmsis_gcc.h ****  */
 262:Drivers/CMSIS/Include/cmsis_gcc.h **** __STATIC_FORCEINLINE uint32_t __TZ_get_PSP_NS(void)
 263:Drivers/CMSIS/Include/cmsis_gcc.h **** {
 264:Drivers/CMSIS/Include/cmsis_gcc.h ****   uint32_t result;
 265:Drivers/CMSIS/Include/cmsis_gcc.h **** 
 266:Drivers/CMSIS/Include/cmsis_gcc.h ****   __ASM volatile ("MRS %0, psp_ns"  : "=r" (result) );
 267:Drivers/CMSIS/Include/cmsis_gcc.h ****   return(result);
 268:Drivers/CMSIS/Include/cmsis_gcc.h **** }
 269:Drivers/CMSIS/Include/cmsis_gcc.h **** #endif
 270:Drivers/CMSIS/Include/cmsis_gcc.h **** 
 271:Drivers/CMSIS/Include/cmsis_gcc.h **** 
 272:Drivers/CMSIS/Include/cmsis_gcc.h **** /**
 273:Drivers/CMSIS/Include/cmsis_gcc.h ****   \brief   Set Process Stack Pointer
 274:Drivers/CMSIS/Include/cmsis_gcc.h ****   \details Assigns the given value to the Process Stack Pointer (PSP).
 275:Drivers/CMSIS/Include/cmsis_gcc.h ****   \param [in]    topOfProcStack  Process Stack Pointer value to set
 276:Drivers/CMSIS/Include/cmsis_gcc.h ****  */
 277:Drivers/CMSIS/Include/cmsis_gcc.h **** __STATIC_FORCEINLINE void __set_PSP(uint32_t topOfProcStack)
 278:Drivers/CMSIS/Include/cmsis_gcc.h **** {
ARM GAS  /tmp/ccJ2K96T.s 			page 22


 279:Drivers/CMSIS/Include/cmsis_gcc.h ****   __ASM volatile ("MSR psp, %0" : : "r" (topOfProcStack) : );
 280:Drivers/CMSIS/Include/cmsis_gcc.h **** }
 281:Drivers/CMSIS/Include/cmsis_gcc.h **** 
 282:Drivers/CMSIS/Include/cmsis_gcc.h **** 
 283:Drivers/CMSIS/Include/cmsis_gcc.h **** #if (defined (__ARM_FEATURE_CMSE ) && (__ARM_FEATURE_CMSE == 3))
 284:Drivers/CMSIS/Include/cmsis_gcc.h **** /**
 285:Drivers/CMSIS/Include/cmsis_gcc.h ****   \brief   Set Process Stack Pointer (non-secure)
 286:Drivers/CMSIS/Include/cmsis_gcc.h ****   \details Assigns the given value to the non-secure Process Stack Pointer (PSP) when in secure sta
 287:Drivers/CMSIS/Include/cmsis_gcc.h ****   \param [in]    topOfProcStack  Process Stack Pointer value to set
 288:Drivers/CMSIS/Include/cmsis_gcc.h ****  */
 289:Drivers/CMSIS/Include/cmsis_gcc.h **** __STATIC_FORCEINLINE void __TZ_set_PSP_NS(uint32_t topOfProcStack)
 290:Drivers/CMSIS/Include/cmsis_gcc.h **** {
 291:Drivers/CMSIS/Include/cmsis_gcc.h ****   __ASM volatile ("MSR psp_ns, %0" : : "r" (topOfProcStack) : );
 292:Drivers/CMSIS/Include/cmsis_gcc.h **** }
 293:Drivers/CMSIS/Include/cmsis_gcc.h **** #endif
 294:Drivers/CMSIS/Include/cmsis_gcc.h **** 
 295:Drivers/CMSIS/Include/cmsis_gcc.h **** 
 296:Drivers/CMSIS/Include/cmsis_gcc.h **** /**
 297:Drivers/CMSIS/Include/cmsis_gcc.h ****   \brief   Get Main Stack Pointer
 298:Drivers/CMSIS/Include/cmsis_gcc.h ****   \details Returns the current value of the Main Stack Pointer (MSP).
 299:Drivers/CMSIS/Include/cmsis_gcc.h ****   \return               MSP Register value
 300:Drivers/CMSIS/Include/cmsis_gcc.h ****  */
 301:Drivers/CMSIS/Include/cmsis_gcc.h **** __STATIC_FORCEINLINE uint32_t __get_MSP(void)
 302:Drivers/CMSIS/Include/cmsis_gcc.h **** {
 303:Drivers/CMSIS/Include/cmsis_gcc.h ****   uint32_t result;
 304:Drivers/CMSIS/Include/cmsis_gcc.h **** 
 305:Drivers/CMSIS/Include/cmsis_gcc.h ****   __ASM volatile ("MRS %0, msp" : "=r" (result) );
 306:Drivers/CMSIS/Include/cmsis_gcc.h ****   return(result);
 307:Drivers/CMSIS/Include/cmsis_gcc.h **** }
 308:Drivers/CMSIS/Include/cmsis_gcc.h **** 
 309:Drivers/CMSIS/Include/cmsis_gcc.h **** 
 310:Drivers/CMSIS/Include/cmsis_gcc.h **** #if (defined (__ARM_FEATURE_CMSE ) && (__ARM_FEATURE_CMSE == 3))
 311:Drivers/CMSIS/Include/cmsis_gcc.h **** /**
 312:Drivers/CMSIS/Include/cmsis_gcc.h ****   \brief   Get Main Stack Pointer (non-secure)
 313:Drivers/CMSIS/Include/cmsis_gcc.h ****   \details Returns the current value of the non-secure Main Stack Pointer (MSP) when in secure stat
 314:Drivers/CMSIS/Include/cmsis_gcc.h ****   \return               MSP Register value
 315:Drivers/CMSIS/Include/cmsis_gcc.h ****  */
 316:Drivers/CMSIS/Include/cmsis_gcc.h **** __STATIC_FORCEINLINE uint32_t __TZ_get_MSP_NS(void)
 317:Drivers/CMSIS/Include/cmsis_gcc.h **** {
 318:Drivers/CMSIS/Include/cmsis_gcc.h ****   uint32_t result;
 319:Drivers/CMSIS/Include/cmsis_gcc.h **** 
 320:Drivers/CMSIS/Include/cmsis_gcc.h ****   __ASM volatile ("MRS %0, msp_ns" : "=r" (result) );
 321:Drivers/CMSIS/Include/cmsis_gcc.h ****   return(result);
 322:Drivers/CMSIS/Include/cmsis_gcc.h **** }
 323:Drivers/CMSIS/Include/cmsis_gcc.h **** #endif
 324:Drivers/CMSIS/Include/cmsis_gcc.h **** 
 325:Drivers/CMSIS/Include/cmsis_gcc.h **** 
 326:Drivers/CMSIS/Include/cmsis_gcc.h **** /**
 327:Drivers/CMSIS/Include/cmsis_gcc.h ****   \brief   Set Main Stack Pointer
 328:Drivers/CMSIS/Include/cmsis_gcc.h ****   \details Assigns the given value to the Main Stack Pointer (MSP).
 329:Drivers/CMSIS/Include/cmsis_gcc.h ****   \param [in]    topOfMainStack  Main Stack Pointer value to set
 330:Drivers/CMSIS/Include/cmsis_gcc.h ****  */
 331:Drivers/CMSIS/Include/cmsis_gcc.h **** __STATIC_FORCEINLINE void __set_MSP(uint32_t topOfMainStack)
 332:Drivers/CMSIS/Include/cmsis_gcc.h **** {
 333:Drivers/CMSIS/Include/cmsis_gcc.h ****   __ASM volatile ("MSR msp, %0" : : "r" (topOfMainStack) : );
 334:Drivers/CMSIS/Include/cmsis_gcc.h **** }
 335:Drivers/CMSIS/Include/cmsis_gcc.h **** 
ARM GAS  /tmp/ccJ2K96T.s 			page 23


 336:Drivers/CMSIS/Include/cmsis_gcc.h **** 
 337:Drivers/CMSIS/Include/cmsis_gcc.h **** #if (defined (__ARM_FEATURE_CMSE ) && (__ARM_FEATURE_CMSE == 3))
 338:Drivers/CMSIS/Include/cmsis_gcc.h **** /**
 339:Drivers/CMSIS/Include/cmsis_gcc.h ****   \brief   Set Main Stack Pointer (non-secure)
 340:Drivers/CMSIS/Include/cmsis_gcc.h ****   \details Assigns the given value to the non-secure Main Stack Pointer (MSP) when in secure state.
 341:Drivers/CMSIS/Include/cmsis_gcc.h ****   \param [in]    topOfMainStack  Main Stack Pointer value to set
 342:Drivers/CMSIS/Include/cmsis_gcc.h ****  */
 343:Drivers/CMSIS/Include/cmsis_gcc.h **** __STATIC_FORCEINLINE void __TZ_set_MSP_NS(uint32_t topOfMainStack)
 344:Drivers/CMSIS/Include/cmsis_gcc.h **** {
 345:Drivers/CMSIS/Include/cmsis_gcc.h ****   __ASM volatile ("MSR msp_ns, %0" : : "r" (topOfMainStack) : );
 346:Drivers/CMSIS/Include/cmsis_gcc.h **** }
 347:Drivers/CMSIS/Include/cmsis_gcc.h **** #endif
 348:Drivers/CMSIS/Include/cmsis_gcc.h **** 
 349:Drivers/CMSIS/Include/cmsis_gcc.h **** 
 350:Drivers/CMSIS/Include/cmsis_gcc.h **** #if (defined (__ARM_FEATURE_CMSE ) && (__ARM_FEATURE_CMSE == 3))
 351:Drivers/CMSIS/Include/cmsis_gcc.h **** /**
 352:Drivers/CMSIS/Include/cmsis_gcc.h ****   \brief   Get Stack Pointer (non-secure)
 353:Drivers/CMSIS/Include/cmsis_gcc.h ****   \details Returns the current value of the non-secure Stack Pointer (SP) when in secure state.
 354:Drivers/CMSIS/Include/cmsis_gcc.h ****   \return               SP Register value
 355:Drivers/CMSIS/Include/cmsis_gcc.h ****  */
 356:Drivers/CMSIS/Include/cmsis_gcc.h **** __STATIC_FORCEINLINE uint32_t __TZ_get_SP_NS(void)
 357:Drivers/CMSIS/Include/cmsis_gcc.h **** {
 358:Drivers/CMSIS/Include/cmsis_gcc.h ****   uint32_t result;
 359:Drivers/CMSIS/Include/cmsis_gcc.h **** 
 360:Drivers/CMSIS/Include/cmsis_gcc.h ****   __ASM volatile ("MRS %0, sp_ns" : "=r" (result) );
 361:Drivers/CMSIS/Include/cmsis_gcc.h ****   return(result);
 362:Drivers/CMSIS/Include/cmsis_gcc.h **** }
 363:Drivers/CMSIS/Include/cmsis_gcc.h **** 
 364:Drivers/CMSIS/Include/cmsis_gcc.h **** 
 365:Drivers/CMSIS/Include/cmsis_gcc.h **** /**
 366:Drivers/CMSIS/Include/cmsis_gcc.h ****   \brief   Set Stack Pointer (non-secure)
 367:Drivers/CMSIS/Include/cmsis_gcc.h ****   \details Assigns the given value to the non-secure Stack Pointer (SP) when in secure state.
 368:Drivers/CMSIS/Include/cmsis_gcc.h ****   \param [in]    topOfStack  Stack Pointer value to set
 369:Drivers/CMSIS/Include/cmsis_gcc.h ****  */
 370:Drivers/CMSIS/Include/cmsis_gcc.h **** __STATIC_FORCEINLINE void __TZ_set_SP_NS(uint32_t topOfStack)
 371:Drivers/CMSIS/Include/cmsis_gcc.h **** {
 372:Drivers/CMSIS/Include/cmsis_gcc.h ****   __ASM volatile ("MSR sp_ns, %0" : : "r" (topOfStack) : );
 373:Drivers/CMSIS/Include/cmsis_gcc.h **** }
 374:Drivers/CMSIS/Include/cmsis_gcc.h **** #endif
 375:Drivers/CMSIS/Include/cmsis_gcc.h **** 
 376:Drivers/CMSIS/Include/cmsis_gcc.h **** 
 377:Drivers/CMSIS/Include/cmsis_gcc.h **** /**
 378:Drivers/CMSIS/Include/cmsis_gcc.h ****   \brief   Get Priority Mask
 379:Drivers/CMSIS/Include/cmsis_gcc.h ****   \details Returns the current state of the priority mask bit from the Priority Mask Register.
 380:Drivers/CMSIS/Include/cmsis_gcc.h ****   \return               Priority Mask value
 381:Drivers/CMSIS/Include/cmsis_gcc.h ****  */
 382:Drivers/CMSIS/Include/cmsis_gcc.h **** __STATIC_FORCEINLINE uint32_t __get_PRIMASK(void)
 383:Drivers/CMSIS/Include/cmsis_gcc.h **** {
 384:Drivers/CMSIS/Include/cmsis_gcc.h ****   uint32_t result;
 385:Drivers/CMSIS/Include/cmsis_gcc.h **** 
 386:Drivers/CMSIS/Include/cmsis_gcc.h ****   __ASM volatile ("MRS %0, primask" : "=r" (result) :: "memory");
  86              		.loc 2 386 0
  87              		.syntax divided
  88              	@ 386 "Drivers/CMSIS/Include/cmsis_gcc.h" 1
  89 0008 EFF31083 		MRS r3, primask
  90              	@ 0 "" 2
  91              		.thumb
ARM GAS  /tmp/ccJ2K96T.s 			page 24


  92              		.syntax unified
  93              	.LBE221:
  94              	.LBE220:
 138:Middlewares/Third_Party/FreeRTOS/Source/CMSIS_RTOS_V2/cmsis_os2.c ****     stat = osErrorISR;
  95              		.loc 1 138 0
  96 000c 002B     		cmp	r3, #0
  97 000e 03D0     		beq	.L5
 138:Middlewares/Third_Party/FreeRTOS/Source/CMSIS_RTOS_V2/cmsis_os2.c ****     stat = osErrorISR;
  98              		.loc 1 138 0 is_stmt 0 discriminator 2
  99 0010 0A4B     		ldr	r3, .L9
 100 0012 1B68     		ldr	r3, [r3]
 101 0014 022B     		cmp	r3, #2
 102 0016 0BD0     		beq	.L7
 103              	.L5:
 142:Middlewares/Third_Party/FreeRTOS/Source/CMSIS_RTOS_V2/cmsis_os2.c ****       #if defined(USE_FreeRTOS_HEAP_5)
 104              		.loc 1 142 0 is_stmt 1
 105 0018 084B     		ldr	r3, .L9
 106 001a 1B68     		ldr	r3, [r3]
 107 001c 002B     		cmp	r3, #0
 108 001e 0AD1     		bne	.L8
 146:Middlewares/Third_Party/FreeRTOS/Source/CMSIS_RTOS_V2/cmsis_os2.c ****       stat = osOK;
 109              		.loc 1 146 0
 110 0020 064B     		ldr	r3, .L9
 111 0022 0122     		movs	r2, #1
 112 0024 1A60     		str	r2, [r3]
 113              	.LVL4:
 147:Middlewares/Third_Party/FreeRTOS/Source/CMSIS_RTOS_V2/cmsis_os2.c ****     } else {
 114              		.loc 1 147 0
 115 0026 0020     		movs	r0, #0
 116              	.LVL5:
 117              	.L3:
 154:Middlewares/Third_Party/FreeRTOS/Source/CMSIS_RTOS_V2/cmsis_os2.c **** 
 118              		.loc 1 154 0
 119              		@ sp needed
 120 0028 7047     		bx	lr
 121              	.L6:
 139:Middlewares/Third_Party/FreeRTOS/Source/CMSIS_RTOS_V2/cmsis_os2.c ****   }
 122              		.loc 1 139 0
 123 002a 0620     		movs	r0, #6
 124 002c 4042     		rsbs	r0, r0, #0
 125 002e FBE7     		b	.L3
 126              	.L7:
 127 0030 0620     		movs	r0, #6
 128 0032 4042     		rsbs	r0, r0, #0
 129 0034 F8E7     		b	.L3
 130              	.L8:
 149:Middlewares/Third_Party/FreeRTOS/Source/CMSIS_RTOS_V2/cmsis_os2.c ****     }
 131              		.loc 1 149 0
 132 0036 0120     		movs	r0, #1
 133 0038 4042     		rsbs	r0, r0, #0
 134              	.LVL6:
 153:Middlewares/Third_Party/FreeRTOS/Source/CMSIS_RTOS_V2/cmsis_os2.c **** }
 135              		.loc 1 153 0
 136 003a F5E7     		b	.L3
 137              	.L10:
 138              		.align	2
 139              	.L9:
ARM GAS  /tmp/ccJ2K96T.s 			page 25


 140 003c 00000000 		.word	.LANCHOR0
 141              		.cfi_endproc
 142              	.LFE25:
 144              		.section	.text.osKernelGetInfo,"ax",%progbits
 145              		.align	1
 146              		.global	osKernelGetInfo
 147              		.syntax unified
 148              		.code	16
 149              		.thumb_func
 150              		.fpu softvfp
 152              	osKernelGetInfo:
 153              	.LFB26:
 156:Middlewares/Third_Party/FreeRTOS/Source/CMSIS_RTOS_V2/cmsis_os2.c **** 
 154              		.loc 1 156 0
 155              		.cfi_startproc
 156              		@ args = 0, pretend = 0, frame = 0
 157              		@ frame_needed = 0, uses_anonymous_args = 0
 158              	.LVL7:
 159 0000 10B5     		push	{r4, lr}
 160              	.LCFI1:
 161              		.cfi_def_cfa_offset 8
 162              		.cfi_offset 4, -8
 163              		.cfi_offset 14, -4
 164 0002 0B00     		movs	r3, r1
 158:Middlewares/Third_Party/FreeRTOS/Source/CMSIS_RTOS_V2/cmsis_os2.c ****     version->api    = KERNEL_VERSION;
 165              		.loc 1 158 0
 166 0004 0028     		cmp	r0, #0
 167 0006 02D0     		beq	.L12
 159:Middlewares/Third_Party/FreeRTOS/Source/CMSIS_RTOS_V2/cmsis_os2.c ****     version->kernel = KERNEL_VERSION;
 168              		.loc 1 159 0
 169 0008 0749     		ldr	r1, .L16
 170              	.LVL8:
 171 000a 0160     		str	r1, [r0]
 160:Middlewares/Third_Party/FreeRTOS/Source/CMSIS_RTOS_V2/cmsis_os2.c ****   }
 172              		.loc 1 160 0
 173 000c 4160     		str	r1, [r0, #4]
 174              	.L12:
 163:Middlewares/Third_Party/FreeRTOS/Source/CMSIS_RTOS_V2/cmsis_os2.c ****     if (id_size > sizeof(KERNEL_ID)) {
 175              		.loc 1 163 0
 176 000e 002B     		cmp	r3, #0
 177 0010 08D0     		beq	.L13
 163:Middlewares/Third_Party/FreeRTOS/Source/CMSIS_RTOS_V2/cmsis_os2.c ****     if (id_size > sizeof(KERNEL_ID)) {
 178              		.loc 1 163 0 is_stmt 0 discriminator 1
 179 0012 002A     		cmp	r2, #0
 180 0014 06D0     		beq	.L13
 164:Middlewares/Third_Party/FreeRTOS/Source/CMSIS_RTOS_V2/cmsis_os2.c ****       id_size = sizeof(KERNEL_ID);
 181              		.loc 1 164 0 is_stmt 1
 182 0016 112A     		cmp	r2, #17
 183 0018 00D9     		bls	.L14
 165:Middlewares/Third_Party/FreeRTOS/Source/CMSIS_RTOS_V2/cmsis_os2.c ****     }
 184              		.loc 1 165 0
 185 001a 1122     		movs	r2, #17
 186              	.LVL9:
 187              	.L14:
 167:Middlewares/Third_Party/FreeRTOS/Source/CMSIS_RTOS_V2/cmsis_os2.c ****   }
 188              		.loc 1 167 0
 189 001c 0349     		ldr	r1, .L16+4
ARM GAS  /tmp/ccJ2K96T.s 			page 26


 190 001e 1800     		movs	r0, r3
 191              	.LVL10:
 192 0020 FFF7FEFF 		bl	memcpy
 193              	.LVL11:
 194              	.L13:
 171:Middlewares/Third_Party/FreeRTOS/Source/CMSIS_RTOS_V2/cmsis_os2.c **** 
 195              		.loc 1 171 0
 196 0024 0020     		movs	r0, #0
 197              		@ sp needed
 198 0026 10BD     		pop	{r4, pc}
 199              	.L17:
 200              		.align	2
 201              	.L16:
 202 0028 01E1F505 		.word	100000001
 203 002c 00000000 		.word	.LC1
 204              		.cfi_endproc
 205              	.LFE26:
 207              		.section	.text.osKernelGetState,"ax",%progbits
 208              		.align	1
 209              		.global	osKernelGetState
 210              		.syntax unified
 211              		.code	16
 212              		.thumb_func
 213              		.fpu softvfp
 215              	osKernelGetState:
 216              	.LFB27:
 173:Middlewares/Third_Party/FreeRTOS/Source/CMSIS_RTOS_V2/cmsis_os2.c ****   osKernelState_t state;
 217              		.loc 1 173 0
 218              		.cfi_startproc
 219              		@ args = 0, pretend = 0, frame = 0
 220              		@ frame_needed = 0, uses_anonymous_args = 0
 221 0000 10B5     		push	{r4, lr}
 222              	.LCFI2:
 223              		.cfi_def_cfa_offset 8
 224              		.cfi_offset 4, -8
 225              		.cfi_offset 14, -4
 176:Middlewares/Third_Party/FreeRTOS/Source/CMSIS_RTOS_V2/cmsis_os2.c ****     case taskSCHEDULER_RUNNING:
 226              		.loc 1 176 0
 227 0002 FFF7FEFF 		bl	xTaskGetSchedulerState
 228              	.LVL12:
 229 0006 0028     		cmp	r0, #0
 230 0008 07D0     		beq	.L22
 231 000a 0228     		cmp	r0, #2
 232 000c 06D0     		beq	.L18
 187:Middlewares/Third_Party/FreeRTOS/Source/CMSIS_RTOS_V2/cmsis_os2.c ****         state = osKernelReady;
 233              		.loc 1 187 0
 234 000e 044B     		ldr	r3, .L25
 235 0010 1868     		ldr	r0, [r3]
 236 0012 0128     		cmp	r0, #1
 237 0014 02D0     		beq	.L18
 190:Middlewares/Third_Party/FreeRTOS/Source/CMSIS_RTOS_V2/cmsis_os2.c ****       }
 238              		.loc 1 190 0
 239 0016 0020     		movs	r0, #0
 240              	.LVL13:
 195:Middlewares/Third_Party/FreeRTOS/Source/CMSIS_RTOS_V2/cmsis_os2.c **** }
 241              		.loc 1 195 0
 242 0018 00E0     		b	.L18
ARM GAS  /tmp/ccJ2K96T.s 			page 27


 243              	.LVL14:
 244              	.L22:
 182:Middlewares/Third_Party/FreeRTOS/Source/CMSIS_RTOS_V2/cmsis_os2.c ****       break;
 245              		.loc 1 182 0
 246 001a 0320     		movs	r0, #3
 247              	.L18:
 196:Middlewares/Third_Party/FreeRTOS/Source/CMSIS_RTOS_V2/cmsis_os2.c **** 
 248              		.loc 1 196 0
 249              		@ sp needed
 250 001c 10BD     		pop	{r4, pc}
 251              	.L26:
 252 001e C046     		.align	2
 253              	.L25:
 254 0020 00000000 		.word	.LANCHOR0
 255              		.cfi_endproc
 256              	.LFE27:
 258              		.section	.text.osKernelStart,"ax",%progbits
 259              		.align	1
 260              		.global	osKernelStart
 261              		.syntax unified
 262              		.code	16
 263              		.thumb_func
 264              		.fpu softvfp
 266              	osKernelStart:
 267              	.LFB28:
 198:Middlewares/Third_Party/FreeRTOS/Source/CMSIS_RTOS_V2/cmsis_os2.c ****   osStatus_t stat;
 268              		.loc 1 198 0
 269              		.cfi_startproc
 270              		@ args = 0, pretend = 0, frame = 0
 271              		@ frame_needed = 0, uses_anonymous_args = 0
 272 0000 10B5     		push	{r4, lr}
 273              	.LCFI3:
 274              		.cfi_def_cfa_offset 8
 275              		.cfi_offset 4, -8
 276              		.cfi_offset 14, -4
 277              	.LBB222:
 278              	.LBB223:
 209:Drivers/CMSIS/Include/cmsis_gcc.h ****   return(result);
 279              		.loc 2 209 0
 280              		.syntax divided
 281              	@ 209 "Drivers/CMSIS/Include/cmsis_gcc.h" 1
 282 0002 EFF30583 		MRS r3, ipsr
 283              	@ 0 "" 2
 284              		.thumb
 285              		.syntax unified
 286              	.LBE223:
 287              	.LBE222:
 201:Middlewares/Third_Party/FreeRTOS/Source/CMSIS_RTOS_V2/cmsis_os2.c ****     stat = osErrorISR;
 288              		.loc 1 201 0
 289 0006 002B     		cmp	r3, #0
 290 0008 12D1     		bne	.L30
 291              	.LBB224:
 292              	.LBB225:
 293              		.loc 2 386 0
 294              		.syntax divided
 295              	@ 386 "Drivers/CMSIS/Include/cmsis_gcc.h" 1
 296 000a EFF31083 		MRS r3, primask
ARM GAS  /tmp/ccJ2K96T.s 			page 28


 297              	@ 0 "" 2
 298              		.thumb
 299              		.syntax unified
 300              	.LBE225:
 301              	.LBE224:
 201:Middlewares/Third_Party/FreeRTOS/Source/CMSIS_RTOS_V2/cmsis_os2.c ****     stat = osErrorISR;
 302              		.loc 1 201 0
 303 000e 002B     		cmp	r3, #0
 304 0010 03D0     		beq	.L29
 201:Middlewares/Third_Party/FreeRTOS/Source/CMSIS_RTOS_V2/cmsis_os2.c ****     stat = osErrorISR;
 305              		.loc 1 201 0 is_stmt 0 discriminator 2
 306 0012 0C4B     		ldr	r3, .L33
 307 0014 1B68     		ldr	r3, [r3]
 308 0016 022B     		cmp	r3, #2
 309 0018 0DD0     		beq	.L31
 310              	.L29:
 205:Middlewares/Third_Party/FreeRTOS/Source/CMSIS_RTOS_V2/cmsis_os2.c ****       KernelState = osKernelRunning;
 311              		.loc 1 205 0 is_stmt 1
 312 001a 0A4B     		ldr	r3, .L33
 313 001c 1B68     		ldr	r3, [r3]
 314 001e 012B     		cmp	r3, #1
 315 0020 0CD1     		bne	.L32
 206:Middlewares/Third_Party/FreeRTOS/Source/CMSIS_RTOS_V2/cmsis_os2.c ****       vTaskStartScheduler();
 316              		.loc 1 206 0
 317 0022 084B     		ldr	r3, .L33
 318 0024 0222     		movs	r2, #2
 319 0026 1A60     		str	r2, [r3]
 207:Middlewares/Third_Party/FreeRTOS/Source/CMSIS_RTOS_V2/cmsis_os2.c ****       stat = osOK;
 320              		.loc 1 207 0
 321 0028 FFF7FEFF 		bl	vTaskStartScheduler
 322              	.LVL15:
 208:Middlewares/Third_Party/FreeRTOS/Source/CMSIS_RTOS_V2/cmsis_os2.c ****     } else {
 323              		.loc 1 208 0
 324 002c 0020     		movs	r0, #0
 325              	.LVL16:
 326              	.L27:
 215:Middlewares/Third_Party/FreeRTOS/Source/CMSIS_RTOS_V2/cmsis_os2.c **** 
 327              		.loc 1 215 0
 328              		@ sp needed
 329 002e 10BD     		pop	{r4, pc}
 330              	.L30:
 202:Middlewares/Third_Party/FreeRTOS/Source/CMSIS_RTOS_V2/cmsis_os2.c ****   }
 331              		.loc 1 202 0
 332 0030 0620     		movs	r0, #6
 333 0032 4042     		rsbs	r0, r0, #0
 334 0034 FBE7     		b	.L27
 335              	.L31:
 336 0036 0620     		movs	r0, #6
 337 0038 4042     		rsbs	r0, r0, #0
 338 003a F8E7     		b	.L27
 339              	.L32:
 210:Middlewares/Third_Party/FreeRTOS/Source/CMSIS_RTOS_V2/cmsis_os2.c ****     }
 340              		.loc 1 210 0
 341 003c 0120     		movs	r0, #1
 342 003e 4042     		rsbs	r0, r0, #0
 343              	.LVL17:
 214:Middlewares/Third_Party/FreeRTOS/Source/CMSIS_RTOS_V2/cmsis_os2.c **** }
ARM GAS  /tmp/ccJ2K96T.s 			page 29


 344              		.loc 1 214 0
 345 0040 F5E7     		b	.L27
 346              	.L34:
 347 0042 C046     		.align	2
 348              	.L33:
 349 0044 00000000 		.word	.LANCHOR0
 350              		.cfi_endproc
 351              	.LFE28:
 353              		.section	.text.osKernelLock,"ax",%progbits
 354              		.align	1
 355              		.global	osKernelLock
 356              		.syntax unified
 357              		.code	16
 358              		.thumb_func
 359              		.fpu softvfp
 361              	osKernelLock:
 362              	.LFB29:
 217:Middlewares/Third_Party/FreeRTOS/Source/CMSIS_RTOS_V2/cmsis_os2.c ****   int32_t lock;
 363              		.loc 1 217 0
 364              		.cfi_startproc
 365              		@ args = 0, pretend = 0, frame = 0
 366              		@ frame_needed = 0, uses_anonymous_args = 0
 367 0000 10B5     		push	{r4, lr}
 368              	.LCFI4:
 369              		.cfi_def_cfa_offset 8
 370              		.cfi_offset 4, -8
 371              		.cfi_offset 14, -4
 372              	.LBB226:
 373              	.LBB227:
 209:Drivers/CMSIS/Include/cmsis_gcc.h ****   return(result);
 374              		.loc 2 209 0
 375              		.syntax divided
 376              	@ 209 "Drivers/CMSIS/Include/cmsis_gcc.h" 1
 377 0002 EFF30583 		MRS r3, ipsr
 378              	@ 0 "" 2
 379              		.thumb
 380              		.syntax unified
 381              	.LBE227:
 382              	.LBE226:
 220:Middlewares/Third_Party/FreeRTOS/Source/CMSIS_RTOS_V2/cmsis_os2.c ****     lock = (int32_t)osErrorISR;
 383              		.loc 1 220 0
 384 0006 002B     		cmp	r3, #0
 385 0008 16D1     		bne	.L40
 386              	.LBB228:
 387              	.LBB229:
 388              		.loc 2 386 0
 389              		.syntax divided
 390              	@ 386 "Drivers/CMSIS/Include/cmsis_gcc.h" 1
 391 000a EFF31083 		MRS r3, primask
 392              	@ 0 "" 2
 393              		.thumb
 394              		.syntax unified
 395              	.LBE229:
 396              	.LBE228:
 220:Middlewares/Third_Party/FreeRTOS/Source/CMSIS_RTOS_V2/cmsis_os2.c ****     lock = (int32_t)osErrorISR;
 397              		.loc 1 220 0
 398 000e 002B     		cmp	r3, #0
ARM GAS  /tmp/ccJ2K96T.s 			page 30


 399 0010 03D0     		beq	.L37
 220:Middlewares/Third_Party/FreeRTOS/Source/CMSIS_RTOS_V2/cmsis_os2.c ****     lock = (int32_t)osErrorISR;
 400              		.loc 1 220 0 is_stmt 0 discriminator 2
 401 0012 0C4B     		ldr	r3, .L44
 402 0014 1B68     		ldr	r3, [r3]
 403 0016 022B     		cmp	r3, #2
 404 0018 11D0     		beq	.L41
 405              	.L37:
 224:Middlewares/Third_Party/FreeRTOS/Source/CMSIS_RTOS_V2/cmsis_os2.c ****       case taskSCHEDULER_SUSPENDED:
 406              		.loc 1 224 0 is_stmt 1
 407 001a FFF7FEFF 		bl	xTaskGetSchedulerState
 408              	.LVL18:
 409 001e 0028     		cmp	r0, #0
 410 0020 04D0     		beq	.L38
 411 0022 0228     		cmp	r0, #2
 412 0024 04D0     		beq	.L39
 236:Middlewares/Third_Party/FreeRTOS/Source/CMSIS_RTOS_V2/cmsis_os2.c ****         break;
 413              		.loc 1 236 0
 414 0026 0120     		movs	r0, #1
 415 0028 4042     		rsbs	r0, r0, #0
 416              	.LVL19:
 241:Middlewares/Third_Party/FreeRTOS/Source/CMSIS_RTOS_V2/cmsis_os2.c **** }
 417              		.loc 1 241 0
 418 002a 00E0     		b	.L35
 419              	.LVL20:
 420              	.L38:
 226:Middlewares/Third_Party/FreeRTOS/Source/CMSIS_RTOS_V2/cmsis_os2.c ****         break;
 421              		.loc 1 226 0
 422 002c 0120     		movs	r0, #1
 423              	.L35:
 242:Middlewares/Third_Party/FreeRTOS/Source/CMSIS_RTOS_V2/cmsis_os2.c **** 
 424              		.loc 1 242 0
 425              		@ sp needed
 426 002e 10BD     		pop	{r4, pc}
 427              	.L39:
 230:Middlewares/Third_Party/FreeRTOS/Source/CMSIS_RTOS_V2/cmsis_os2.c ****         lock = 0;
 428              		.loc 1 230 0
 429 0030 FFF7FEFF 		bl	vTaskSuspendAll
 430              	.LVL21:
 231:Middlewares/Third_Party/FreeRTOS/Source/CMSIS_RTOS_V2/cmsis_os2.c ****         break;
 431              		.loc 1 231 0
 432 0034 0020     		movs	r0, #0
 232:Middlewares/Third_Party/FreeRTOS/Source/CMSIS_RTOS_V2/cmsis_os2.c **** 
 433              		.loc 1 232 0
 434 0036 FAE7     		b	.L35
 435              	.LVL22:
 436              	.L40:
 221:Middlewares/Third_Party/FreeRTOS/Source/CMSIS_RTOS_V2/cmsis_os2.c ****   }
 437              		.loc 1 221 0
 438 0038 0620     		movs	r0, #6
 439 003a 4042     		rsbs	r0, r0, #0
 440 003c F7E7     		b	.L35
 441              	.L41:
 442 003e 0620     		movs	r0, #6
 443 0040 4042     		rsbs	r0, r0, #0
 444 0042 F4E7     		b	.L35
 445              	.L45:
ARM GAS  /tmp/ccJ2K96T.s 			page 31


 446              		.align	2
 447              	.L44:
 448 0044 00000000 		.word	.LANCHOR0
 449              		.cfi_endproc
 450              	.LFE29:
 452              		.section	.text.osKernelUnlock,"ax",%progbits
 453              		.align	1
 454              		.global	osKernelUnlock
 455              		.syntax unified
 456              		.code	16
 457              		.thumb_func
 458              		.fpu softvfp
 460              	osKernelUnlock:
 461              	.LFB30:
 244:Middlewares/Third_Party/FreeRTOS/Source/CMSIS_RTOS_V2/cmsis_os2.c ****   int32_t lock;
 462              		.loc 1 244 0
 463              		.cfi_startproc
 464              		@ args = 0, pretend = 0, frame = 0
 465              		@ frame_needed = 0, uses_anonymous_args = 0
 466 0000 10B5     		push	{r4, lr}
 467              	.LCFI5:
 468              		.cfi_def_cfa_offset 8
 469              		.cfi_offset 4, -8
 470              		.cfi_offset 14, -4
 471              	.LBB230:
 472              	.LBB231:
 209:Drivers/CMSIS/Include/cmsis_gcc.h ****   return(result);
 473              		.loc 2 209 0
 474              		.syntax divided
 475              	@ 209 "Drivers/CMSIS/Include/cmsis_gcc.h" 1
 476 0002 EFF30583 		MRS r3, ipsr
 477              	@ 0 "" 2
 478              		.thumb
 479              		.syntax unified
 480              	.LBE231:
 481              	.LBE230:
 247:Middlewares/Third_Party/FreeRTOS/Source/CMSIS_RTOS_V2/cmsis_os2.c ****     lock = (int32_t)osErrorISR;
 482              		.loc 1 247 0
 483 0006 002B     		cmp	r3, #0
 484 0008 19D1     		bne	.L51
 485              	.LBB232:
 486              	.LBB233:
 487              		.loc 2 386 0
 488              		.syntax divided
 489              	@ 386 "Drivers/CMSIS/Include/cmsis_gcc.h" 1
 490 000a EFF31083 		MRS r3, primask
 491              	@ 0 "" 2
 492              		.thumb
 493              		.syntax unified
 494              	.LBE233:
 495              	.LBE232:
 247:Middlewares/Third_Party/FreeRTOS/Source/CMSIS_RTOS_V2/cmsis_os2.c ****     lock = (int32_t)osErrorISR;
 496              		.loc 1 247 0
 497 000e 002B     		cmp	r3, #0
 498 0010 03D0     		beq	.L48
 247:Middlewares/Third_Party/FreeRTOS/Source/CMSIS_RTOS_V2/cmsis_os2.c ****     lock = (int32_t)osErrorISR;
 499              		.loc 1 247 0 is_stmt 0 discriminator 2
ARM GAS  /tmp/ccJ2K96T.s 			page 32


 500 0012 124B     		ldr	r3, .L57
 501 0014 1B68     		ldr	r3, [r3]
 502 0016 022B     		cmp	r3, #2
 503 0018 14D0     		beq	.L52
 504              	.L48:
 251:Middlewares/Third_Party/FreeRTOS/Source/CMSIS_RTOS_V2/cmsis_os2.c ****       case taskSCHEDULER_SUSPENDED:
 505              		.loc 1 251 0 is_stmt 1
 506 001a FFF7FEFF 		bl	xTaskGetSchedulerState
 507              	.LVL23:
 508 001e 0028     		cmp	r0, #0
 509 0020 03D0     		beq	.L49
 510 0022 0228     		cmp	r0, #2
 511 0024 11D1     		bne	.L56
 263:Middlewares/Third_Party/FreeRTOS/Source/CMSIS_RTOS_V2/cmsis_os2.c ****         break;
 512              		.loc 1 263 0
 513 0026 0020     		movs	r0, #0
 514              	.L46:
 274:Middlewares/Third_Party/FreeRTOS/Source/CMSIS_RTOS_V2/cmsis_os2.c **** 
 515              		.loc 1 274 0
 516              		@ sp needed
 517 0028 10BD     		pop	{r4, pc}
 518              	.L49:
 519              	.LVL24:
 255:Middlewares/Third_Party/FreeRTOS/Source/CMSIS_RTOS_V2/cmsis_os2.c ****           if (xTaskGetSchedulerState() == taskSCHEDULER_SUSPENDED) {
 520              		.loc 1 255 0
 521 002a FFF7FEFF 		bl	xTaskResumeAll
 522              	.LVL25:
 523 002e 0128     		cmp	r0, #1
 524 0030 0ED0     		beq	.L54
 256:Middlewares/Third_Party/FreeRTOS/Source/CMSIS_RTOS_V2/cmsis_os2.c ****             lock = (int32_t)osError;
 525              		.loc 1 256 0
 526 0032 FFF7FEFF 		bl	xTaskGetSchedulerState
 527              	.LVL26:
 528 0036 0028     		cmp	r0, #0
 529 0038 0CD0     		beq	.L55
 253:Middlewares/Third_Party/FreeRTOS/Source/CMSIS_RTOS_V2/cmsis_os2.c **** 
 530              		.loc 1 253 0
 531 003a 0120     		movs	r0, #1
 532 003c F4E7     		b	.L46
 533              	.LVL27:
 534              	.L51:
 248:Middlewares/Third_Party/FreeRTOS/Source/CMSIS_RTOS_V2/cmsis_os2.c ****   }
 535              		.loc 1 248 0
 536 003e 0620     		movs	r0, #6
 537 0040 4042     		rsbs	r0, r0, #0
 538 0042 F1E7     		b	.L46
 539              	.L52:
 540 0044 0620     		movs	r0, #6
 541 0046 4042     		rsbs	r0, r0, #0
 542 0048 EEE7     		b	.L46
 543              	.L56:
 268:Middlewares/Third_Party/FreeRTOS/Source/CMSIS_RTOS_V2/cmsis_os2.c ****         break;
 544              		.loc 1 268 0
 545 004a 0120     		movs	r0, #1
 546 004c 4042     		rsbs	r0, r0, #0
 547 004e EBE7     		b	.L46
 548              	.LVL28:
ARM GAS  /tmp/ccJ2K96T.s 			page 33


 549              	.L54:
 253:Middlewares/Third_Party/FreeRTOS/Source/CMSIS_RTOS_V2/cmsis_os2.c **** 
 550              		.loc 1 253 0
 551 0050 0120     		movs	r0, #1
 552 0052 E9E7     		b	.L46
 553              	.L55:
 257:Middlewares/Third_Party/FreeRTOS/Source/CMSIS_RTOS_V2/cmsis_os2.c ****           }
 554              		.loc 1 257 0
 555 0054 0120     		movs	r0, #1
 556 0056 4042     		rsbs	r0, r0, #0
 557              	.LVL29:
 273:Middlewares/Third_Party/FreeRTOS/Source/CMSIS_RTOS_V2/cmsis_os2.c **** }
 558              		.loc 1 273 0
 559 0058 E6E7     		b	.L46
 560              	.L58:
 561 005a C046     		.align	2
 562              	.L57:
 563 005c 00000000 		.word	.LANCHOR0
 564              		.cfi_endproc
 565              	.LFE30:
 567              		.section	.text.osKernelRestoreLock,"ax",%progbits
 568              		.align	1
 569              		.global	osKernelRestoreLock
 570              		.syntax unified
 571              		.code	16
 572              		.thumb_func
 573              		.fpu softvfp
 575              	osKernelRestoreLock:
 576              	.LFB31:
 276:Middlewares/Third_Party/FreeRTOS/Source/CMSIS_RTOS_V2/cmsis_os2.c **** 
 577              		.loc 1 276 0
 578              		.cfi_startproc
 579              		@ args = 0, pretend = 0, frame = 0
 580              		@ frame_needed = 0, uses_anonymous_args = 0
 581              	.LVL30:
 582 0000 10B5     		push	{r4, lr}
 583              	.LCFI6:
 584              		.cfi_def_cfa_offset 8
 585              		.cfi_offset 4, -8
 586              		.cfi_offset 14, -4
 587 0002 0400     		movs	r4, r0
 588              	.LBB234:
 589              	.LBB235:
 209:Drivers/CMSIS/Include/cmsis_gcc.h ****   return(result);
 590              		.loc 2 209 0
 591              		.syntax divided
 592              	@ 209 "Drivers/CMSIS/Include/cmsis_gcc.h" 1
 593 0004 EFF30583 		MRS r3, ipsr
 594              	@ 0 "" 2
 595              		.thumb
 596              		.syntax unified
 597              	.LBE235:
 598              	.LBE234:
 278:Middlewares/Third_Party/FreeRTOS/Source/CMSIS_RTOS_V2/cmsis_os2.c ****     lock = (int32_t)osErrorISR;
 599              		.loc 1 278 0
 600 0008 002B     		cmp	r3, #0
 601 000a 1ED1     		bne	.L64
ARM GAS  /tmp/ccJ2K96T.s 			page 34


 602              	.LBB236:
 603              	.LBB237:
 604              		.loc 2 386 0
 605              		.syntax divided
 606              	@ 386 "Drivers/CMSIS/Include/cmsis_gcc.h" 1
 607 000c EFF31083 		MRS r3, primask
 608              	@ 0 "" 2
 609              		.thumb
 610              		.syntax unified
 611              	.LBE237:
 612              	.LBE236:
 278:Middlewares/Third_Party/FreeRTOS/Source/CMSIS_RTOS_V2/cmsis_os2.c ****     lock = (int32_t)osErrorISR;
 613              		.loc 1 278 0
 614 0010 002B     		cmp	r3, #0
 615 0012 03D0     		beq	.L61
 278:Middlewares/Third_Party/FreeRTOS/Source/CMSIS_RTOS_V2/cmsis_os2.c ****     lock = (int32_t)osErrorISR;
 616              		.loc 1 278 0 is_stmt 0 discriminator 2
 617 0014 144B     		ldr	r3, .L72
 618 0016 1B68     		ldr	r3, [r3]
 619 0018 022B     		cmp	r3, #2
 620 001a 19D0     		beq	.L65
 621              	.L61:
 282:Middlewares/Third_Party/FreeRTOS/Source/CMSIS_RTOS_V2/cmsis_os2.c ****       case taskSCHEDULER_SUSPENDED:
 622              		.loc 1 282 0 is_stmt 1
 623 001c FFF7FEFF 		bl	xTaskGetSchedulerState
 624              	.LVL31:
 625 0020 0028     		cmp	r0, #0
 626 0022 01D0     		beq	.L62
 627 0024 0228     		cmp	r0, #2
 628 0026 16D1     		bne	.L69
 629              	.L62:
 285:Middlewares/Third_Party/FreeRTOS/Source/CMSIS_RTOS_V2/cmsis_os2.c ****           vTaskSuspendAll();
 630              		.loc 1 285 0
 631 0028 012C     		cmp	r4, #1
 632 002a 0BD0     		beq	.L70
 289:Middlewares/Third_Party/FreeRTOS/Source/CMSIS_RTOS_V2/cmsis_os2.c ****             lock = (int32_t)osError;
 633              		.loc 1 289 0
 634 002c 002C     		cmp	r4, #0
 635 002e 15D1     		bne	.L67
 293:Middlewares/Third_Party/FreeRTOS/Source/CMSIS_RTOS_V2/cmsis_os2.c ****               if (xTaskGetSchedulerState() != taskSCHEDULER_RUNNING) {
 636              		.loc 1 293 0
 637 0030 FFF7FEFF 		bl	xTaskResumeAll
 638              	.LVL32:
 639 0034 0128     		cmp	r0, #1
 640 0036 03D0     		beq	.L60
 294:Middlewares/Third_Party/FreeRTOS/Source/CMSIS_RTOS_V2/cmsis_os2.c ****                 lock = (int32_t)osError;
 641              		.loc 1 294 0
 642 0038 FFF7FEFF 		bl	xTaskGetSchedulerState
 643              	.LVL33:
 644 003c 0228     		cmp	r0, #2
 645 003e 10D1     		bne	.L71
 646              	.LVL34:
 647              	.L60:
 310:Middlewares/Third_Party/FreeRTOS/Source/CMSIS_RTOS_V2/cmsis_os2.c **** 
 648              		.loc 1 310 0
 649 0040 2000     		movs	r0, r4
 650              		@ sp needed
ARM GAS  /tmp/ccJ2K96T.s 			page 35


 651              	.LVL35:
 652 0042 10BD     		pop	{r4, pc}
 653              	.LVL36:
 654              	.L70:
 286:Middlewares/Third_Party/FreeRTOS/Source/CMSIS_RTOS_V2/cmsis_os2.c ****         }
 655              		.loc 1 286 0
 656 0044 FFF7FEFF 		bl	vTaskSuspendAll
 657              	.LVL37:
 658 0048 FAE7     		b	.L60
 659              	.LVL38:
 660              	.L64:
 279:Middlewares/Third_Party/FreeRTOS/Source/CMSIS_RTOS_V2/cmsis_os2.c ****   }
 661              		.loc 1 279 0
 662 004a 0624     		movs	r4, #6
 663 004c 6442     		rsbs	r4, r4, #0
 664 004e F7E7     		b	.L60
 665              	.L65:
 666 0050 0624     		movs	r4, #6
 667 0052 6442     		rsbs	r4, r4, #0
 668 0054 F4E7     		b	.L60
 669              	.LVL39:
 670              	.L69:
 304:Middlewares/Third_Party/FreeRTOS/Source/CMSIS_RTOS_V2/cmsis_os2.c ****         break;
 671              		.loc 1 304 0
 672 0056 0124     		movs	r4, #1
 673              	.LVL40:
 674 0058 6442     		rsbs	r4, r4, #0
 675 005a F1E7     		b	.L60
 676              	.LVL41:
 677              	.L67:
 290:Middlewares/Third_Party/FreeRTOS/Source/CMSIS_RTOS_V2/cmsis_os2.c ****           }
 678              		.loc 1 290 0
 679 005c 0124     		movs	r4, #1
 680              	.LVL42:
 681 005e 6442     		rsbs	r4, r4, #0
 682 0060 EEE7     		b	.L60
 683              	.LVL43:
 684              	.L71:
 295:Middlewares/Third_Party/FreeRTOS/Source/CMSIS_RTOS_V2/cmsis_os2.c ****               }
 685              		.loc 1 295 0
 686 0062 0124     		movs	r4, #1
 687              	.LVL44:
 688 0064 6442     		rsbs	r4, r4, #0
 689 0066 EBE7     		b	.L60
 690              	.L73:
 691              		.align	2
 692              	.L72:
 693 0068 00000000 		.word	.LANCHOR0
 694              		.cfi_endproc
 695              	.LFE31:
 697              		.section	.text.osKernelGetTickCount,"ax",%progbits
 698              		.align	1
 699              		.global	osKernelGetTickCount
 700              		.syntax unified
 701              		.code	16
 702              		.thumb_func
 703              		.fpu softvfp
ARM GAS  /tmp/ccJ2K96T.s 			page 36


 705              	osKernelGetTickCount:
 706              	.LFB32:
 312:Middlewares/Third_Party/FreeRTOS/Source/CMSIS_RTOS_V2/cmsis_os2.c ****   TickType_t ticks;
 707              		.loc 1 312 0
 708              		.cfi_startproc
 709              		@ args = 0, pretend = 0, frame = 0
 710              		@ frame_needed = 0, uses_anonymous_args = 0
 711 0000 10B5     		push	{r4, lr}
 712              	.LCFI7:
 713              		.cfi_def_cfa_offset 8
 714              		.cfi_offset 4, -8
 715              		.cfi_offset 14, -4
 716              	.LBB238:
 717              	.LBB239:
 209:Drivers/CMSIS/Include/cmsis_gcc.h ****   return(result);
 718              		.loc 2 209 0
 719              		.syntax divided
 720              	@ 209 "Drivers/CMSIS/Include/cmsis_gcc.h" 1
 721 0002 EFF30583 		MRS r3, ipsr
 722              	@ 0 "" 2
 723              		.thumb
 724              		.syntax unified
 725              	.LBE239:
 726              	.LBE238:
 315:Middlewares/Third_Party/FreeRTOS/Source/CMSIS_RTOS_V2/cmsis_os2.c ****     ticks = xTaskGetTickCountFromISR();
 727              		.loc 1 315 0
 728 0006 002B     		cmp	r3, #0
 729 0008 0AD1     		bne	.L75
 730              	.LBB240:
 731              	.LBB241:
 732              		.loc 2 386 0
 733              		.syntax divided
 734              	@ 386 "Drivers/CMSIS/Include/cmsis_gcc.h" 1
 735 000a EFF31083 		MRS r3, primask
 736              	@ 0 "" 2
 737              		.thumb
 738              		.syntax unified
 739              	.LBE241:
 740              	.LBE240:
 315:Middlewares/Third_Party/FreeRTOS/Source/CMSIS_RTOS_V2/cmsis_os2.c ****     ticks = xTaskGetTickCountFromISR();
 741              		.loc 1 315 0
 742 000e 002B     		cmp	r3, #0
 743 0010 03D0     		beq	.L76
 315:Middlewares/Third_Party/FreeRTOS/Source/CMSIS_RTOS_V2/cmsis_os2.c ****     ticks = xTaskGetTickCountFromISR();
 744              		.loc 1 315 0 is_stmt 0 discriminator 2
 745 0012 054B     		ldr	r3, .L78
 746 0014 1B68     		ldr	r3, [r3]
 747 0016 022B     		cmp	r3, #2
 748 0018 02D0     		beq	.L75
 749              	.L76:
 318:Middlewares/Third_Party/FreeRTOS/Source/CMSIS_RTOS_V2/cmsis_os2.c ****   }
 750              		.loc 1 318 0 is_stmt 1
 751 001a FFF7FEFF 		bl	xTaskGetTickCount
 752              	.LVL45:
 753              	.L74:
 322:Middlewares/Third_Party/FreeRTOS/Source/CMSIS_RTOS_V2/cmsis_os2.c **** 
 754              		.loc 1 322 0
ARM GAS  /tmp/ccJ2K96T.s 			page 37


 755              		@ sp needed
 756 001e 10BD     		pop	{r4, pc}
 757              	.LVL46:
 758              	.L75:
 316:Middlewares/Third_Party/FreeRTOS/Source/CMSIS_RTOS_V2/cmsis_os2.c ****   } else {
 759              		.loc 1 316 0
 760 0020 FFF7FEFF 		bl	xTaskGetTickCountFromISR
 761              	.LVL47:
 762 0024 FBE7     		b	.L74
 763              	.L79:
 764 0026 C046     		.align	2
 765              	.L78:
 766 0028 00000000 		.word	.LANCHOR0
 767              		.cfi_endproc
 768              	.LFE32:
 770              		.section	.text.osKernelGetTickFreq,"ax",%progbits
 771              		.align	1
 772              		.global	osKernelGetTickFreq
 773              		.syntax unified
 774              		.code	16
 775              		.thumb_func
 776              		.fpu softvfp
 778              	osKernelGetTickFreq:
 779              	.LFB33:
 324:Middlewares/Third_Party/FreeRTOS/Source/CMSIS_RTOS_V2/cmsis_os2.c ****   return (configTICK_RATE_HZ);
 780              		.loc 1 324 0
 781              		.cfi_startproc
 782              		@ args = 0, pretend = 0, frame = 0
 783              		@ frame_needed = 0, uses_anonymous_args = 0
 784              		@ link register save eliminated.
 325:Middlewares/Third_Party/FreeRTOS/Source/CMSIS_RTOS_V2/cmsis_os2.c **** }
 785              		.loc 1 325 0
 786 0000 FA20     		movs	r0, #250
 326:Middlewares/Third_Party/FreeRTOS/Source/CMSIS_RTOS_V2/cmsis_os2.c **** 
 787              		.loc 1 326 0
 788 0002 8000     		lsls	r0, r0, #2
 789              		@ sp needed
 790 0004 7047     		bx	lr
 791              		.cfi_endproc
 792              	.LFE33:
 794              		.global	__aeabi_uidiv
 795              		.section	.text.osKernelGetSysTimerCount,"ax",%progbits
 796              		.align	1
 797              		.global	osKernelGetSysTimerCount
 798              		.syntax unified
 799              		.code	16
 800              		.thumb_func
 801              		.fpu softvfp
 803              	osKernelGetSysTimerCount:
 804              	.LFB34:
 328:Middlewares/Third_Party/FreeRTOS/Source/CMSIS_RTOS_V2/cmsis_os2.c ****   TickType_t ticks;
 805              		.loc 1 328 0
 806              		.cfi_startproc
 807              		@ args = 0, pretend = 0, frame = 0
 808              		@ frame_needed = 0, uses_anonymous_args = 0
 809 0000 10B5     		push	{r4, lr}
 810              	.LCFI8:
ARM GAS  /tmp/ccJ2K96T.s 			page 38


 811              		.cfi_def_cfa_offset 8
 812              		.cfi_offset 4, -8
 813              		.cfi_offset 14, -4
 332:Middlewares/Third_Party/FreeRTOS/Source/CMSIS_RTOS_V2/cmsis_os2.c **** 
 814              		.loc 1 332 0
 815              		.syntax divided
 816              	@ 332 "Middlewares/Third_Party/FreeRTOS/Source/CMSIS_RTOS_V2/cmsis_os2.c" 1
 817 0002 72B6     		 cpsid i 
 818              	@ 0 "" 2
 334:Middlewares/Third_Party/FreeRTOS/Source/CMSIS_RTOS_V2/cmsis_os2.c **** 
 819              		.loc 1 334 0
 820              		.thumb
 821              		.syntax unified
 822 0004 FFF7FEFF 		bl	xTaskGetTickCount
 823              	.LVL48:
 824 0008 0400     		movs	r4, r0
 825              	.LVL49:
 336:Middlewares/Third_Party/FreeRTOS/Source/CMSIS_RTOS_V2/cmsis_os2.c ****   portENABLE_INTERRUPTS();
 826              		.loc 1 336 0
 827 000a 044B     		ldr	r3, .L82
 828 000c 1868     		ldr	r0, [r3]
 829              	.LVL50:
 830 000e FA21     		movs	r1, #250
 831 0010 8900     		lsls	r1, r1, #2
 832 0012 FFF7FEFF 		bl	__aeabi_uidiv
 833              	.LVL51:
 834 0016 6043     		muls	r0, r4
 835              	.LVL52:
 337:Middlewares/Third_Party/FreeRTOS/Source/CMSIS_RTOS_V2/cmsis_os2.c **** 
 836              		.loc 1 337 0
 837              		.syntax divided
 838              	@ 337 "Middlewares/Third_Party/FreeRTOS/Source/CMSIS_RTOS_V2/cmsis_os2.c" 1
 839 0018 62B6     		 cpsie i 
 840              	@ 0 "" 2
 340:Middlewares/Third_Party/FreeRTOS/Source/CMSIS_RTOS_V2/cmsis_os2.c **** 
 841              		.loc 1 340 0
 842              		.thumb
 843              		.syntax unified
 844              		@ sp needed
 845              	.LVL53:
 846 001a 10BD     		pop	{r4, pc}
 847              	.L83:
 848              		.align	2
 849              	.L82:
 850 001c 00000000 		.word	SystemCoreClock
 851              		.cfi_endproc
 852              	.LFE34:
 854              		.section	.text.osKernelGetSysTimerFreq,"ax",%progbits
 855              		.align	1
 856              		.global	osKernelGetSysTimerFreq
 857              		.syntax unified
 858              		.code	16
 859              		.thumb_func
 860              		.fpu softvfp
 862              	osKernelGetSysTimerFreq:
 863              	.LFB35:
 342:Middlewares/Third_Party/FreeRTOS/Source/CMSIS_RTOS_V2/cmsis_os2.c ****   return (configCPU_CLOCK_HZ);
ARM GAS  /tmp/ccJ2K96T.s 			page 39


 864              		.loc 1 342 0
 865              		.cfi_startproc
 866              		@ args = 0, pretend = 0, frame = 0
 867              		@ frame_needed = 0, uses_anonymous_args = 0
 868              		@ link register save eliminated.
 343:Middlewares/Third_Party/FreeRTOS/Source/CMSIS_RTOS_V2/cmsis_os2.c **** }
 869              		.loc 1 343 0
 870 0000 014B     		ldr	r3, .L85
 871 0002 1868     		ldr	r0, [r3]
 344:Middlewares/Third_Party/FreeRTOS/Source/CMSIS_RTOS_V2/cmsis_os2.c **** 
 872              		.loc 1 344 0
 873              		@ sp needed
 874 0004 7047     		bx	lr
 875              	.L86:
 876 0006 C046     		.align	2
 877              	.L85:
 878 0008 00000000 		.word	SystemCoreClock
 879              		.cfi_endproc
 880              	.LFE35:
 882              		.section	.text.osThreadNew,"ax",%progbits
 883              		.align	1
 884              		.global	osThreadNew
 885              		.syntax unified
 886              		.code	16
 887              		.thumb_func
 888              		.fpu softvfp
 890              	osThreadNew:
 891              	.LFB36:
 348:Middlewares/Third_Party/FreeRTOS/Source/CMSIS_RTOS_V2/cmsis_os2.c ****   char empty;
 892              		.loc 1 348 0
 893              		.cfi_startproc
 894              		@ args = 0, pretend = 0, frame = 8
 895              		@ frame_needed = 0, uses_anonymous_args = 0
 896              	.LVL54:
 897 0000 F0B5     		push	{r4, r5, r6, r7, lr}
 898              	.LCFI9:
 899              		.cfi_def_cfa_offset 20
 900              		.cfi_offset 4, -20
 901              		.cfi_offset 5, -16
 902              		.cfi_offset 6, -12
 903              		.cfi_offset 7, -8
 904              		.cfi_offset 14, -4
 905 0002 87B0     		sub	sp, sp, #28
 906              	.LCFI10:
 907              		.cfi_def_cfa_offset 48
 356:Middlewares/Third_Party/FreeRTOS/Source/CMSIS_RTOS_V2/cmsis_os2.c **** 
 908              		.loc 1 356 0
 909 0004 0024     		movs	r4, #0
 910 0006 0494     		str	r4, [sp, #16]
 911              	.LBB242:
 912              	.LBB243:
 209:Drivers/CMSIS/Include/cmsis_gcc.h ****   return(result);
 913              		.loc 2 209 0
 914              		.syntax divided
 915              	@ 209 "Drivers/CMSIS/Include/cmsis_gcc.h" 1
 916 0008 EFF30584 		MRS r4, ipsr
 917              	@ 0 "" 2
ARM GAS  /tmp/ccJ2K96T.s 			page 40


 918              		.thumb
 919              		.syntax unified
 920              	.LBE243:
 921              	.LBE242:
 358:Middlewares/Third_Party/FreeRTOS/Source/CMSIS_RTOS_V2/cmsis_os2.c ****     stack = configMINIMAL_STACK_SIZE;
 922              		.loc 1 358 0
 923 000c 002C     		cmp	r4, #0
 924 000e 34D1     		bne	.L88
 925              	.LBB244:
 926              	.LBB245:
 927              		.loc 2 386 0
 928              		.syntax divided
 929              	@ 386 "Drivers/CMSIS/Include/cmsis_gcc.h" 1
 930 0010 EFF31083 		MRS r3, primask
 931              	@ 0 "" 2
 932              		.thumb
 933              		.syntax unified
 934              	.LBE245:
 935              	.LBE244:
 358:Middlewares/Third_Party/FreeRTOS/Source/CMSIS_RTOS_V2/cmsis_os2.c ****     stack = configMINIMAL_STACK_SIZE;
 936              		.loc 1 358 0
 937 0014 002B     		cmp	r3, #0
 938 0016 03D0     		beq	.L89
 358:Middlewares/Third_Party/FreeRTOS/Source/CMSIS_RTOS_V2/cmsis_os2.c ****     stack = configMINIMAL_STACK_SIZE;
 939              		.loc 1 358 0 is_stmt 0 discriminator 3
 940 0018 364B     		ldr	r3, .L110
 941 001a 1B68     		ldr	r3, [r3]
 942 001c 022B     		cmp	r3, #2
 943 001e 2CD0     		beq	.L88
 944              	.L89:
 358:Middlewares/Third_Party/FreeRTOS/Source/CMSIS_RTOS_V2/cmsis_os2.c ****     stack = configMINIMAL_STACK_SIZE;
 945              		.loc 1 358 0 discriminator 4
 946 0020 0028     		cmp	r0, #0
 947 0022 2AD0     		beq	.L88
 948              	.LVL55:
 362:Middlewares/Third_Party/FreeRTOS/Source/CMSIS_RTOS_V2/cmsis_os2.c ****     name  = &empty;
 949              		.loc 1 362 0 is_stmt 1
 950 0024 1723     		movs	r3, #23
 951 0026 6B44     		add	r3, r3, sp
 952 0028 0024     		movs	r4, #0
 953 002a 1C70     		strb	r4, [r3]
 954              	.LVL56:
 366:Middlewares/Third_Party/FreeRTOS/Source/CMSIS_RTOS_V2/cmsis_os2.c ****       if (attr->name != NULL) {
 955              		.loc 1 366 0
 956 002c 002A     		cmp	r2, #0
 957 002e 35D0     		beq	.L97
 367:Middlewares/Third_Party/FreeRTOS/Source/CMSIS_RTOS_V2/cmsis_os2.c ****         name = attr->name;
 958              		.loc 1 367 0
 959 0030 1568     		ldr	r5, [r2]
 960 0032 002D     		cmp	r5, #0
 961 0034 24D0     		beq	.L106
 962              	.L91:
 963              	.LVL57:
 370:Middlewares/Third_Party/FreeRTOS/Source/CMSIS_RTOS_V2/cmsis_os2.c ****         prio = (UBaseType_t)attr->priority;
 964              		.loc 1 370 0
 965 0036 9369     		ldr	r3, [r2, #24]
 966 0038 002B     		cmp	r3, #0
ARM GAS  /tmp/ccJ2K96T.s 			page 41


 967 003a 00D1     		bne	.L92
 360:Middlewares/Third_Party/FreeRTOS/Source/CMSIS_RTOS_V2/cmsis_os2.c **** 
 968              		.loc 1 360 0
 969 003c 1833     		adds	r3, r3, #24
 970              	.L92:
 971              	.LVL58:
 374:Middlewares/Third_Party/FreeRTOS/Source/CMSIS_RTOS_V2/cmsis_os2.c ****         return (NULL);
 972              		.loc 1 374 0
 973 003e 5C1E     		subs	r4, r3, #1
 974 0040 372C     		cmp	r4, #55
 975 0042 53D8     		bhi	.L99
 374:Middlewares/Third_Party/FreeRTOS/Source/CMSIS_RTOS_V2/cmsis_os2.c ****         return (NULL);
 976              		.loc 1 374 0 is_stmt 0 discriminator 1
 977 0044 5468     		ldr	r4, [r2, #4]
 978 0046 E407     		lsls	r4, r4, #31
 979 0048 52D4     		bmi	.L100
 378:Middlewares/Third_Party/FreeRTOS/Source/CMSIS_RTOS_V2/cmsis_os2.c ****         /* In FreeRTOS stack is not in bytes, but in sizeof(StackType_t) which is 4 on ARM ports.  
 980              		.loc 1 378 0 is_stmt 1
 981 004a 5769     		ldr	r7, [r2, #20]
 982 004c 002F     		cmp	r7, #0
 983 004e 19D0     		beq	.L101
 381:Middlewares/Third_Party/FreeRTOS/Source/CMSIS_RTOS_V2/cmsis_os2.c ****       }
 984              		.loc 1 381 0
 985 0050 BC08     		lsrs	r4, r7, #2
 986 0052 A446     		mov	ip, r4
 987              	.LVL59:
 988              	.L94:
 384:Middlewares/Third_Party/FreeRTOS/Source/CMSIS_RTOS_V2/cmsis_os2.c ****           (attr->stack_mem != NULL) && (attr->stack_size >  0U)) {
 989              		.loc 1 384 0
 990 0054 9468     		ldr	r4, [r2, #8]
 991 0056 002C     		cmp	r4, #0
 992 0058 07D0     		beq	.L95
 384:Middlewares/Third_Party/FreeRTOS/Source/CMSIS_RTOS_V2/cmsis_os2.c ****           (attr->stack_mem != NULL) && (attr->stack_size >  0U)) {
 993              		.loc 1 384 0 is_stmt 0 discriminator 1
 994 005a D668     		ldr	r6, [r2, #12]
 995 005c 5B2E     		cmp	r6, #91
 996 005e 04D9     		bls	.L95
 384:Middlewares/Third_Party/FreeRTOS/Source/CMSIS_RTOS_V2/cmsis_os2.c ****           (attr->stack_mem != NULL) && (attr->stack_size >  0U)) {
 997              		.loc 1 384 0 discriminator 2
 998 0060 1669     		ldr	r6, [r2, #16]
 999 0062 002E     		cmp	r6, #0
 1000 0064 01D0     		beq	.L95
 385:Middlewares/Third_Party/FreeRTOS/Source/CMSIS_RTOS_V2/cmsis_os2.c ****         mem = 1;
 1001              		.loc 1 385 0 is_stmt 1
 1002 0066 002F     		cmp	r7, #0
 1003 0068 1FD1     		bne	.L102
 1004              	.L95:
 389:Middlewares/Third_Party/FreeRTOS/Source/CMSIS_RTOS_V2/cmsis_os2.c ****           mem = 0;
 1005              		.loc 1 389 0
 1006 006a 002C     		cmp	r4, #0
 1007 006c 0DD0     		beq	.L107
 364:Middlewares/Third_Party/FreeRTOS/Source/CMSIS_RTOS_V2/cmsis_os2.c **** 
 1008              		.loc 1 364 0
 1009 006e 0124     		movs	r4, #1
 1010 0070 6442     		rsbs	r4, r4, #0
 1011              	.LVL60:
 1012              	.L90:
ARM GAS  /tmp/ccJ2K96T.s 			page 42


 398:Middlewares/Third_Party/FreeRTOS/Source/CMSIS_RTOS_V2/cmsis_os2.c ****       hTask = xTaskCreateStatic ((TaskFunction_t)func, name, stack, argument, prio, (StackType_t  *
 1013              		.loc 1 398 0
 1014 0072 012C     		cmp	r4, #1
 1015 0074 20D0     		beq	.L108
 403:Middlewares/Third_Party/FreeRTOS/Source/CMSIS_RTOS_V2/cmsis_os2.c ****         if (xTaskCreate ((TaskFunction_t)func, name, (uint16_t)stack, argument, prio, &hTask) != pd
 1016              		.loc 1 403 0
 1017 0076 002C     		cmp	r4, #0
 1018 0078 2AD0     		beq	.L109
 1019              	.LVL61:
 1020              	.L88:
 411:Middlewares/Third_Party/FreeRTOS/Source/CMSIS_RTOS_V2/cmsis_os2.c **** }
 1021              		.loc 1 411 0
 1022 007a 0498     		ldr	r0, [sp, #16]
 1023              	.L87:
 412:Middlewares/Third_Party/FreeRTOS/Source/CMSIS_RTOS_V2/cmsis_os2.c **** 
 1024              		.loc 1 412 0
 1025 007c 07B0     		add	sp, sp, #28
 1026              		@ sp needed
 1027 007e F0BD     		pop	{r4, r5, r6, r7, pc}
 1028              	.LVL62:
 1029              	.L106:
 363:Middlewares/Third_Party/FreeRTOS/Source/CMSIS_RTOS_V2/cmsis_os2.c ****     mem   = -1;
 1030              		.loc 1 363 0
 1031 0080 1D00     		movs	r5, r3
 1032 0082 D8E7     		b	.L91
 1033              	.LVL63:
 1034              	.L101:
 359:Middlewares/Third_Party/FreeRTOS/Source/CMSIS_RTOS_V2/cmsis_os2.c ****     prio  = (UBaseType_t)osPriorityNormal;
 1035              		.loc 1 359 0
 1036 0084 8024     		movs	r4, #128
 1037 0086 A446     		mov	ip, r4
 1038 0088 E4E7     		b	.L94
 1039              	.LVL64:
 1040              	.L107:
 389:Middlewares/Third_Party/FreeRTOS/Source/CMSIS_RTOS_V2/cmsis_os2.c ****           mem = 0;
 1041              		.loc 1 389 0 discriminator 1
 1042 008a D468     		ldr	r4, [r2, #12]
 1043 008c 002C     		cmp	r4, #0
 1044 008e 0ED1     		bne	.L104
 389:Middlewares/Third_Party/FreeRTOS/Source/CMSIS_RTOS_V2/cmsis_os2.c ****           mem = 0;
 1045              		.loc 1 389 0 is_stmt 0 discriminator 2
 1046 0090 1469     		ldr	r4, [r2, #16]
 1047 0092 002C     		cmp	r4, #0
 1048 0094 0ED0     		beq	.L105
 364:Middlewares/Third_Party/FreeRTOS/Source/CMSIS_RTOS_V2/cmsis_os2.c **** 
 1049              		.loc 1 364 0 is_stmt 1
 1050 0096 0124     		movs	r4, #1
 1051 0098 6442     		rsbs	r4, r4, #0
 1052 009a EAE7     		b	.L90
 1053              	.LVL65:
 1054              	.L97:
 395:Middlewares/Third_Party/FreeRTOS/Source/CMSIS_RTOS_V2/cmsis_os2.c ****     }
 1055              		.loc 1 395 0
 1056 009c 0024     		movs	r4, #0
 360:Middlewares/Third_Party/FreeRTOS/Source/CMSIS_RTOS_V2/cmsis_os2.c **** 
 1057              		.loc 1 360 0
 1058 009e 1823     		movs	r3, #24
ARM GAS  /tmp/ccJ2K96T.s 			page 43


 359:Middlewares/Third_Party/FreeRTOS/Source/CMSIS_RTOS_V2/cmsis_os2.c ****     prio  = (UBaseType_t)osPriorityNormal;
 1059              		.loc 1 359 0
 1060 00a0 8025     		movs	r5, #128
 1061 00a2 AC46     		mov	ip, r5
 363:Middlewares/Third_Party/FreeRTOS/Source/CMSIS_RTOS_V2/cmsis_os2.c ****     mem   = -1;
 1062              		.loc 1 363 0
 1063 00a4 693D     		subs	r5, r5, #105
 1064 00a6 6D44     		add	r5, r5, sp
 1065 00a8 E3E7     		b	.L90
 1066              	.LVL66:
 1067              	.L102:
 386:Middlewares/Third_Party/FreeRTOS/Source/CMSIS_RTOS_V2/cmsis_os2.c ****       }
 1068              		.loc 1 386 0
 1069 00aa 0124     		movs	r4, #1
 1070 00ac E1E7     		b	.L90
 1071              	.L104:
 364:Middlewares/Third_Party/FreeRTOS/Source/CMSIS_RTOS_V2/cmsis_os2.c **** 
 1072              		.loc 1 364 0
 1073 00ae 0124     		movs	r4, #1
 1074 00b0 6442     		rsbs	r4, r4, #0
 1075 00b2 DEE7     		b	.L90
 1076              	.L105:
 390:Middlewares/Third_Party/FreeRTOS/Source/CMSIS_RTOS_V2/cmsis_os2.c ****         }
 1077              		.loc 1 390 0
 1078 00b4 0024     		movs	r4, #0
 1079 00b6 DCE7     		b	.L90
 1080              	.LVL67:
 1081              	.L108:
 399:Middlewares/Third_Party/FreeRTOS/Source/CMSIS_RTOS_V2/cmsis_os2.c ****                                                                                     (StaticTask_t *
 1082              		.loc 1 399 0
 1083 00b8 1469     		ldr	r4, [r2, #16]
 1084              	.LVL68:
 1085 00ba 0194     		str	r4, [sp, #4]
 400:Middlewares/Third_Party/FreeRTOS/Source/CMSIS_RTOS_V2/cmsis_os2.c ****     }
 1086              		.loc 1 400 0
 1087 00bc 9268     		ldr	r2, [r2, #8]
 1088              	.LVL69:
 1089 00be 0292     		str	r2, [sp, #8]
 399:Middlewares/Third_Party/FreeRTOS/Source/CMSIS_RTOS_V2/cmsis_os2.c ****                                                                                     (StaticTask_t *
 1090              		.loc 1 399 0
 1091 00c0 0093     		str	r3, [sp]
 1092 00c2 0B00     		movs	r3, r1
 1093              	.LVL70:
 1094 00c4 6246     		mov	r2, ip
 1095 00c6 2900     		movs	r1, r5
 1096              	.LVL71:
 1097 00c8 FFF7FEFF 		bl	xTaskCreateStatic
 1098              	.LVL72:
 1099 00cc 0490     		str	r0, [sp, #16]
 1100 00ce D4E7     		b	.L88
 1101              	.LVL73:
 1102              	.L109:
 404:Middlewares/Third_Party/FreeRTOS/Source/CMSIS_RTOS_V2/cmsis_os2.c ****           hTask = NULL;
 1103              		.loc 1 404 0
 1104 00d0 6246     		mov	r2, ip
 1105              	.LVL74:
 1106 00d2 92B2     		uxth	r2, r2
ARM GAS  /tmp/ccJ2K96T.s 			page 44


 1107 00d4 04AC     		add	r4, sp, #16
 1108              	.LVL75:
 1109 00d6 0194     		str	r4, [sp, #4]
 1110 00d8 0093     		str	r3, [sp]
 1111 00da 0B00     		movs	r3, r1
 1112              	.LVL76:
 1113 00dc 2900     		movs	r1, r5
 1114              	.LVL77:
 1115 00de FFF7FEFF 		bl	xTaskCreate
 1116              	.LVL78:
 1117 00e2 0128     		cmp	r0, #1
 1118 00e4 C9D0     		beq	.L88
 405:Middlewares/Third_Party/FreeRTOS/Source/CMSIS_RTOS_V2/cmsis_os2.c ****         }
 1119              		.loc 1 405 0
 1120 00e6 0023     		movs	r3, #0
 1121 00e8 0493     		str	r3, [sp, #16]
 1122 00ea C6E7     		b	.L88
 1123              	.LVL79:
 1124              	.L99:
 375:Middlewares/Third_Party/FreeRTOS/Source/CMSIS_RTOS_V2/cmsis_os2.c ****       }
 1125              		.loc 1 375 0
 1126 00ec 0020     		movs	r0, #0
 1127              	.LVL80:
 1128 00ee C5E7     		b	.L87
 1129              	.LVL81:
 1130              	.L100:
 1131 00f0 0020     		movs	r0, #0
 1132              	.LVL82:
 1133 00f2 C3E7     		b	.L87
 1134              	.L111:
 1135              		.align	2
 1136              	.L110:
 1137 00f4 00000000 		.word	.LANCHOR0
 1138              		.cfi_endproc
 1139              	.LFE36:
 1141              		.section	.text.osThreadGetName,"ax",%progbits
 1142              		.align	1
 1143              		.global	osThreadGetName
 1144              		.syntax unified
 1145              		.code	16
 1146              		.thumb_func
 1147              		.fpu softvfp
 1149              	osThreadGetName:
 1150              	.LFB37:
 414:Middlewares/Third_Party/FreeRTOS/Source/CMSIS_RTOS_V2/cmsis_os2.c ****   TaskHandle_t hTask = (TaskHandle_t)thread_id;
 1151              		.loc 1 414 0
 1152              		.cfi_startproc
 1153              		@ args = 0, pretend = 0, frame = 0
 1154              		@ frame_needed = 0, uses_anonymous_args = 0
 1155              	.LVL83:
 1156 0000 10B5     		push	{r4, lr}
 1157              	.LCFI11:
 1158              		.cfi_def_cfa_offset 8
 1159              		.cfi_offset 4, -8
 1160              		.cfi_offset 14, -4
 1161              	.LVL84:
 1162              	.LBB246:
ARM GAS  /tmp/ccJ2K96T.s 			page 45


 1163              	.LBB247:
 209:Drivers/CMSIS/Include/cmsis_gcc.h ****   return(result);
 1164              		.loc 2 209 0
 1165              		.syntax divided
 1166              	@ 209 "Drivers/CMSIS/Include/cmsis_gcc.h" 1
 1167 0002 EFF30583 		MRS r3, ipsr
 1168              	@ 0 "" 2
 1169              		.thumb
 1170              		.syntax unified
 1171              	.LBE247:
 1172              	.LBE246:
 418:Middlewares/Third_Party/FreeRTOS/Source/CMSIS_RTOS_V2/cmsis_os2.c ****     name = NULL;
 1173              		.loc 1 418 0
 1174 0006 002B     		cmp	r3, #0
 1175 0008 0CD1     		bne	.L115
 1176              	.LBB248:
 1177              	.LBB249:
 1178              		.loc 2 386 0
 1179              		.syntax divided
 1180              	@ 386 "Drivers/CMSIS/Include/cmsis_gcc.h" 1
 1181 000a EFF31083 		MRS r3, primask
 1182              	@ 0 "" 2
 1183              		.thumb
 1184              		.syntax unified
 1185              	.LBE249:
 1186              	.LBE248:
 418:Middlewares/Third_Party/FreeRTOS/Source/CMSIS_RTOS_V2/cmsis_os2.c ****     name = NULL;
 1187              		.loc 1 418 0
 1188 000e 002B     		cmp	r3, #0
 1189 0010 03D0     		beq	.L114
 418:Middlewares/Third_Party/FreeRTOS/Source/CMSIS_RTOS_V2/cmsis_os2.c ****     name = NULL;
 1190              		.loc 1 418 0 is_stmt 0 discriminator 2
 1191 0012 074B     		ldr	r3, .L118
 1192 0014 1B68     		ldr	r3, [r3]
 1193 0016 022B     		cmp	r3, #2
 1194 0018 06D0     		beq	.L116
 1195              	.L114:
 418:Middlewares/Third_Party/FreeRTOS/Source/CMSIS_RTOS_V2/cmsis_os2.c ****     name = NULL;
 1196              		.loc 1 418 0 discriminator 4
 1197 001a 0028     		cmp	r0, #0
 1198 001c 06D0     		beq	.L117
 421:Middlewares/Third_Party/FreeRTOS/Source/CMSIS_RTOS_V2/cmsis_os2.c ****   }
 1199              		.loc 1 421 0 is_stmt 1
 1200 001e FFF7FEFF 		bl	pcTaskGetName
 1201              	.LVL85:
 1202              	.L112:
 425:Middlewares/Third_Party/FreeRTOS/Source/CMSIS_RTOS_V2/cmsis_os2.c **** 
 1203              		.loc 1 425 0
 1204              		@ sp needed
 1205 0022 10BD     		pop	{r4, pc}
 1206              	.LVL86:
 1207              	.L115:
 419:Middlewares/Third_Party/FreeRTOS/Source/CMSIS_RTOS_V2/cmsis_os2.c ****   } else {
 1208              		.loc 1 419 0
 1209 0024 0020     		movs	r0, #0
 1210              	.LVL87:
 1211 0026 FCE7     		b	.L112
ARM GAS  /tmp/ccJ2K96T.s 			page 46


 1212              	.LVL88:
 1213              	.L116:
 1214 0028 0020     		movs	r0, #0
 1215              	.LVL89:
 1216 002a FAE7     		b	.L112
 1217              	.LVL90:
 1218              	.L117:
 1219 002c 0020     		movs	r0, #0
 1220              	.LVL91:
 424:Middlewares/Third_Party/FreeRTOS/Source/CMSIS_RTOS_V2/cmsis_os2.c **** }
 1221              		.loc 1 424 0
 1222 002e F8E7     		b	.L112
 1223              	.L119:
 1224              		.align	2
 1225              	.L118:
 1226 0030 00000000 		.word	.LANCHOR0
 1227              		.cfi_endproc
 1228              	.LFE37:
 1230              		.section	.text.osThreadGetId,"ax",%progbits
 1231              		.align	1
 1232              		.global	osThreadGetId
 1233              		.syntax unified
 1234              		.code	16
 1235              		.thumb_func
 1236              		.fpu softvfp
 1238              	osThreadGetId:
 1239              	.LFB38:
 427:Middlewares/Third_Party/FreeRTOS/Source/CMSIS_RTOS_V2/cmsis_os2.c ****   osThreadId_t id;
 1240              		.loc 1 427 0
 1241              		.cfi_startproc
 1242              		@ args = 0, pretend = 0, frame = 0
 1243              		@ frame_needed = 0, uses_anonymous_args = 0
 1244 0000 10B5     		push	{r4, lr}
 1245              	.LCFI12:
 1246              		.cfi_def_cfa_offset 8
 1247              		.cfi_offset 4, -8
 1248              		.cfi_offset 14, -4
 1249              	.LBB250:
 1250              	.LBB251:
 209:Drivers/CMSIS/Include/cmsis_gcc.h ****   return(result);
 1251              		.loc 2 209 0
 1252              		.syntax divided
 1253              	@ 209 "Drivers/CMSIS/Include/cmsis_gcc.h" 1
 1254 0002 EFF30583 		MRS r3, ipsr
 1255              	@ 0 "" 2
 1256              		.thumb
 1257              		.syntax unified
 1258              	.LBE251:
 1259              	.LBE250:
 430:Middlewares/Third_Party/FreeRTOS/Source/CMSIS_RTOS_V2/cmsis_os2.c ****     id = NULL;
 1260              		.loc 1 430 0
 1261 0006 002B     		cmp	r3, #0
 1262 0008 0AD1     		bne	.L123
 1263              	.LBB252:
 1264              	.LBB253:
 1265              		.loc 2 386 0
 1266              		.syntax divided
ARM GAS  /tmp/ccJ2K96T.s 			page 47


 1267              	@ 386 "Drivers/CMSIS/Include/cmsis_gcc.h" 1
 1268 000a EFF31083 		MRS r3, primask
 1269              	@ 0 "" 2
 1270              		.thumb
 1271              		.syntax unified
 1272              	.LBE253:
 1273              	.LBE252:
 430:Middlewares/Third_Party/FreeRTOS/Source/CMSIS_RTOS_V2/cmsis_os2.c ****     id = NULL;
 1274              		.loc 1 430 0
 1275 000e 002B     		cmp	r3, #0
 1276 0010 03D0     		beq	.L122
 430:Middlewares/Third_Party/FreeRTOS/Source/CMSIS_RTOS_V2/cmsis_os2.c ****     id = NULL;
 1277              		.loc 1 430 0 is_stmt 0 discriminator 2
 1278 0012 054B     		ldr	r3, .L125
 1279 0014 1B68     		ldr	r3, [r3]
 1280 0016 022B     		cmp	r3, #2
 1281 0018 04D0     		beq	.L124
 1282              	.L122:
 433:Middlewares/Third_Party/FreeRTOS/Source/CMSIS_RTOS_V2/cmsis_os2.c ****   }
 1283              		.loc 1 433 0 is_stmt 1
 1284 001a FFF7FEFF 		bl	xTaskGetCurrentTaskHandle
 1285              	.LVL92:
 1286              	.L120:
 437:Middlewares/Third_Party/FreeRTOS/Source/CMSIS_RTOS_V2/cmsis_os2.c **** 
 1287              		.loc 1 437 0
 1288              		@ sp needed
 1289 001e 10BD     		pop	{r4, pc}
 1290              	.L123:
 431:Middlewares/Third_Party/FreeRTOS/Source/CMSIS_RTOS_V2/cmsis_os2.c ****   } else {
 1291              		.loc 1 431 0
 1292 0020 0020     		movs	r0, #0
 1293 0022 FCE7     		b	.L120
 1294              	.L124:
 1295 0024 0020     		movs	r0, #0
 1296              	.LVL93:
 436:Middlewares/Third_Party/FreeRTOS/Source/CMSIS_RTOS_V2/cmsis_os2.c **** }
 1297              		.loc 1 436 0
 1298 0026 FAE7     		b	.L120
 1299              	.L126:
 1300              		.align	2
 1301              	.L125:
 1302 0028 00000000 		.word	.LANCHOR0
 1303              		.cfi_endproc
 1304              	.LFE38:
 1306              		.section	.text.osThreadGetState,"ax",%progbits
 1307              		.align	1
 1308              		.global	osThreadGetState
 1309              		.syntax unified
 1310              		.code	16
 1311              		.thumb_func
 1312              		.fpu softvfp
 1314              	osThreadGetState:
 1315              	.LFB39:
 439:Middlewares/Third_Party/FreeRTOS/Source/CMSIS_RTOS_V2/cmsis_os2.c ****   TaskHandle_t hTask = (TaskHandle_t)thread_id;
 1316              		.loc 1 439 0
 1317              		.cfi_startproc
 1318              		@ args = 0, pretend = 0, frame = 0
ARM GAS  /tmp/ccJ2K96T.s 			page 48


 1319              		@ frame_needed = 0, uses_anonymous_args = 0
 1320              	.LVL94:
 1321 0000 10B5     		push	{r4, lr}
 1322              	.LCFI13:
 1323              		.cfi_def_cfa_offset 8
 1324              		.cfi_offset 4, -8
 1325              		.cfi_offset 14, -4
 1326              	.LVL95:
 1327              	.LBB254:
 1328              	.LBB255:
 209:Drivers/CMSIS/Include/cmsis_gcc.h ****   return(result);
 1329              		.loc 2 209 0
 1330              		.syntax divided
 1331              	@ 209 "Drivers/CMSIS/Include/cmsis_gcc.h" 1
 1332 0002 EFF30583 		MRS r3, ipsr
 1333              	@ 0 "" 2
 1334              		.thumb
 1335              		.syntax unified
 1336              	.LBE255:
 1337              	.LBE254:
 443:Middlewares/Third_Party/FreeRTOS/Source/CMSIS_RTOS_V2/cmsis_os2.c ****     state = osThreadError;
 1338              		.loc 1 443 0
 1339 0006 002B     		cmp	r3, #0
 1340 0008 1AD1     		bne	.L135
 1341              	.LBB256:
 1342              	.LBB257:
 1343              		.loc 2 386 0
 1344              		.syntax divided
 1345              	@ 386 "Drivers/CMSIS/Include/cmsis_gcc.h" 1
 1346 000a EFF31083 		MRS r3, primask
 1347              	@ 0 "" 2
 1348              		.thumb
 1349              		.syntax unified
 1350              	.LBE257:
 1351              	.LBE256:
 443:Middlewares/Third_Party/FreeRTOS/Source/CMSIS_RTOS_V2/cmsis_os2.c ****     state = osThreadError;
 1352              		.loc 1 443 0
 1353 000e 002B     		cmp	r3, #0
 1354 0010 03D0     		beq	.L129
 443:Middlewares/Third_Party/FreeRTOS/Source/CMSIS_RTOS_V2/cmsis_os2.c ****     state = osThreadError;
 1355              		.loc 1 443 0 is_stmt 0 discriminator 2
 1356 0012 114B     		ldr	r3, .L139
 1357 0014 1B68     		ldr	r3, [r3]
 1358 0016 022B     		cmp	r3, #2
 1359 0018 15D0     		beq	.L136
 1360              	.L129:
 443:Middlewares/Third_Party/FreeRTOS/Source/CMSIS_RTOS_V2/cmsis_os2.c ****     state = osThreadError;
 1361              		.loc 1 443 0 discriminator 4
 1362 001a 0028     		cmp	r0, #0
 1363 001c 16D0     		beq	.L137
 447:Middlewares/Third_Party/FreeRTOS/Source/CMSIS_RTOS_V2/cmsis_os2.c ****       case eRunning:   state = osThreadRunning;    break;
 1364              		.loc 1 447 0 is_stmt 1
 1365 001e FFF7FEFF 		bl	eTaskGetState
 1366              	.LVL96:
 1367 0022 0428     		cmp	r0, #4
 1368 0024 09D8     		bhi	.L130
 1369 0026 8000     		lsls	r0, r0, #2
ARM GAS  /tmp/ccJ2K96T.s 			page 49


 1370 0028 0C4B     		ldr	r3, .L139+4
 1371 002a 1B58     		ldr	r3, [r3, r0]
 1372 002c 9F46     		mov	pc, r3
 1373              		.section	.rodata.osThreadGetState,"a",%progbits
 1374              		.align	2
 1375              	.L132:
 1376 0000 2E000000 		.word	.L131
 1377 0004 52000000 		.word	.L138
 1378 0008 32000000 		.word	.L133
 1379 000c 32000000 		.word	.L133
 1380 0010 36000000 		.word	.L134
 1381              		.section	.text.osThreadGetState
 1382              	.L131:
 448:Middlewares/Third_Party/FreeRTOS/Source/CMSIS_RTOS_V2/cmsis_os2.c ****       case eReady:     state = osThreadReady;      break;
 1383              		.loc 1 448 0
 1384 002e 0220     		movs	r0, #2
 1385 0030 10E0     		b	.L127
 1386              	.L133:
 1387              	.LVL97:
 451:Middlewares/Third_Party/FreeRTOS/Source/CMSIS_RTOS_V2/cmsis_os2.c ****       case eDeleted:   state = osThreadTerminated; break;
 1388              		.loc 1 451 0
 1389 0032 0320     		movs	r0, #3
 1390 0034 0EE0     		b	.L127
 1391              	.LVL98:
 1392              	.L134:
 452:Middlewares/Third_Party/FreeRTOS/Source/CMSIS_RTOS_V2/cmsis_os2.c ****       case eInvalid:
 1393              		.loc 1 452 0
 1394 0036 0420     		movs	r0, #4
 1395 0038 0CE0     		b	.L127
 1396              	.LVL99:
 1397              	.L130:
 454:Middlewares/Third_Party/FreeRTOS/Source/CMSIS_RTOS_V2/cmsis_os2.c ****     }
 1398              		.loc 1 454 0
 1399 003a 0120     		movs	r0, #1
 1400 003c 4042     		rsbs	r0, r0, #0
 1401 003e 09E0     		b	.L127
 1402              	.LVL100:
 1403              	.L135:
 444:Middlewares/Third_Party/FreeRTOS/Source/CMSIS_RTOS_V2/cmsis_os2.c ****   }
 1404              		.loc 1 444 0
 1405 0040 0120     		movs	r0, #1
 1406              	.LVL101:
 1407 0042 4042     		rsbs	r0, r0, #0
 1408 0044 06E0     		b	.L127
 1409              	.LVL102:
 1410              	.L136:
 1411 0046 0120     		movs	r0, #1
 1412              	.LVL103:
 1413 0048 4042     		rsbs	r0, r0, #0
 1414 004a 03E0     		b	.L127
 1415              	.LVL104:
 1416              	.L137:
 1417 004c 0120     		movs	r0, #1
 1418              	.LVL105:
 1419 004e 4042     		rsbs	r0, r0, #0
 1420 0050 00E0     		b	.L127
 1421              	.L138:
ARM GAS  /tmp/ccJ2K96T.s 			page 50


 449:Middlewares/Third_Party/FreeRTOS/Source/CMSIS_RTOS_V2/cmsis_os2.c ****       case eBlocked:
 1422              		.loc 1 449 0
 1423 0052 0120     		movs	r0, #1
 1424              	.LVL106:
 1425              	.L127:
 459:Middlewares/Third_Party/FreeRTOS/Source/CMSIS_RTOS_V2/cmsis_os2.c **** 
 1426              		.loc 1 459 0
 1427              		@ sp needed
 1428 0054 10BD     		pop	{r4, pc}
 1429              	.L140:
 1430 0056 C046     		.align	2
 1431              	.L139:
 1432 0058 00000000 		.word	.LANCHOR0
 1433 005c 00000000 		.word	.L132
 1434              		.cfi_endproc
 1435              	.LFE39:
 1437              		.section	.text.osThreadGetStackSpace,"ax",%progbits
 1438              		.align	1
 1439              		.global	osThreadGetStackSpace
 1440              		.syntax unified
 1441              		.code	16
 1442              		.thumb_func
 1443              		.fpu softvfp
 1445              	osThreadGetStackSpace:
 1446              	.LFB40:
 461:Middlewares/Third_Party/FreeRTOS/Source/CMSIS_RTOS_V2/cmsis_os2.c ****   TaskHandle_t hTask = (TaskHandle_t)thread_id;
 1447              		.loc 1 461 0
 1448              		.cfi_startproc
 1449              		@ args = 0, pretend = 0, frame = 0
 1450              		@ frame_needed = 0, uses_anonymous_args = 0
 1451              	.LVL107:
 1452 0000 10B5     		push	{r4, lr}
 1453              	.LCFI14:
 1454              		.cfi_def_cfa_offset 8
 1455              		.cfi_offset 4, -8
 1456              		.cfi_offset 14, -4
 1457 0002 0300     		movs	r3, r0
 1458              	.LVL108:
 1459              	.LBB258:
 1460              	.LBB259:
 209:Drivers/CMSIS/Include/cmsis_gcc.h ****   return(result);
 1461              		.loc 2 209 0
 1462              		.syntax divided
 1463              	@ 209 "Drivers/CMSIS/Include/cmsis_gcc.h" 1
 1464 0004 EFF30580 		MRS r0, ipsr
 1465              	@ 0 "" 2
 1466              	.LVL109:
 1467              		.thumb
 1468              		.syntax unified
 1469              	.LBE259:
 1470              	.LBE258:
 465:Middlewares/Third_Party/FreeRTOS/Source/CMSIS_RTOS_V2/cmsis_os2.c ****     sz = 0U;
 1471              		.loc 1 465 0
 1472 0008 0028     		cmp	r0, #0
 1473 000a 0DD1     		bne	.L144
 1474              	.LBB260:
 1475              	.LBB261:
ARM GAS  /tmp/ccJ2K96T.s 			page 51


 1476              		.loc 2 386 0
 1477              		.syntax divided
 1478              	@ 386 "Drivers/CMSIS/Include/cmsis_gcc.h" 1
 1479 000c EFF31082 		MRS r2, primask
 1480              	@ 0 "" 2
 1481              		.thumb
 1482              		.syntax unified
 1483              	.LBE261:
 1484              	.LBE260:
 465:Middlewares/Third_Party/FreeRTOS/Source/CMSIS_RTOS_V2/cmsis_os2.c ****     sz = 0U;
 1485              		.loc 1 465 0
 1486 0010 002A     		cmp	r2, #0
 1487 0012 03D0     		beq	.L143
 465:Middlewares/Third_Party/FreeRTOS/Source/CMSIS_RTOS_V2/cmsis_os2.c ****     sz = 0U;
 1488              		.loc 1 465 0 is_stmt 0 discriminator 2
 1489 0014 054A     		ldr	r2, .L145
 1490 0016 1268     		ldr	r2, [r2]
 1491 0018 022A     		cmp	r2, #2
 1492 001a 06D0     		beq	.L141
 1493              	.L143:
 465:Middlewares/Third_Party/FreeRTOS/Source/CMSIS_RTOS_V2/cmsis_os2.c ****     sz = 0U;
 1494              		.loc 1 465 0 discriminator 4
 1495 001c 002B     		cmp	r3, #0
 1496 001e 04D0     		beq	.L141
 468:Middlewares/Third_Party/FreeRTOS/Source/CMSIS_RTOS_V2/cmsis_os2.c ****   }
 1497              		.loc 1 468 0 is_stmt 1
 1498 0020 1800     		movs	r0, r3
 1499 0022 FFF7FEFF 		bl	uxTaskGetStackHighWaterMark
 1500              	.LVL110:
 1501 0026 00E0     		b	.L141
 1502              	.LVL111:
 1503              	.L144:
 466:Middlewares/Third_Party/FreeRTOS/Source/CMSIS_RTOS_V2/cmsis_os2.c ****   } else {
 1504              		.loc 1 466 0
 1505 0028 0020     		movs	r0, #0
 1506              	.LVL112:
 1507              	.L141:
 472:Middlewares/Third_Party/FreeRTOS/Source/CMSIS_RTOS_V2/cmsis_os2.c **** 
 1508              		.loc 1 472 0
 1509              		@ sp needed
 1510 002a 10BD     		pop	{r4, pc}
 1511              	.L146:
 1512              		.align	2
 1513              	.L145:
 1514 002c 00000000 		.word	.LANCHOR0
 1515              		.cfi_endproc
 1516              	.LFE40:
 1518              		.section	.text.osThreadGetStackSize,"ax",%progbits
 1519              		.align	1
 1520              		.global	osThreadGetStackSize
 1521              		.syntax unified
 1522              		.code	16
 1523              		.thumb_func
 1524              		.fpu softvfp
 1526              	osThreadGetStackSize:
 1527              	.LFB41:
 474:Middlewares/Third_Party/FreeRTOS/Source/CMSIS_RTOS_V2/cmsis_os2.c ****   /*
ARM GAS  /tmp/ccJ2K96T.s 			page 52


 1528              		.loc 1 474 0
 1529              		.cfi_startproc
 1530              		@ args = 0, pretend = 0, frame = 0
 1531              		@ frame_needed = 0, uses_anonymous_args = 0
 1532              		@ link register save eliminated.
 1533              	.LVL113:
 482:Middlewares/Third_Party/FreeRTOS/Source/CMSIS_RTOS_V2/cmsis_os2.c **** 
 1534              		.loc 1 482 0
 1535 0000 0020     		movs	r0, #0
 1536              	.LVL114:
 1537              		@ sp needed
 1538 0002 7047     		bx	lr
 1539              		.cfi_endproc
 1540              	.LFE41:
 1542              		.section	.text.osThreadSetPriority,"ax",%progbits
 1543              		.align	1
 1544              		.global	osThreadSetPriority
 1545              		.syntax unified
 1546              		.code	16
 1547              		.thumb_func
 1548              		.fpu softvfp
 1550              	osThreadSetPriority:
 1551              	.LFB42:
 484:Middlewares/Third_Party/FreeRTOS/Source/CMSIS_RTOS_V2/cmsis_os2.c ****   TaskHandle_t hTask = (TaskHandle_t)thread_id;
 1552              		.loc 1 484 0
 1553              		.cfi_startproc
 1554              		@ args = 0, pretend = 0, frame = 0
 1555              		@ frame_needed = 0, uses_anonymous_args = 0
 1556              	.LVL115:
 1557 0000 10B5     		push	{r4, lr}
 1558              	.LCFI15:
 1559              		.cfi_def_cfa_offset 8
 1560              		.cfi_offset 4, -8
 1561              		.cfi_offset 14, -4
 1562              	.LVL116:
 1563              	.LBB262:
 1564              	.LBB263:
 209:Drivers/CMSIS/Include/cmsis_gcc.h ****   return(result);
 1565              		.loc 2 209 0
 1566              		.syntax divided
 1567              	@ 209 "Drivers/CMSIS/Include/cmsis_gcc.h" 1
 1568 0002 EFF30583 		MRS r3, ipsr
 1569              	@ 0 "" 2
 1570              		.thumb
 1571              		.syntax unified
 1572              	.LBE263:
 1573              	.LBE262:
 488:Middlewares/Third_Party/FreeRTOS/Source/CMSIS_RTOS_V2/cmsis_os2.c ****     stat = osErrorISR;
 1574              		.loc 1 488 0
 1575 0006 002B     		cmp	r3, #0
 1576 0008 11D1     		bne	.L151
 1577              	.LBB264:
 1578              	.LBB265:
 1579              		.loc 2 386 0
 1580              		.syntax divided
 1581              	@ 386 "Drivers/CMSIS/Include/cmsis_gcc.h" 1
 1582 000a EFF31083 		MRS r3, primask
ARM GAS  /tmp/ccJ2K96T.s 			page 53


 1583              	@ 0 "" 2
 1584              		.thumb
 1585              		.syntax unified
 1586              	.LBE265:
 1587              	.LBE264:
 488:Middlewares/Third_Party/FreeRTOS/Source/CMSIS_RTOS_V2/cmsis_os2.c ****     stat = osErrorISR;
 1588              		.loc 1 488 0
 1589 000e 002B     		cmp	r3, #0
 1590 0010 03D0     		beq	.L150
 488:Middlewares/Third_Party/FreeRTOS/Source/CMSIS_RTOS_V2/cmsis_os2.c ****     stat = osErrorISR;
 1591              		.loc 1 488 0 is_stmt 0 discriminator 2
 1592 0012 0E4B     		ldr	r3, .L156
 1593 0014 1B68     		ldr	r3, [r3]
 1594 0016 022B     		cmp	r3, #2
 1595 0018 0CD0     		beq	.L152
 1596              	.L150:
 491:Middlewares/Third_Party/FreeRTOS/Source/CMSIS_RTOS_V2/cmsis_os2.c ****     stat = osErrorParameter;
 1597              		.loc 1 491 0 is_stmt 1
 1598 001a 0028     		cmp	r0, #0
 1599 001c 0DD0     		beq	.L153
 491:Middlewares/Third_Party/FreeRTOS/Source/CMSIS_RTOS_V2/cmsis_os2.c ****     stat = osErrorParameter;
 1600              		.loc 1 491 0 is_stmt 0 discriminator 1
 1601 001e 0029     		cmp	r1, #0
 1602 0020 0EDD     		ble	.L154
 491:Middlewares/Third_Party/FreeRTOS/Source/CMSIS_RTOS_V2/cmsis_os2.c ****     stat = osErrorParameter;
 1603              		.loc 1 491 0 discriminator 2
 1604 0022 3829     		cmp	r1, #56
 1605 0024 0FDC     		bgt	.L155
 1606              	.LVL117:
 496:Middlewares/Third_Party/FreeRTOS/Source/CMSIS_RTOS_V2/cmsis_os2.c ****   }
 1607              		.loc 1 496 0 is_stmt 1
 1608 0026 FFF7FEFF 		bl	vTaskPrioritySet
 1609              	.LVL118:
 495:Middlewares/Third_Party/FreeRTOS/Source/CMSIS_RTOS_V2/cmsis_os2.c ****     vTaskPrioritySet (hTask, (UBaseType_t)priority);
 1610              		.loc 1 495 0
 1611 002a 0020     		movs	r0, #0
 1612              	.LVL119:
 1613              	.L148:
 500:Middlewares/Third_Party/FreeRTOS/Source/CMSIS_RTOS_V2/cmsis_os2.c **** 
 1614              		.loc 1 500 0
 1615              		@ sp needed
 1616 002c 10BD     		pop	{r4, pc}
 1617              	.LVL120:
 1618              	.L151:
 489:Middlewares/Third_Party/FreeRTOS/Source/CMSIS_RTOS_V2/cmsis_os2.c ****   }
 1619              		.loc 1 489 0
 1620 002e 0620     		movs	r0, #6
 1621              	.LVL121:
 1622 0030 4042     		rsbs	r0, r0, #0
 1623 0032 FBE7     		b	.L148
 1624              	.LVL122:
 1625              	.L152:
 1626 0034 0620     		movs	r0, #6
 1627              	.LVL123:
 1628 0036 4042     		rsbs	r0, r0, #0
 1629 0038 F8E7     		b	.L148
 1630              	.LVL124:
ARM GAS  /tmp/ccJ2K96T.s 			page 54


 1631              	.L153:
 492:Middlewares/Third_Party/FreeRTOS/Source/CMSIS_RTOS_V2/cmsis_os2.c ****   }
 1632              		.loc 1 492 0
 1633 003a 0420     		movs	r0, #4
 1634              	.LVL125:
 1635 003c 4042     		rsbs	r0, r0, #0
 1636 003e F5E7     		b	.L148
 1637              	.LVL126:
 1638              	.L154:
 1639 0040 0420     		movs	r0, #4
 1640              	.LVL127:
 1641 0042 4042     		rsbs	r0, r0, #0
 1642 0044 F2E7     		b	.L148
 1643              	.LVL128:
 1644              	.L155:
 1645 0046 0420     		movs	r0, #4
 1646              	.LVL129:
 1647 0048 4042     		rsbs	r0, r0, #0
 1648              	.LVL130:
 499:Middlewares/Third_Party/FreeRTOS/Source/CMSIS_RTOS_V2/cmsis_os2.c **** }
 1649              		.loc 1 499 0
 1650 004a EFE7     		b	.L148
 1651              	.L157:
 1652              		.align	2
 1653              	.L156:
 1654 004c 00000000 		.word	.LANCHOR0
 1655              		.cfi_endproc
 1656              	.LFE42:
 1658              		.section	.text.osThreadGetPriority,"ax",%progbits
 1659              		.align	1
 1660              		.global	osThreadGetPriority
 1661              		.syntax unified
 1662              		.code	16
 1663              		.thumb_func
 1664              		.fpu softvfp
 1666              	osThreadGetPriority:
 1667              	.LFB43:
 502:Middlewares/Third_Party/FreeRTOS/Source/CMSIS_RTOS_V2/cmsis_os2.c ****   TaskHandle_t hTask = (TaskHandle_t)thread_id;
 1668              		.loc 1 502 0
 1669              		.cfi_startproc
 1670              		@ args = 0, pretend = 0, frame = 0
 1671              		@ frame_needed = 0, uses_anonymous_args = 0
 1672              	.LVL131:
 1673 0000 10B5     		push	{r4, lr}
 1674              	.LCFI16:
 1675              		.cfi_def_cfa_offset 8
 1676              		.cfi_offset 4, -8
 1677              		.cfi_offset 14, -4
 1678              	.LVL132:
 1679              	.LBB266:
 1680              	.LBB267:
 209:Drivers/CMSIS/Include/cmsis_gcc.h ****   return(result);
 1681              		.loc 2 209 0
 1682              		.syntax divided
 1683              	@ 209 "Drivers/CMSIS/Include/cmsis_gcc.h" 1
 1684 0002 EFF30583 		MRS r3, ipsr
 1685              	@ 0 "" 2
ARM GAS  /tmp/ccJ2K96T.s 			page 55


 1686              		.thumb
 1687              		.syntax unified
 1688              	.LBE267:
 1689              	.LBE266:
 506:Middlewares/Third_Party/FreeRTOS/Source/CMSIS_RTOS_V2/cmsis_os2.c ****     prio = osPriorityError;
 1690              		.loc 1 506 0
 1691 0006 002B     		cmp	r3, #0
 1692 0008 0CD1     		bne	.L161
 1693              	.LBB268:
 1694              	.LBB269:
 1695              		.loc 2 386 0
 1696              		.syntax divided
 1697              	@ 386 "Drivers/CMSIS/Include/cmsis_gcc.h" 1
 1698 000a EFF31083 		MRS r3, primask
 1699              	@ 0 "" 2
 1700              		.thumb
 1701              		.syntax unified
 1702              	.LBE269:
 1703              	.LBE268:
 506:Middlewares/Third_Party/FreeRTOS/Source/CMSIS_RTOS_V2/cmsis_os2.c ****     prio = osPriorityError;
 1704              		.loc 1 506 0
 1705 000e 002B     		cmp	r3, #0
 1706 0010 03D0     		beq	.L160
 506:Middlewares/Third_Party/FreeRTOS/Source/CMSIS_RTOS_V2/cmsis_os2.c ****     prio = osPriorityError;
 1707              		.loc 1 506 0 is_stmt 0 discriminator 2
 1708 0012 094B     		ldr	r3, .L164
 1709 0014 1B68     		ldr	r3, [r3]
 1710 0016 022B     		cmp	r3, #2
 1711 0018 07D0     		beq	.L162
 1712              	.L160:
 506:Middlewares/Third_Party/FreeRTOS/Source/CMSIS_RTOS_V2/cmsis_os2.c ****     prio = osPriorityError;
 1713              		.loc 1 506 0 discriminator 4
 1714 001a 0028     		cmp	r0, #0
 1715 001c 08D0     		beq	.L163
 509:Middlewares/Third_Party/FreeRTOS/Source/CMSIS_RTOS_V2/cmsis_os2.c ****   }
 1716              		.loc 1 509 0 is_stmt 1
 1717 001e FFF7FEFF 		bl	uxTaskPriorityGet
 1718              	.LVL133:
 1719              	.L158:
 513:Middlewares/Third_Party/FreeRTOS/Source/CMSIS_RTOS_V2/cmsis_os2.c **** 
 1720              		.loc 1 513 0
 1721              		@ sp needed
 1722 0022 10BD     		pop	{r4, pc}
 1723              	.LVL134:
 1724              	.L161:
 507:Middlewares/Third_Party/FreeRTOS/Source/CMSIS_RTOS_V2/cmsis_os2.c ****   } else {
 1725              		.loc 1 507 0
 1726 0024 0120     		movs	r0, #1
 1727              	.LVL135:
 1728 0026 4042     		rsbs	r0, r0, #0
 1729 0028 FBE7     		b	.L158
 1730              	.LVL136:
 1731              	.L162:
 1732 002a 0120     		movs	r0, #1
 1733              	.LVL137:
 1734 002c 4042     		rsbs	r0, r0, #0
 1735 002e F8E7     		b	.L158
ARM GAS  /tmp/ccJ2K96T.s 			page 56


 1736              	.LVL138:
 1737              	.L163:
 1738 0030 0120     		movs	r0, #1
 1739              	.LVL139:
 1740 0032 4042     		rsbs	r0, r0, #0
 1741              	.LVL140:
 512:Middlewares/Third_Party/FreeRTOS/Source/CMSIS_RTOS_V2/cmsis_os2.c **** }
 1742              		.loc 1 512 0
 1743 0034 F5E7     		b	.L158
 1744              	.L165:
 1745 0036 C046     		.align	2
 1746              	.L164:
 1747 0038 00000000 		.word	.LANCHOR0
 1748              		.cfi_endproc
 1749              	.LFE43:
 1751              		.section	.text.osThreadYield,"ax",%progbits
 1752              		.align	1
 1753              		.global	osThreadYield
 1754              		.syntax unified
 1755              		.code	16
 1756              		.thumb_func
 1757              		.fpu softvfp
 1759              	osThreadYield:
 1760              	.LFB44:
 515:Middlewares/Third_Party/FreeRTOS/Source/CMSIS_RTOS_V2/cmsis_os2.c ****   osStatus_t stat;
 1761              		.loc 1 515 0
 1762              		.cfi_startproc
 1763              		@ args = 0, pretend = 0, frame = 0
 1764              		@ frame_needed = 0, uses_anonymous_args = 0
 1765 0000 10B5     		push	{r4, lr}
 1766              	.LCFI17:
 1767              		.cfi_def_cfa_offset 8
 1768              		.cfi_offset 4, -8
 1769              		.cfi_offset 14, -4
 1770              	.LBB270:
 1771              	.LBB271:
 209:Drivers/CMSIS/Include/cmsis_gcc.h ****   return(result);
 1772              		.loc 2 209 0
 1773              		.syntax divided
 1774              	@ 209 "Drivers/CMSIS/Include/cmsis_gcc.h" 1
 1775 0002 EFF30583 		MRS r3, ipsr
 1776              	@ 0 "" 2
 1777              		.thumb
 1778              		.syntax unified
 1779              	.LBE271:
 1780              	.LBE270:
 518:Middlewares/Third_Party/FreeRTOS/Source/CMSIS_RTOS_V2/cmsis_os2.c ****     stat = osErrorISR;
 1781              		.loc 1 518 0
 1782 0006 002B     		cmp	r3, #0
 1783 0008 0BD1     		bne	.L169
 1784              	.LBB272:
 1785              	.LBB273:
 1786              		.loc 2 386 0
 1787              		.syntax divided
 1788              	@ 386 "Drivers/CMSIS/Include/cmsis_gcc.h" 1
 1789 000a EFF31083 		MRS r3, primask
 1790              	@ 0 "" 2
ARM GAS  /tmp/ccJ2K96T.s 			page 57


 1791              		.thumb
 1792              		.syntax unified
 1793              	.LBE273:
 1794              	.LBE272:
 518:Middlewares/Third_Party/FreeRTOS/Source/CMSIS_RTOS_V2/cmsis_os2.c ****     stat = osErrorISR;
 1795              		.loc 1 518 0
 1796 000e 002B     		cmp	r3, #0
 1797 0010 03D0     		beq	.L168
 518:Middlewares/Third_Party/FreeRTOS/Source/CMSIS_RTOS_V2/cmsis_os2.c ****     stat = osErrorISR;
 1798              		.loc 1 518 0 is_stmt 0 discriminator 2
 1799 0012 074B     		ldr	r3, .L171
 1800 0014 1B68     		ldr	r3, [r3]
 1801 0016 022B     		cmp	r3, #2
 1802 0018 06D0     		beq	.L170
 1803              	.L168:
 1804              	.LVL141:
 522:Middlewares/Third_Party/FreeRTOS/Source/CMSIS_RTOS_V2/cmsis_os2.c ****   }
 1805              		.loc 1 522 0 is_stmt 1
 1806 001a FFF7FEFF 		bl	vPortYield
 1807              	.LVL142:
 521:Middlewares/Third_Party/FreeRTOS/Source/CMSIS_RTOS_V2/cmsis_os2.c ****     taskYIELD();
 1808              		.loc 1 521 0
 1809 001e 0020     		movs	r0, #0
 1810              	.LVL143:
 1811              	.L166:
 526:Middlewares/Third_Party/FreeRTOS/Source/CMSIS_RTOS_V2/cmsis_os2.c **** 
 1812              		.loc 1 526 0
 1813              		@ sp needed
 1814 0020 10BD     		pop	{r4, pc}
 1815              	.L169:
 519:Middlewares/Third_Party/FreeRTOS/Source/CMSIS_RTOS_V2/cmsis_os2.c ****   } else {
 1816              		.loc 1 519 0
 1817 0022 0620     		movs	r0, #6
 1818 0024 4042     		rsbs	r0, r0, #0
 1819 0026 FBE7     		b	.L166
 1820              	.L170:
 1821 0028 0620     		movs	r0, #6
 1822 002a 4042     		rsbs	r0, r0, #0
 1823              	.LVL144:
 525:Middlewares/Third_Party/FreeRTOS/Source/CMSIS_RTOS_V2/cmsis_os2.c **** }
 1824              		.loc 1 525 0
 1825 002c F8E7     		b	.L166
 1826              	.L172:
 1827 002e C046     		.align	2
 1828              	.L171:
 1829 0030 00000000 		.word	.LANCHOR0
 1830              		.cfi_endproc
 1831              	.LFE44:
 1833              		.section	.text.osThreadSuspend,"ax",%progbits
 1834              		.align	1
 1835              		.global	osThreadSuspend
 1836              		.syntax unified
 1837              		.code	16
 1838              		.thumb_func
 1839              		.fpu softvfp
 1841              	osThreadSuspend:
 1842              	.LFB45:
ARM GAS  /tmp/ccJ2K96T.s 			page 58


 528:Middlewares/Third_Party/FreeRTOS/Source/CMSIS_RTOS_V2/cmsis_os2.c ****   TaskHandle_t hTask = (TaskHandle_t)thread_id;
 1843              		.loc 1 528 0
 1844              		.cfi_startproc
 1845              		@ args = 0, pretend = 0, frame = 0
 1846              		@ frame_needed = 0, uses_anonymous_args = 0
 1847              	.LVL145:
 1848 0000 10B5     		push	{r4, lr}
 1849              	.LCFI18:
 1850              		.cfi_def_cfa_offset 8
 1851              		.cfi_offset 4, -8
 1852              		.cfi_offset 14, -4
 1853              	.LVL146:
 1854              	.LBB274:
 1855              	.LBB275:
 209:Drivers/CMSIS/Include/cmsis_gcc.h ****   return(result);
 1856              		.loc 2 209 0
 1857              		.syntax divided
 1858              	@ 209 "Drivers/CMSIS/Include/cmsis_gcc.h" 1
 1859 0002 EFF30583 		MRS r3, ipsr
 1860              	@ 0 "" 2
 1861              		.thumb
 1862              		.syntax unified
 1863              	.LBE275:
 1864              	.LBE274:
 532:Middlewares/Third_Party/FreeRTOS/Source/CMSIS_RTOS_V2/cmsis_os2.c ****     stat = osErrorISR;
 1865              		.loc 1 532 0
 1866 0006 002B     		cmp	r3, #0
 1867 0008 0DD1     		bne	.L176
 1868              	.LBB276:
 1869              	.LBB277:
 1870              		.loc 2 386 0
 1871              		.syntax divided
 1872              	@ 386 "Drivers/CMSIS/Include/cmsis_gcc.h" 1
 1873 000a EFF31083 		MRS r3, primask
 1874              	@ 0 "" 2
 1875              		.thumb
 1876              		.syntax unified
 1877              	.LBE277:
 1878              	.LBE276:
 532:Middlewares/Third_Party/FreeRTOS/Source/CMSIS_RTOS_V2/cmsis_os2.c ****     stat = osErrorISR;
 1879              		.loc 1 532 0
 1880 000e 002B     		cmp	r3, #0
 1881 0010 03D0     		beq	.L175
 532:Middlewares/Third_Party/FreeRTOS/Source/CMSIS_RTOS_V2/cmsis_os2.c ****     stat = osErrorISR;
 1882              		.loc 1 532 0 is_stmt 0 discriminator 2
 1883 0012 094B     		ldr	r3, .L179
 1884 0014 1B68     		ldr	r3, [r3]
 1885 0016 022B     		cmp	r3, #2
 1886 0018 08D0     		beq	.L177
 1887              	.L175:
 535:Middlewares/Third_Party/FreeRTOS/Source/CMSIS_RTOS_V2/cmsis_os2.c ****     stat = osErrorParameter;
 1888              		.loc 1 535 0 is_stmt 1
 1889 001a 0028     		cmp	r0, #0
 1890 001c 09D0     		beq	.L178
 1891              	.LVL147:
 540:Middlewares/Third_Party/FreeRTOS/Source/CMSIS_RTOS_V2/cmsis_os2.c ****   }
 1892              		.loc 1 540 0
ARM GAS  /tmp/ccJ2K96T.s 			page 59


 1893 001e FFF7FEFF 		bl	vTaskSuspend
 1894              	.LVL148:
 539:Middlewares/Third_Party/FreeRTOS/Source/CMSIS_RTOS_V2/cmsis_os2.c ****     vTaskSuspend (hTask);
 1895              		.loc 1 539 0
 1896 0022 0020     		movs	r0, #0
 1897              	.LVL149:
 1898              	.L173:
 544:Middlewares/Third_Party/FreeRTOS/Source/CMSIS_RTOS_V2/cmsis_os2.c **** 
 1899              		.loc 1 544 0
 1900              		@ sp needed
 1901 0024 10BD     		pop	{r4, pc}
 1902              	.LVL150:
 1903              	.L176:
 533:Middlewares/Third_Party/FreeRTOS/Source/CMSIS_RTOS_V2/cmsis_os2.c ****   }
 1904              		.loc 1 533 0
 1905 0026 0620     		movs	r0, #6
 1906              	.LVL151:
 1907 0028 4042     		rsbs	r0, r0, #0
 1908 002a FBE7     		b	.L173
 1909              	.LVL152:
 1910              	.L177:
 1911 002c 0620     		movs	r0, #6
 1912              	.LVL153:
 1913 002e 4042     		rsbs	r0, r0, #0
 1914 0030 F8E7     		b	.L173
 1915              	.LVL154:
 1916              	.L178:
 536:Middlewares/Third_Party/FreeRTOS/Source/CMSIS_RTOS_V2/cmsis_os2.c ****   }
 1917              		.loc 1 536 0
 1918 0032 0420     		movs	r0, #4
 1919              	.LVL155:
 1920 0034 4042     		rsbs	r0, r0, #0
 1921              	.LVL156:
 543:Middlewares/Third_Party/FreeRTOS/Source/CMSIS_RTOS_V2/cmsis_os2.c **** }
 1922              		.loc 1 543 0
 1923 0036 F5E7     		b	.L173
 1924              	.L180:
 1925              		.align	2
 1926              	.L179:
 1927 0038 00000000 		.word	.LANCHOR0
 1928              		.cfi_endproc
 1929              	.LFE45:
 1931              		.section	.text.osThreadResume,"ax",%progbits
 1932              		.align	1
 1933              		.global	osThreadResume
 1934              		.syntax unified
 1935              		.code	16
 1936              		.thumb_func
 1937              		.fpu softvfp
 1939              	osThreadResume:
 1940              	.LFB46:
 546:Middlewares/Third_Party/FreeRTOS/Source/CMSIS_RTOS_V2/cmsis_os2.c ****   TaskHandle_t hTask = (TaskHandle_t)thread_id;
 1941              		.loc 1 546 0
 1942              		.cfi_startproc
 1943              		@ args = 0, pretend = 0, frame = 0
 1944              		@ frame_needed = 0, uses_anonymous_args = 0
 1945              	.LVL157:
ARM GAS  /tmp/ccJ2K96T.s 			page 60


 1946 0000 10B5     		push	{r4, lr}
 1947              	.LCFI19:
 1948              		.cfi_def_cfa_offset 8
 1949              		.cfi_offset 4, -8
 1950              		.cfi_offset 14, -4
 1951              	.LVL158:
 1952              	.LBB278:
 1953              	.LBB279:
 209:Drivers/CMSIS/Include/cmsis_gcc.h ****   return(result);
 1954              		.loc 2 209 0
 1955              		.syntax divided
 1956              	@ 209 "Drivers/CMSIS/Include/cmsis_gcc.h" 1
 1957 0002 EFF30583 		MRS r3, ipsr
 1958              	@ 0 "" 2
 1959              		.thumb
 1960              		.syntax unified
 1961              	.LBE279:
 1962              	.LBE278:
 550:Middlewares/Third_Party/FreeRTOS/Source/CMSIS_RTOS_V2/cmsis_os2.c ****     stat = osErrorISR;
 1963              		.loc 1 550 0
 1964 0006 002B     		cmp	r3, #0
 1965 0008 0DD1     		bne	.L184
 1966              	.LBB280:
 1967              	.LBB281:
 1968              		.loc 2 386 0
 1969              		.syntax divided
 1970              	@ 386 "Drivers/CMSIS/Include/cmsis_gcc.h" 1
 1971 000a EFF31083 		MRS r3, primask
 1972              	@ 0 "" 2
 1973              		.thumb
 1974              		.syntax unified
 1975              	.LBE281:
 1976              	.LBE280:
 550:Middlewares/Third_Party/FreeRTOS/Source/CMSIS_RTOS_V2/cmsis_os2.c ****     stat = osErrorISR;
 1977              		.loc 1 550 0
 1978 000e 002B     		cmp	r3, #0
 1979 0010 03D0     		beq	.L183
 550:Middlewares/Third_Party/FreeRTOS/Source/CMSIS_RTOS_V2/cmsis_os2.c ****     stat = osErrorISR;
 1980              		.loc 1 550 0 is_stmt 0 discriminator 2
 1981 0012 094B     		ldr	r3, .L187
 1982 0014 1B68     		ldr	r3, [r3]
 1983 0016 022B     		cmp	r3, #2
 1984 0018 08D0     		beq	.L185
 1985              	.L183:
 553:Middlewares/Third_Party/FreeRTOS/Source/CMSIS_RTOS_V2/cmsis_os2.c ****     stat = osErrorParameter;
 1986              		.loc 1 553 0 is_stmt 1
 1987 001a 0028     		cmp	r0, #0
 1988 001c 09D0     		beq	.L186
 1989              	.LVL159:
 558:Middlewares/Third_Party/FreeRTOS/Source/CMSIS_RTOS_V2/cmsis_os2.c ****   }
 1990              		.loc 1 558 0
 1991 001e FFF7FEFF 		bl	vTaskResume
 1992              	.LVL160:
 557:Middlewares/Third_Party/FreeRTOS/Source/CMSIS_RTOS_V2/cmsis_os2.c ****     vTaskResume (hTask);
 1993              		.loc 1 557 0
 1994 0022 0020     		movs	r0, #0
 1995              	.LVL161:
ARM GAS  /tmp/ccJ2K96T.s 			page 61


 1996              	.L181:
 562:Middlewares/Third_Party/FreeRTOS/Source/CMSIS_RTOS_V2/cmsis_os2.c **** 
 1997              		.loc 1 562 0
 1998              		@ sp needed
 1999 0024 10BD     		pop	{r4, pc}
 2000              	.LVL162:
 2001              	.L184:
 551:Middlewares/Third_Party/FreeRTOS/Source/CMSIS_RTOS_V2/cmsis_os2.c ****   }
 2002              		.loc 1 551 0
 2003 0026 0620     		movs	r0, #6
 2004              	.LVL163:
 2005 0028 4042     		rsbs	r0, r0, #0
 2006 002a FBE7     		b	.L181
 2007              	.LVL164:
 2008              	.L185:
 2009 002c 0620     		movs	r0, #6
 2010              	.LVL165:
 2011 002e 4042     		rsbs	r0, r0, #0
 2012 0030 F8E7     		b	.L181
 2013              	.LVL166:
 2014              	.L186:
 554:Middlewares/Third_Party/FreeRTOS/Source/CMSIS_RTOS_V2/cmsis_os2.c ****   }
 2015              		.loc 1 554 0
 2016 0032 0420     		movs	r0, #4
 2017              	.LVL167:
 2018 0034 4042     		rsbs	r0, r0, #0
 2019              	.LVL168:
 561:Middlewares/Third_Party/FreeRTOS/Source/CMSIS_RTOS_V2/cmsis_os2.c **** }
 2020              		.loc 1 561 0
 2021 0036 F5E7     		b	.L181
 2022              	.L188:
 2023              		.align	2
 2024              	.L187:
 2025 0038 00000000 		.word	.LANCHOR0
 2026              		.cfi_endproc
 2027              	.LFE46:
 2029              		.section	.text.osThreadExit,"ax",%progbits
 2030              		.align	1
 2031              		.global	osThreadExit
 2032              		.syntax unified
 2033              		.code	16
 2034              		.thumb_func
 2035              		.fpu softvfp
 2037              	osThreadExit:
 2038              	.LFB47:
 564:Middlewares/Third_Party/FreeRTOS/Source/CMSIS_RTOS_V2/cmsis_os2.c **** #ifndef USE_FreeRTOS_HEAP_1
 2039              		.loc 1 564 0
 2040              		.cfi_startproc
 2041              		@ Volatile: function does not return.
 2042              		@ args = 0, pretend = 0, frame = 0
 2043              		@ frame_needed = 0, uses_anonymous_args = 0
 2044 0000 10B5     		push	{r4, lr}
 2045              	.LCFI20:
 2046              		.cfi_def_cfa_offset 8
 2047              		.cfi_offset 4, -8
 2048              		.cfi_offset 14, -4
 566:Middlewares/Third_Party/FreeRTOS/Source/CMSIS_RTOS_V2/cmsis_os2.c **** #endif
ARM GAS  /tmp/ccJ2K96T.s 			page 62


 2049              		.loc 1 566 0
 2050 0002 0020     		movs	r0, #0
 2051 0004 FFF7FEFF 		bl	vTaskDelete
 2052              	.LVL169:
 2053              	.L190:
 2054 0008 FEE7     		b	.L190
 2055              		.cfi_endproc
 2056              	.LFE47:
 2058              		.section	.text.osThreadTerminate,"ax",%progbits
 2059              		.align	1
 2060              		.global	osThreadTerminate
 2061              		.syntax unified
 2062              		.code	16
 2063              		.thumb_func
 2064              		.fpu softvfp
 2066              	osThreadTerminate:
 2067              	.LFB48:
 571:Middlewares/Third_Party/FreeRTOS/Source/CMSIS_RTOS_V2/cmsis_os2.c ****   TaskHandle_t hTask = (TaskHandle_t)thread_id;
 2068              		.loc 1 571 0
 2069              		.cfi_startproc
 2070              		@ args = 0, pretend = 0, frame = 0
 2071              		@ frame_needed = 0, uses_anonymous_args = 0
 2072              	.LVL170:
 2073 0000 10B5     		push	{r4, lr}
 2074              	.LCFI21:
 2075              		.cfi_def_cfa_offset 8
 2076              		.cfi_offset 4, -8
 2077              		.cfi_offset 14, -4
 2078 0002 0400     		movs	r4, r0
 2079              	.LVL171:
 2080              	.LBB282:
 2081              	.LBB283:
 209:Drivers/CMSIS/Include/cmsis_gcc.h ****   return(result);
 2082              		.loc 2 209 0
 2083              		.syntax divided
 2084              	@ 209 "Drivers/CMSIS/Include/cmsis_gcc.h" 1
 2085 0004 EFF30583 		MRS r3, ipsr
 2086              	@ 0 "" 2
 2087              		.thumb
 2088              		.syntax unified
 2089              	.LBE283:
 2090              	.LBE282:
 577:Middlewares/Third_Party/FreeRTOS/Source/CMSIS_RTOS_V2/cmsis_os2.c ****     stat = osErrorISR;
 2091              		.loc 1 577 0
 2092 0008 002B     		cmp	r3, #0
 2093 000a 13D1     		bne	.L194
 2094              	.LBB284:
 2095              	.LBB285:
 2096              		.loc 2 386 0
 2097              		.syntax divided
 2098              	@ 386 "Drivers/CMSIS/Include/cmsis_gcc.h" 1
 2099 000c EFF31083 		MRS r3, primask
 2100              	@ 0 "" 2
 2101              		.thumb
 2102              		.syntax unified
 2103              	.LBE285:
 2104              	.LBE284:
ARM GAS  /tmp/ccJ2K96T.s 			page 63


 577:Middlewares/Third_Party/FreeRTOS/Source/CMSIS_RTOS_V2/cmsis_os2.c ****     stat = osErrorISR;
 2105              		.loc 1 577 0
 2106 0010 002B     		cmp	r3, #0
 2107 0012 03D0     		beq	.L193
 577:Middlewares/Third_Party/FreeRTOS/Source/CMSIS_RTOS_V2/cmsis_os2.c ****     stat = osErrorISR;
 2108              		.loc 1 577 0 is_stmt 0 discriminator 2
 2109 0014 0D4B     		ldr	r3, .L198
 2110 0016 1B68     		ldr	r3, [r3]
 2111 0018 022B     		cmp	r3, #2
 2112 001a 0ED0     		beq	.L195
 2113              	.L193:
 580:Middlewares/Third_Party/FreeRTOS/Source/CMSIS_RTOS_V2/cmsis_os2.c ****     stat = osErrorParameter;
 2114              		.loc 1 580 0 is_stmt 1
 2115 001c 002C     		cmp	r4, #0
 2116 001e 0FD0     		beq	.L196
 584:Middlewares/Third_Party/FreeRTOS/Source/CMSIS_RTOS_V2/cmsis_os2.c **** 
 2117              		.loc 1 584 0
 2118 0020 2000     		movs	r0, r4
 2119              	.LVL172:
 2120 0022 FFF7FEFF 		bl	eTaskGetState
 2121              	.LVL173:
 586:Middlewares/Third_Party/FreeRTOS/Source/CMSIS_RTOS_V2/cmsis_os2.c ****       stat = osOK;
 2122              		.loc 1 586 0
 2123 0026 0428     		cmp	r0, #4
 2124 0028 0DD0     		beq	.L197
 2125              	.LVL174:
 588:Middlewares/Third_Party/FreeRTOS/Source/CMSIS_RTOS_V2/cmsis_os2.c ****     } else {
 2126              		.loc 1 588 0
 2127 002a 2000     		movs	r0, r4
 2128              	.LVL175:
 2129 002c FFF7FEFF 		bl	vTaskDelete
 2130              	.LVL176:
 587:Middlewares/Third_Party/FreeRTOS/Source/CMSIS_RTOS_V2/cmsis_os2.c ****       vTaskDelete (hTask);
 2131              		.loc 1 587 0
 2132 0030 0020     		movs	r0, #0
 2133              	.LVL177:
 2134              	.L191:
 598:Middlewares/Third_Party/FreeRTOS/Source/CMSIS_RTOS_V2/cmsis_os2.c **** 
 2135              		.loc 1 598 0
 2136              		@ sp needed
 2137              	.LVL178:
 2138 0032 10BD     		pop	{r4, pc}
 2139              	.LVL179:
 2140              	.L194:
 578:Middlewares/Third_Party/FreeRTOS/Source/CMSIS_RTOS_V2/cmsis_os2.c ****   }
 2141              		.loc 1 578 0
 2142 0034 0620     		movs	r0, #6
 2143              	.LVL180:
 2144 0036 4042     		rsbs	r0, r0, #0
 2145 0038 FBE7     		b	.L191
 2146              	.LVL181:
 2147              	.L195:
 2148 003a 0620     		movs	r0, #6
 2149              	.LVL182:
 2150 003c 4042     		rsbs	r0, r0, #0
 2151 003e F8E7     		b	.L191
 2152              	.LVL183:
ARM GAS  /tmp/ccJ2K96T.s 			page 64


 2153              	.L196:
 581:Middlewares/Third_Party/FreeRTOS/Source/CMSIS_RTOS_V2/cmsis_os2.c ****   }
 2154              		.loc 1 581 0
 2155 0040 0420     		movs	r0, #4
 2156              	.LVL184:
 2157 0042 4042     		rsbs	r0, r0, #0
 2158 0044 F5E7     		b	.L191
 2159              	.LVL185:
 2160              	.L197:
 590:Middlewares/Third_Party/FreeRTOS/Source/CMSIS_RTOS_V2/cmsis_os2.c ****     }
 2161              		.loc 1 590 0
 2162 0046 0320     		movs	r0, #3
 2163              	.LVL186:
 2164 0048 4042     		rsbs	r0, r0, #0
 2165              	.LVL187:
 597:Middlewares/Third_Party/FreeRTOS/Source/CMSIS_RTOS_V2/cmsis_os2.c **** }
 2166              		.loc 1 597 0
 2167 004a F2E7     		b	.L191
 2168              	.L199:
 2169              		.align	2
 2170              	.L198:
 2171 004c 00000000 		.word	.LANCHOR0
 2172              		.cfi_endproc
 2173              	.LFE48:
 2175              		.section	.text.osThreadGetCount,"ax",%progbits
 2176              		.align	1
 2177              		.global	osThreadGetCount
 2178              		.syntax unified
 2179              		.code	16
 2180              		.thumb_func
 2181              		.fpu softvfp
 2183              	osThreadGetCount:
 2184              	.LFB49:
 600:Middlewares/Third_Party/FreeRTOS/Source/CMSIS_RTOS_V2/cmsis_os2.c ****   uint32_t count;
 2185              		.loc 1 600 0
 2186              		.cfi_startproc
 2187              		@ args = 0, pretend = 0, frame = 0
 2188              		@ frame_needed = 0, uses_anonymous_args = 0
 2189 0000 10B5     		push	{r4, lr}
 2190              	.LCFI22:
 2191              		.cfi_def_cfa_offset 8
 2192              		.cfi_offset 4, -8
 2193              		.cfi_offset 14, -4
 2194              	.LBB286:
 2195              	.LBB287:
 209:Drivers/CMSIS/Include/cmsis_gcc.h ****   return(result);
 2196              		.loc 2 209 0
 2197              		.syntax divided
 2198              	@ 209 "Drivers/CMSIS/Include/cmsis_gcc.h" 1
 2199 0002 EFF30580 		MRS r0, ipsr
 2200              	@ 0 "" 2
 2201              		.thumb
 2202              		.syntax unified
 2203              	.LBE287:
 2204              	.LBE286:
 603:Middlewares/Third_Party/FreeRTOS/Source/CMSIS_RTOS_V2/cmsis_os2.c ****     count = 0U;
 2205              		.loc 1 603 0
ARM GAS  /tmp/ccJ2K96T.s 			page 65


 2206 0006 0028     		cmp	r0, #0
 2207 0008 0AD1     		bne	.L203
 2208              	.LBB288:
 2209              	.LBB289:
 2210              		.loc 2 386 0
 2211              		.syntax divided
 2212              	@ 386 "Drivers/CMSIS/Include/cmsis_gcc.h" 1
 2213 000a EFF31083 		MRS r3, primask
 2214              	@ 0 "" 2
 2215              		.thumb
 2216              		.syntax unified
 2217              	.LBE289:
 2218              	.LBE288:
 603:Middlewares/Third_Party/FreeRTOS/Source/CMSIS_RTOS_V2/cmsis_os2.c ****     count = 0U;
 2219              		.loc 1 603 0
 2220 000e 002B     		cmp	r3, #0
 2221 0010 03D0     		beq	.L202
 603:Middlewares/Third_Party/FreeRTOS/Source/CMSIS_RTOS_V2/cmsis_os2.c ****     count = 0U;
 2222              		.loc 1 603 0 is_stmt 0 discriminator 2
 2223 0012 044B     		ldr	r3, .L204
 2224 0014 1B68     		ldr	r3, [r3]
 2225 0016 022B     		cmp	r3, #2
 2226 0018 03D0     		beq	.L200
 2227              	.L202:
 606:Middlewares/Third_Party/FreeRTOS/Source/CMSIS_RTOS_V2/cmsis_os2.c ****   }
 2228              		.loc 1 606 0 is_stmt 1
 2229 001a FFF7FEFF 		bl	uxTaskGetNumberOfTasks
 2230              	.LVL188:
 2231 001e 00E0     		b	.L200
 2232              	.LVL189:
 2233              	.L203:
 604:Middlewares/Third_Party/FreeRTOS/Source/CMSIS_RTOS_V2/cmsis_os2.c ****   } else {
 2234              		.loc 1 604 0
 2235 0020 0020     		movs	r0, #0
 2236              	.LVL190:
 2237              	.L200:
 610:Middlewares/Third_Party/FreeRTOS/Source/CMSIS_RTOS_V2/cmsis_os2.c **** 
 2238              		.loc 1 610 0
 2239              		@ sp needed
 2240 0022 10BD     		pop	{r4, pc}
 2241              	.L205:
 2242              		.align	2
 2243              	.L204:
 2244 0024 00000000 		.word	.LANCHOR0
 2245              		.cfi_endproc
 2246              	.LFE49:
 2248              		.section	.text.osThreadEnumerate,"ax",%progbits
 2249              		.align	1
 2250              		.global	osThreadEnumerate
 2251              		.syntax unified
 2252              		.code	16
 2253              		.thumb_func
 2254              		.fpu softvfp
 2256              	osThreadEnumerate:
 2257              	.LFB50:
 612:Middlewares/Third_Party/FreeRTOS/Source/CMSIS_RTOS_V2/cmsis_os2.c ****   uint32_t i, count;
 2258              		.loc 1 612 0
ARM GAS  /tmp/ccJ2K96T.s 			page 66


 2259              		.cfi_startproc
 2260              		@ args = 0, pretend = 0, frame = 0
 2261              		@ frame_needed = 0, uses_anonymous_args = 0
 2262              	.LVL191:
 2263 0000 F0B5     		push	{r4, r5, r6, r7, lr}
 2264              	.LCFI23:
 2265              		.cfi_def_cfa_offset 20
 2266              		.cfi_offset 4, -20
 2267              		.cfi_offset 5, -16
 2268              		.cfi_offset 6, -12
 2269              		.cfi_offset 7, -8
 2270              		.cfi_offset 14, -4
 2271 0002 C646     		mov	lr, r8
 2272 0004 00B5     		push	{lr}
 2273              	.LCFI24:
 2274              		.cfi_def_cfa_offset 24
 2275              		.cfi_offset 8, -24
 2276 0006 0600     		movs	r6, r0
 2277 0008 0D00     		movs	r5, r1
 2278              	.LBB290:
 2279              	.LBB291:
 209:Drivers/CMSIS/Include/cmsis_gcc.h ****   return(result);
 2280              		.loc 2 209 0
 2281              		.syntax divided
 2282              	@ 209 "Drivers/CMSIS/Include/cmsis_gcc.h" 1
 2283 000a EFF30584 		MRS r4, ipsr
 2284              	@ 0 "" 2
 2285              		.thumb
 2286              		.syntax unified
 2287              	.LBE291:
 2288              	.LBE290:
 616:Middlewares/Third_Party/FreeRTOS/Source/CMSIS_RTOS_V2/cmsis_os2.c ****     count = 0U;
 2289              		.loc 1 616 0
 2290 000e 002C     		cmp	r4, #0
 2291 0010 31D1     		bne	.L212
 2292              	.LBB292:
 2293              	.LBB293:
 2294              		.loc 2 386 0
 2295              		.syntax divided
 2296              	@ 386 "Drivers/CMSIS/Include/cmsis_gcc.h" 1
 2297 0012 EFF31083 		MRS r3, primask
 2298              	@ 0 "" 2
 2299              		.thumb
 2300              		.syntax unified
 2301              	.LBE293:
 2302              	.LBE292:
 616:Middlewares/Third_Party/FreeRTOS/Source/CMSIS_RTOS_V2/cmsis_os2.c ****     count = 0U;
 2303              		.loc 1 616 0
 2304 0016 002B     		cmp	r3, #0
 2305 0018 03D0     		beq	.L208
 616:Middlewares/Third_Party/FreeRTOS/Source/CMSIS_RTOS_V2/cmsis_os2.c ****     count = 0U;
 2306              		.loc 1 616 0 is_stmt 0 discriminator 2
 2307 001a 194B     		ldr	r3, .L216
 2308 001c 1B68     		ldr	r3, [r3]
 2309 001e 022B     		cmp	r3, #2
 2310 0020 2AD0     		beq	.L206
 2311              	.L208:
ARM GAS  /tmp/ccJ2K96T.s 			page 67


 616:Middlewares/Third_Party/FreeRTOS/Source/CMSIS_RTOS_V2/cmsis_os2.c ****     count = 0U;
 2312              		.loc 1 616 0 discriminator 4
 2313 0022 002E     		cmp	r6, #0
 2314 0024 28D0     		beq	.L206
 616:Middlewares/Third_Party/FreeRTOS/Source/CMSIS_RTOS_V2/cmsis_os2.c ****     count = 0U;
 2315              		.loc 1 616 0 discriminator 5
 2316 0026 002D     		cmp	r5, #0
 2317 0028 01D1     		bne	.L215
 617:Middlewares/Third_Party/FreeRTOS/Source/CMSIS_RTOS_V2/cmsis_os2.c ****   } else {
 2318              		.loc 1 617 0 is_stmt 1
 2319 002a 2C00     		movs	r4, r5
 2320              	.LVL192:
 637:Middlewares/Third_Party/FreeRTOS/Source/CMSIS_RTOS_V2/cmsis_os2.c **** }
 2321              		.loc 1 637 0
 2322 002c 24E0     		b	.L206
 2323              	.LVL193:
 2324              	.L215:
 619:Middlewares/Third_Party/FreeRTOS/Source/CMSIS_RTOS_V2/cmsis_os2.c **** 
 2325              		.loc 1 619 0
 2326 002e FFF7FEFF 		bl	vTaskSuspendAll
 2327              	.LVL194:
 621:Middlewares/Third_Party/FreeRTOS/Source/CMSIS_RTOS_V2/cmsis_os2.c ****     task  = pvPortMalloc (count * sizeof(TaskStatus_t));
 2328              		.loc 1 621 0
 2329 0032 FFF7FEFF 		bl	uxTaskGetNumberOfTasks
 2330              	.LVL195:
 2331 0036 8046     		mov	r8, r0
 2332              	.LVL196:
 622:Middlewares/Third_Party/FreeRTOS/Source/CMSIS_RTOS_V2/cmsis_os2.c **** 
 2333              		.loc 1 622 0
 2334 0038 C300     		lsls	r3, r0, #3
 2335 003a 4344     		add	r3, r3, r8
 2336 003c 9800     		lsls	r0, r3, #2
 2337              	.LVL197:
 2338 003e FFF7FEFF 		bl	pvPortMalloc
 2339              	.LVL198:
 2340 0042 071E     		subs	r7, r0, #0
 2341              	.LVL199:
 624:Middlewares/Third_Party/FreeRTOS/Source/CMSIS_RTOS_V2/cmsis_os2.c ****       count = uxTaskGetSystemState (task, count, NULL);
 2342              		.loc 1 624 0
 2343 0044 10D0     		beq	.L214
 625:Middlewares/Third_Party/FreeRTOS/Source/CMSIS_RTOS_V2/cmsis_os2.c **** 
 2344              		.loc 1 625 0
 2345 0046 0022     		movs	r2, #0
 2346 0048 4146     		mov	r1, r8
 2347 004a FFF7FEFF 		bl	uxTaskGetSystemState
 2348              	.LVL200:
 627:Middlewares/Third_Party/FreeRTOS/Source/CMSIS_RTOS_V2/cmsis_os2.c ****         thread_array[i] = (osThreadId_t)task[i].xHandle;
 2349              		.loc 1 627 0
 2350 004e 06E0     		b	.L210
 2351              	.LVL201:
 2352              	.L211:
 628:Middlewares/Third_Party/FreeRTOS/Source/CMSIS_RTOS_V2/cmsis_os2.c ****       }
 2353              		.loc 1 628 0 discriminator 4
 2354 0050 E300     		lsls	r3, r4, #3
 2355 0052 1B19     		adds	r3, r3, r4
 2356 0054 9A00     		lsls	r2, r3, #2
 2357 0056 A300     		lsls	r3, r4, #2
ARM GAS  /tmp/ccJ2K96T.s 			page 68


 2358 0058 BA58     		ldr	r2, [r7, r2]
 2359 005a F250     		str	r2, [r6, r3]
 627:Middlewares/Third_Party/FreeRTOS/Source/CMSIS_RTOS_V2/cmsis_os2.c ****         thread_array[i] = (osThreadId_t)task[i].xHandle;
 2360              		.loc 1 627 0 discriminator 4
 2361 005c 0134     		adds	r4, r4, #1
 2362              	.LVL202:
 2363              	.L210:
 627:Middlewares/Third_Party/FreeRTOS/Source/CMSIS_RTOS_V2/cmsis_os2.c ****         thread_array[i] = (osThreadId_t)task[i].xHandle;
 2364              		.loc 1 627 0 is_stmt 0 discriminator 1
 2365 005e 8442     		cmp	r4, r0
 2366 0060 03D2     		bcs	.L209
 627:Middlewares/Third_Party/FreeRTOS/Source/CMSIS_RTOS_V2/cmsis_os2.c ****         thread_array[i] = (osThreadId_t)task[i].xHandle;
 2367              		.loc 1 627 0 discriminator 3
 2368 0062 AC42     		cmp	r4, r5
 2369 0064 F4D3     		bcc	.L211
 2370 0066 00E0     		b	.L209
 2371              	.LVL203:
 2372              	.L214:
 621:Middlewares/Third_Party/FreeRTOS/Source/CMSIS_RTOS_V2/cmsis_os2.c ****     task  = pvPortMalloc (count * sizeof(TaskStatus_t));
 2373              		.loc 1 621 0 is_stmt 1
 2374 0068 4446     		mov	r4, r8
 2375              	.LVL204:
 2376              	.L209:
 632:Middlewares/Third_Party/FreeRTOS/Source/CMSIS_RTOS_V2/cmsis_os2.c **** 
 2377              		.loc 1 632 0
 2378 006a FFF7FEFF 		bl	xTaskResumeAll
 2379              	.LVL205:
 634:Middlewares/Third_Party/FreeRTOS/Source/CMSIS_RTOS_V2/cmsis_os2.c ****   }
 2380              		.loc 1 634 0
 2381 006e 3800     		movs	r0, r7
 2382 0070 FFF7FEFF 		bl	vPortFree
 2383              	.LVL206:
 2384 0074 00E0     		b	.L206
 2385              	.LVL207:
 2386              	.L212:
 617:Middlewares/Third_Party/FreeRTOS/Source/CMSIS_RTOS_V2/cmsis_os2.c ****   } else {
 2387              		.loc 1 617 0
 2388 0076 0024     		movs	r4, #0
 2389              	.LVL208:
 2390              	.L206:
 638:Middlewares/Third_Party/FreeRTOS/Source/CMSIS_RTOS_V2/cmsis_os2.c **** 
 2391              		.loc 1 638 0
 2392 0078 2000     		movs	r0, r4
 2393              		@ sp needed
 2394              	.LVL209:
 2395              	.LVL210:
 2396 007a 04BC     		pop	{r2}
 2397 007c 9046     		mov	r8, r2
 2398 007e F0BD     		pop	{r4, r5, r6, r7, pc}
 2399              	.L217:
 2400              		.align	2
 2401              	.L216:
 2402 0080 00000000 		.word	.LANCHOR0
 2403              		.cfi_endproc
 2404              	.LFE50:
 2406              		.section	.text.osThreadFlagsSet,"ax",%progbits
 2407              		.align	1
ARM GAS  /tmp/ccJ2K96T.s 			page 69


 2408              		.global	osThreadFlagsSet
 2409              		.syntax unified
 2410              		.code	16
 2411              		.thumb_func
 2412              		.fpu softvfp
 2414              	osThreadFlagsSet:
 2415              	.LFB51:
 640:Middlewares/Third_Party/FreeRTOS/Source/CMSIS_RTOS_V2/cmsis_os2.c ****   TaskHandle_t hTask = (TaskHandle_t)thread_id;
 2416              		.loc 1 640 0
 2417              		.cfi_startproc
 2418              		@ args = 0, pretend = 0, frame = 8
 2419              		@ frame_needed = 0, uses_anonymous_args = 0
 2420              	.LVL211:
 2421 0000 30B5     		push	{r4, r5, lr}
 2422              	.LCFI25:
 2423              		.cfi_def_cfa_offset 12
 2424              		.cfi_offset 4, -12
 2425              		.cfi_offset 5, -8
 2426              		.cfi_offset 14, -4
 2427 0002 85B0     		sub	sp, sp, #20
 2428              	.LCFI26:
 2429              		.cfi_def_cfa_offset 32
 2430 0004 041E     		subs	r4, r0, #0
 2431              	.LVL212:
 645:Middlewares/Third_Party/FreeRTOS/Source/CMSIS_RTOS_V2/cmsis_os2.c ****     rflags = (uint32_t)osErrorParameter;
 2432              		.loc 1 645 0
 2433 0006 1CD0     		beq	.L219
 645:Middlewares/Third_Party/FreeRTOS/Source/CMSIS_RTOS_V2/cmsis_os2.c ****     rflags = (uint32_t)osErrorParameter;
 2434              		.loc 1 645 0 is_stmt 0 discriminator 1
 2435 0008 0029     		cmp	r1, #0
 2436 000a 1ADB     		blt	.L219
 649:Middlewares/Third_Party/FreeRTOS/Source/CMSIS_RTOS_V2/cmsis_os2.c **** 
 2437              		.loc 1 649 0 is_stmt 1
 2438 000c 0123     		movs	r3, #1
 2439 000e 5B42     		rsbs	r3, r3, #0
 2440 0010 0393     		str	r3, [sp, #12]
 2441              	.LBB294:
 2442              	.LBB295:
 209:Drivers/CMSIS/Include/cmsis_gcc.h ****   return(result);
 2443              		.loc 2 209 0
 2444              		.syntax divided
 2445              	@ 209 "Drivers/CMSIS/Include/cmsis_gcc.h" 1
 2446 0012 EFF30583 		MRS r3, ipsr
 2447              	@ 0 "" 2
 2448              		.thumb
 2449              		.syntax unified
 2450              	.LBE295:
 2451              	.LBE294:
 651:Middlewares/Third_Party/FreeRTOS/Source/CMSIS_RTOS_V2/cmsis_os2.c ****       yield = pdFALSE;
 2452              		.loc 1 651 0
 2453 0016 002B     		cmp	r3, #0
 2454 0018 19D1     		bne	.L222
 2455              	.LBB296:
 2456              	.LBB297:
 2457              		.loc 2 386 0
 2458              		.syntax divided
 2459              	@ 386 "Drivers/CMSIS/Include/cmsis_gcc.h" 1
ARM GAS  /tmp/ccJ2K96T.s 			page 70


 2460 001a EFF31083 		MRS r3, primask
 2461              	@ 0 "" 2
 2462              		.thumb
 2463              		.syntax unified
 2464              	.LBE297:
 2465              	.LBE296:
 651:Middlewares/Third_Party/FreeRTOS/Source/CMSIS_RTOS_V2/cmsis_os2.c ****       yield = pdFALSE;
 2466              		.loc 1 651 0
 2467 001e 002B     		cmp	r3, #0
 2468 0020 03D0     		beq	.L223
 651:Middlewares/Third_Party/FreeRTOS/Source/CMSIS_RTOS_V2/cmsis_os2.c ****       yield = pdFALSE;
 2469              		.loc 1 651 0 is_stmt 0 discriminator 2
 2470 0022 174B     		ldr	r3, .L224
 2471 0024 1B68     		ldr	r3, [r3]
 2472 0026 022B     		cmp	r3, #2
 2473 0028 11D0     		beq	.L222
 2474              	.L223:
 660:Middlewares/Third_Party/FreeRTOS/Source/CMSIS_RTOS_V2/cmsis_os2.c ****       (void)xTaskNotifyAndQuery (hTask, 0, eNoAction, &rflags);
 2475              		.loc 1 660 0 is_stmt 1
 2476 002a 0023     		movs	r3, #0
 2477 002c 0122     		movs	r2, #1
 2478 002e 2000     		movs	r0, r4
 2479              	.LVL213:
 2480 0030 FFF7FEFF 		bl	xTaskGenericNotify
 2481              	.LVL214:
 661:Middlewares/Third_Party/FreeRTOS/Source/CMSIS_RTOS_V2/cmsis_os2.c ****     }
 2482              		.loc 1 661 0
 2483 0034 03AB     		add	r3, sp, #12
 2484 0036 0022     		movs	r2, #0
 2485 0038 0021     		movs	r1, #0
 2486 003a 2000     		movs	r0, r4
 2487 003c FFF7FEFF 		bl	xTaskGenericNotify
 2488              	.LVL215:
 2489 0040 02E0     		b	.L221
 2490              	.LVL216:
 2491              	.L219:
 646:Middlewares/Third_Party/FreeRTOS/Source/CMSIS_RTOS_V2/cmsis_os2.c ****   }
 2492              		.loc 1 646 0
 2493 0042 0423     		movs	r3, #4
 2494 0044 5B42     		rsbs	r3, r3, #0
 2495 0046 0393     		str	r3, [sp, #12]
 2496              	.LVL217:
 2497              	.L221:
 666:Middlewares/Third_Party/FreeRTOS/Source/CMSIS_RTOS_V2/cmsis_os2.c **** 
 2498              		.loc 1 666 0
 2499 0048 0398     		ldr	r0, [sp, #12]
 2500 004a 05B0     		add	sp, sp, #20
 2501              		@ sp needed
 2502              	.LVL218:
 2503 004c 30BD     		pop	{r4, r5, pc}
 2504              	.LVL219:
 2505              	.L222:
 652:Middlewares/Third_Party/FreeRTOS/Source/CMSIS_RTOS_V2/cmsis_os2.c **** 
 2506              		.loc 1 652 0
 2507 004e 0025     		movs	r5, #0
 2508 0050 0295     		str	r5, [sp, #8]
 654:Middlewares/Third_Party/FreeRTOS/Source/CMSIS_RTOS_V2/cmsis_os2.c ****       (void)xTaskNotifyAndQueryFromISR (hTask, 0, eNoAction, &rflags, NULL);
ARM GAS  /tmp/ccJ2K96T.s 			page 71


 2509              		.loc 1 654 0
 2510 0052 02AB     		add	r3, sp, #8
 2511 0054 0093     		str	r3, [sp]
 2512 0056 0023     		movs	r3, #0
 2513 0058 0122     		movs	r2, #1
 2514 005a 2000     		movs	r0, r4
 2515              	.LVL220:
 2516 005c FFF7FEFF 		bl	xTaskGenericNotifyFromISR
 2517              	.LVL221:
 655:Middlewares/Third_Party/FreeRTOS/Source/CMSIS_RTOS_V2/cmsis_os2.c **** 
 2518              		.loc 1 655 0
 2519 0060 0095     		str	r5, [sp]
 2520 0062 03AB     		add	r3, sp, #12
 2521 0064 0022     		movs	r2, #0
 2522 0066 0021     		movs	r1, #0
 2523 0068 2000     		movs	r0, r4
 2524 006a FFF7FEFF 		bl	xTaskGenericNotifyFromISR
 2525              	.LVL222:
 657:Middlewares/Third_Party/FreeRTOS/Source/CMSIS_RTOS_V2/cmsis_os2.c ****     }
 2526              		.loc 1 657 0
 2527 006e 029B     		ldr	r3, [sp, #8]
 2528 0070 002B     		cmp	r3, #0
 2529 0072 E9D0     		beq	.L221
 657:Middlewares/Third_Party/FreeRTOS/Source/CMSIS_RTOS_V2/cmsis_os2.c ****     }
 2530              		.loc 1 657 0 is_stmt 0 discriminator 1
 2531 0074 034B     		ldr	r3, .L224+4
 2532 0076 8022     		movs	r2, #128
 2533 0078 5205     		lsls	r2, r2, #21
 2534 007a 1A60     		str	r2, [r3]
 2535 007c E4E7     		b	.L221
 2536              	.L225:
 2537 007e C046     		.align	2
 2538              	.L224:
 2539 0080 00000000 		.word	.LANCHOR0
 2540 0084 04ED00E0 		.word	-536810236
 2541              		.cfi_endproc
 2542              	.LFE51:
 2544              		.section	.text.osThreadFlagsClear,"ax",%progbits
 2545              		.align	1
 2546              		.global	osThreadFlagsClear
 2547              		.syntax unified
 2548              		.code	16
 2549              		.thumb_func
 2550              		.fpu softvfp
 2552              	osThreadFlagsClear:
 2553              	.LFB52:
 668:Middlewares/Third_Party/FreeRTOS/Source/CMSIS_RTOS_V2/cmsis_os2.c ****   TaskHandle_t hTask;
 2554              		.loc 1 668 0 is_stmt 1
 2555              		.cfi_startproc
 2556              		@ args = 0, pretend = 0, frame = 8
 2557              		@ frame_needed = 0, uses_anonymous_args = 0
 2558              	.LVL223:
 2559 0000 70B5     		push	{r4, r5, r6, lr}
 2560              	.LCFI27:
 2561              		.cfi_def_cfa_offset 16
 2562              		.cfi_offset 4, -16
 2563              		.cfi_offset 5, -12
ARM GAS  /tmp/ccJ2K96T.s 			page 72


 2564              		.cfi_offset 6, -8
 2565              		.cfi_offset 14, -4
 2566 0002 82B0     		sub	sp, sp, #8
 2567              	.LCFI28:
 2568              		.cfi_def_cfa_offset 24
 2569 0004 0500     		movs	r5, r0
 2570              	.LBB298:
 2571              	.LBB299:
 209:Drivers/CMSIS/Include/cmsis_gcc.h ****   return(result);
 2572              		.loc 2 209 0
 2573              		.syntax divided
 2574              	@ 209 "Drivers/CMSIS/Include/cmsis_gcc.h" 1
 2575 0006 EFF30583 		MRS r3, ipsr
 2576              	@ 0 "" 2
 2577              		.thumb
 2578              		.syntax unified
 2579              	.LBE299:
 2580              	.LBE298:
 672:Middlewares/Third_Party/FreeRTOS/Source/CMSIS_RTOS_V2/cmsis_os2.c ****     rflags = (uint32_t)osErrorISR;
 2581              		.loc 1 672 0
 2582 000a 002B     		cmp	r3, #0
 2583 000c 24D1     		bne	.L229
 2584              	.LBB300:
 2585              	.LBB301:
 2586              		.loc 2 386 0
 2587              		.syntax divided
 2588              	@ 386 "Drivers/CMSIS/Include/cmsis_gcc.h" 1
 2589 000e EFF31083 		MRS r3, primask
 2590              	@ 0 "" 2
 2591              		.thumb
 2592              		.syntax unified
 2593              	.LBE301:
 2594              	.LBE300:
 672:Middlewares/Third_Party/FreeRTOS/Source/CMSIS_RTOS_V2/cmsis_os2.c ****     rflags = (uint32_t)osErrorISR;
 2595              		.loc 1 672 0
 2596 0012 002B     		cmp	r3, #0
 2597 0014 03D0     		beq	.L228
 672:Middlewares/Third_Party/FreeRTOS/Source/CMSIS_RTOS_V2/cmsis_os2.c ****     rflags = (uint32_t)osErrorISR;
 2598              		.loc 1 672 0 is_stmt 0 discriminator 2
 2599 0016 164B     		ldr	r3, .L235
 2600 0018 1B68     		ldr	r3, [r3]
 2601 001a 022B     		cmp	r3, #2
 2602 001c 21D0     		beq	.L230
 2603              	.L228:
 675:Middlewares/Third_Party/FreeRTOS/Source/CMSIS_RTOS_V2/cmsis_os2.c ****     rflags = (uint32_t)osErrorParameter;
 2604              		.loc 1 675 0 is_stmt 1
 2605 001e 002D     		cmp	r5, #0
 2606 0020 22DB     		blt	.L231
 679:Middlewares/Third_Party/FreeRTOS/Source/CMSIS_RTOS_V2/cmsis_os2.c **** 
 2607              		.loc 1 679 0
 2608 0022 FFF7FEFF 		bl	xTaskGetCurrentTaskHandle
 2609              	.LVL224:
 2610 0026 0600     		movs	r6, r0
 2611              	.LVL225:
 681:Middlewares/Third_Party/FreeRTOS/Source/CMSIS_RTOS_V2/cmsis_os2.c ****       rflags = cflags;
 2612              		.loc 1 681 0
 2613 0028 01AB     		add	r3, sp, #4
ARM GAS  /tmp/ccJ2K96T.s 			page 73


 2614 002a 0022     		movs	r2, #0
 2615 002c 0021     		movs	r1, #0
 2616 002e FFF7FEFF 		bl	xTaskGenericNotify
 2617              	.LVL226:
 2618 0032 0128     		cmp	r0, #1
 2619 0034 02D0     		beq	.L234
 690:Middlewares/Third_Party/FreeRTOS/Source/CMSIS_RTOS_V2/cmsis_os2.c ****     }
 2620              		.loc 1 690 0
 2621 0036 0124     		movs	r4, #1
 2622 0038 6442     		rsbs	r4, r4, #0
 2623 003a 0FE0     		b	.L226
 2624              	.L234:
 682:Middlewares/Third_Party/FreeRTOS/Source/CMSIS_RTOS_V2/cmsis_os2.c ****       cflags &= ~flags;
 2625              		.loc 1 682 0
 2626 003c 019C     		ldr	r4, [sp, #4]
 2627              	.LVL227:
 683:Middlewares/Third_Party/FreeRTOS/Source/CMSIS_RTOS_V2/cmsis_os2.c **** 
 2628              		.loc 1 683 0
 2629 003e 2100     		movs	r1, r4
 2630 0040 A943     		bics	r1, r5
 2631 0042 0191     		str	r1, [sp, #4]
 685:Middlewares/Third_Party/FreeRTOS/Source/CMSIS_RTOS_V2/cmsis_os2.c ****         rflags = (uint32_t)osError;
 2632              		.loc 1 685 0
 2633 0044 0023     		movs	r3, #0
 2634 0046 0322     		movs	r2, #3
 2635 0048 3000     		movs	r0, r6
 2636 004a FFF7FEFF 		bl	xTaskGenericNotify
 2637              	.LVL228:
 2638 004e 0128     		cmp	r0, #1
 2639 0050 04D0     		beq	.L226
 686:Middlewares/Third_Party/FreeRTOS/Source/CMSIS_RTOS_V2/cmsis_os2.c ****       }
 2640              		.loc 1 686 0
 2641 0052 0124     		movs	r4, #1
 2642              	.LVL229:
 2643 0054 6442     		rsbs	r4, r4, #0
 2644              	.LVL230:
 695:Middlewares/Third_Party/FreeRTOS/Source/CMSIS_RTOS_V2/cmsis_os2.c **** }
 2645              		.loc 1 695 0
 2646 0056 01E0     		b	.L226
 2647              	.LVL231:
 2648              	.L229:
 673:Middlewares/Third_Party/FreeRTOS/Source/CMSIS_RTOS_V2/cmsis_os2.c ****   }
 2649              		.loc 1 673 0
 2650 0058 0624     		movs	r4, #6
 2651 005a 6442     		rsbs	r4, r4, #0
 2652              	.LVL232:
 2653              	.L226:
 696:Middlewares/Third_Party/FreeRTOS/Source/CMSIS_RTOS_V2/cmsis_os2.c **** 
 2654              		.loc 1 696 0
 2655 005c 2000     		movs	r0, r4
 2656 005e 02B0     		add	sp, sp, #8
 2657              		@ sp needed
 2658              	.LVL233:
 2659 0060 70BD     		pop	{r4, r5, r6, pc}
 2660              	.LVL234:
 2661              	.L230:
 673:Middlewares/Third_Party/FreeRTOS/Source/CMSIS_RTOS_V2/cmsis_os2.c ****   }
ARM GAS  /tmp/ccJ2K96T.s 			page 74


 2662              		.loc 1 673 0
 2663 0062 0624     		movs	r4, #6
 2664 0064 6442     		rsbs	r4, r4, #0
 2665 0066 F9E7     		b	.L226
 2666              	.L231:
 676:Middlewares/Third_Party/FreeRTOS/Source/CMSIS_RTOS_V2/cmsis_os2.c ****   }
 2667              		.loc 1 676 0
 2668 0068 0424     		movs	r4, #4
 2669 006a 6442     		rsbs	r4, r4, #0
 2670 006c F6E7     		b	.L226
 2671              	.L236:
 2672 006e C046     		.align	2
 2673              	.L235:
 2674 0070 00000000 		.word	.LANCHOR0
 2675              		.cfi_endproc
 2676              	.LFE52:
 2678              		.section	.text.osThreadFlagsGet,"ax",%progbits
 2679              		.align	1
 2680              		.global	osThreadFlagsGet
 2681              		.syntax unified
 2682              		.code	16
 2683              		.thumb_func
 2684              		.fpu softvfp
 2686              	osThreadFlagsGet:
 2687              	.LFB53:
 698:Middlewares/Third_Party/FreeRTOS/Source/CMSIS_RTOS_V2/cmsis_os2.c ****   TaskHandle_t hTask;
 2688              		.loc 1 698 0
 2689              		.cfi_startproc
 2690              		@ args = 0, pretend = 0, frame = 8
 2691              		@ frame_needed = 0, uses_anonymous_args = 0
 2692 0000 00B5     		push	{lr}
 2693              	.LCFI29:
 2694              		.cfi_def_cfa_offset 4
 2695              		.cfi_offset 14, -4
 2696 0002 83B0     		sub	sp, sp, #12
 2697              	.LCFI30:
 2698              		.cfi_def_cfa_offset 16
 2699              	.LBB302:
 2700              	.LBB303:
 209:Drivers/CMSIS/Include/cmsis_gcc.h ****   return(result);
 2701              		.loc 2 209 0
 2702              		.syntax divided
 2703              	@ 209 "Drivers/CMSIS/Include/cmsis_gcc.h" 1
 2704 0004 EFF30583 		MRS r3, ipsr
 2705              	@ 0 "" 2
 2706              		.thumb
 2707              		.syntax unified
 2708              	.LBE303:
 2709              	.LBE302:
 702:Middlewares/Third_Party/FreeRTOS/Source/CMSIS_RTOS_V2/cmsis_os2.c ****     rflags = (uint32_t)osErrorISR;
 2710              		.loc 1 702 0
 2711 0008 002B     		cmp	r3, #0
 2712 000a 14D1     		bne	.L238
 2713              	.LBB304:
 2714              	.LBB305:
 2715              		.loc 2 386 0
 2716              		.syntax divided
ARM GAS  /tmp/ccJ2K96T.s 			page 75


 2717              	@ 386 "Drivers/CMSIS/Include/cmsis_gcc.h" 1
 2718 000c EFF31083 		MRS r3, primask
 2719              	@ 0 "" 2
 2720              		.thumb
 2721              		.syntax unified
 2722              	.LBE305:
 2723              	.LBE304:
 702:Middlewares/Third_Party/FreeRTOS/Source/CMSIS_RTOS_V2/cmsis_os2.c ****     rflags = (uint32_t)osErrorISR;
 2724              		.loc 1 702 0
 2725 0010 002B     		cmp	r3, #0
 2726 0012 03D0     		beq	.L239
 702:Middlewares/Third_Party/FreeRTOS/Source/CMSIS_RTOS_V2/cmsis_os2.c ****     rflags = (uint32_t)osErrorISR;
 2727              		.loc 1 702 0 is_stmt 0 discriminator 2
 2728 0014 0B4B     		ldr	r3, .L241
 2729 0016 1B68     		ldr	r3, [r3]
 2730 0018 022B     		cmp	r3, #2
 2731 001a 0CD0     		beq	.L238
 2732              	.L239:
 706:Middlewares/Third_Party/FreeRTOS/Source/CMSIS_RTOS_V2/cmsis_os2.c **** 
 2733              		.loc 1 706 0 is_stmt 1
 2734 001c FFF7FEFF 		bl	xTaskGetCurrentTaskHandle
 2735              	.LVL235:
 708:Middlewares/Third_Party/FreeRTOS/Source/CMSIS_RTOS_V2/cmsis_os2.c ****       rflags = (uint32_t)osError;
 2736              		.loc 1 708 0
 2737 0020 01AB     		add	r3, sp, #4
 2738 0022 0022     		movs	r2, #0
 2739 0024 0021     		movs	r1, #0
 2740 0026 FFF7FEFF 		bl	xTaskGenericNotify
 2741              	.LVL236:
 2742 002a 0128     		cmp	r0, #1
 2743 002c 06D0     		beq	.L240
 709:Middlewares/Third_Party/FreeRTOS/Source/CMSIS_RTOS_V2/cmsis_os2.c ****     }
 2744              		.loc 1 709 0
 2745 002e 0123     		movs	r3, #1
 2746 0030 5B42     		rsbs	r3, r3, #0
 2747 0032 0193     		str	r3, [sp, #4]
 2748 0034 02E0     		b	.L240
 2749              	.L238:
 703:Middlewares/Third_Party/FreeRTOS/Source/CMSIS_RTOS_V2/cmsis_os2.c ****   }
 2750              		.loc 1 703 0
 2751 0036 0623     		movs	r3, #6
 2752 0038 5B42     		rsbs	r3, r3, #0
 2753 003a 0193     		str	r3, [sp, #4]
 2754              	.L240:
 714:Middlewares/Third_Party/FreeRTOS/Source/CMSIS_RTOS_V2/cmsis_os2.c **** 
 2755              		.loc 1 714 0
 2756 003c 0198     		ldr	r0, [sp, #4]
 2757 003e 03B0     		add	sp, sp, #12
 2758              		@ sp needed
 2759 0040 00BD     		pop	{pc}
 2760              	.L242:
 2761 0042 C046     		.align	2
 2762              	.L241:
 2763 0044 00000000 		.word	.LANCHOR0
 2764              		.cfi_endproc
 2765              	.LFE53:
 2767              		.section	.text.osThreadFlagsWait,"ax",%progbits
ARM GAS  /tmp/ccJ2K96T.s 			page 76


 2768              		.align	1
 2769              		.global	osThreadFlagsWait
 2770              		.syntax unified
 2771              		.code	16
 2772              		.thumb_func
 2773              		.fpu softvfp
 2775              	osThreadFlagsWait:
 2776              	.LFB54:
 716:Middlewares/Third_Party/FreeRTOS/Source/CMSIS_RTOS_V2/cmsis_os2.c ****   uint32_t rflags, nval;
 2777              		.loc 1 716 0
 2778              		.cfi_startproc
 2779              		@ args = 0, pretend = 0, frame = 16
 2780              		@ frame_needed = 0, uses_anonymous_args = 0
 2781              	.LVL237:
 2782 0000 F0B5     		push	{r4, r5, r6, r7, lr}
 2783              	.LCFI31:
 2784              		.cfi_def_cfa_offset 20
 2785              		.cfi_offset 4, -20
 2786              		.cfi_offset 5, -16
 2787              		.cfi_offset 6, -12
 2788              		.cfi_offset 7, -8
 2789              		.cfi_offset 14, -4
 2790 0002 DE46     		mov	lr, fp
 2791 0004 5746     		mov	r7, r10
 2792 0006 4E46     		mov	r6, r9
 2793 0008 C0B5     		push	{r6, r7, lr}
 2794              	.LCFI32:
 2795              		.cfi_def_cfa_offset 32
 2796              		.cfi_offset 9, -32
 2797              		.cfi_offset 10, -28
 2798              		.cfi_offset 11, -24
 2799 000a 84B0     		sub	sp, sp, #16
 2800              	.LCFI33:
 2801              		.cfi_def_cfa_offset 48
 2802 000c 8146     		mov	r9, r0
 2803 000e 8A46     		mov	r10, r1
 2804 0010 1700     		movs	r7, r2
 2805              	.LBB306:
 2806              	.LBB307:
 209:Drivers/CMSIS/Include/cmsis_gcc.h ****   return(result);
 2807              		.loc 2 209 0
 2808              		.syntax divided
 2809              	@ 209 "Drivers/CMSIS/Include/cmsis_gcc.h" 1
 2810 0012 EFF30585 		MRS r5, ipsr
 2811              	@ 0 "" 2
 2812              		.thumb
 2813              		.syntax unified
 2814              	.LBE307:
 2815              	.LBE306:
 722:Middlewares/Third_Party/FreeRTOS/Source/CMSIS_RTOS_V2/cmsis_os2.c ****     rflags = (uint32_t)osErrorISR;
 2816              		.loc 1 722 0
 2817 0016 002D     		cmp	r5, #0
 2818 0018 47D1     		bne	.L252
 2819              	.LBB308:
 2820              	.LBB309:
 2821              		.loc 2 386 0
 2822              		.syntax divided
ARM GAS  /tmp/ccJ2K96T.s 			page 77


 2823              	@ 386 "Drivers/CMSIS/Include/cmsis_gcc.h" 1
 2824 001a EFF31083 		MRS r3, primask
 2825              	@ 0 "" 2
 2826              		.thumb
 2827              		.syntax unified
 2828              	.LBE309:
 2829              	.LBE308:
 722:Middlewares/Third_Party/FreeRTOS/Source/CMSIS_RTOS_V2/cmsis_os2.c ****     rflags = (uint32_t)osErrorISR;
 2830              		.loc 1 722 0
 2831 001e 002B     		cmp	r3, #0
 2832 0020 03D0     		beq	.L245
 722:Middlewares/Third_Party/FreeRTOS/Source/CMSIS_RTOS_V2/cmsis_os2.c ****     rflags = (uint32_t)osErrorISR;
 2833              		.loc 1 722 0 is_stmt 0 discriminator 2
 2834 0022 2B4B     		ldr	r3, .L262
 2835 0024 1B68     		ldr	r3, [r3]
 2836 0026 022B     		cmp	r3, #2
 2837 0028 48D0     		beq	.L253
 2838              	.L245:
 725:Middlewares/Third_Party/FreeRTOS/Source/CMSIS_RTOS_V2/cmsis_os2.c ****     rflags = (uint32_t)osErrorParameter;
 2839              		.loc 1 725 0 is_stmt 1
 2840 002a 4B46     		mov	r3, r9
 2841 002c 002B     		cmp	r3, #0
 2842 002e 48DB     		blt	.L254
 729:Middlewares/Third_Party/FreeRTOS/Source/CMSIS_RTOS_V2/cmsis_os2.c ****       clear = 0U;
 2843              		.loc 1 729 0
 2844 0030 5346     		mov	r3, r10
 2845 0032 9B07     		lsls	r3, r3, #30
 2846 0034 05D5     		bpl	.L255
 730:Middlewares/Third_Party/FreeRTOS/Source/CMSIS_RTOS_V2/cmsis_os2.c ****     } else {
 2847              		.loc 1 730 0
 2848 0036 0195     		str	r5, [sp, #4]
 2849              	.L246:
 2850              	.LVL238:
 738:Middlewares/Third_Party/FreeRTOS/Source/CMSIS_RTOS_V2/cmsis_os2.c ****     do {
 2851              		.loc 1 738 0
 2852 0038 FFF7FEFF 		bl	xTaskGetTickCount
 2853              	.LVL239:
 2854 003c 8346     		mov	fp, r0
 2855              	.LVL240:
 736:Middlewares/Third_Party/FreeRTOS/Source/CMSIS_RTOS_V2/cmsis_os2.c **** 
 2856              		.loc 1 736 0
 2857 003e 3E00     		movs	r6, r7
 2858 0040 25E0     		b	.L251
 2859              	.LVL241:
 2860              	.L255:
 732:Middlewares/Third_Party/FreeRTOS/Source/CMSIS_RTOS_V2/cmsis_os2.c ****     }
 2861              		.loc 1 732 0
 2862 0042 4B46     		mov	r3, r9
 2863 0044 0193     		str	r3, [sp, #4]
 2864 0046 F7E7     		b	.L246
 2865              	.LVL242:
 2866              	.L261:
 743:Middlewares/Third_Party/FreeRTOS/Source/CMSIS_RTOS_V2/cmsis_os2.c ****         rflags |= nval;
 2867              		.loc 1 743 0
 2868 0048 4B46     		mov	r3, r9
 2869 004a 1D40     		ands	r5, r3
 2870              	.LVL243:
ARM GAS  /tmp/ccJ2K96T.s 			page 78


 744:Middlewares/Third_Party/FreeRTOS/Source/CMSIS_RTOS_V2/cmsis_os2.c **** 
 2871              		.loc 1 744 0
 2872 004c 039B     		ldr	r3, [sp, #12]
 2873 004e 1D43     		orrs	r5, r3
 2874              	.LVL244:
 746:Middlewares/Third_Party/FreeRTOS/Source/CMSIS_RTOS_V2/cmsis_os2.c ****           if ((flags & rflags) == flags) {
 2875              		.loc 1 746 0
 2876 0050 5346     		mov	r3, r10
 2877 0052 DB07     		lsls	r3, r3, #31
 2878 0054 0DD5     		bpl	.L248
 747:Middlewares/Third_Party/FreeRTOS/Source/CMSIS_RTOS_V2/cmsis_os2.c ****             break;
 2879              		.loc 1 747 0
 2880 0056 4B46     		mov	r3, r9
 2881 0058 2B40     		ands	r3, r5
 2882 005a 4B45     		cmp	r3, r9
 2883 005c 27D0     		beq	.L243
 750:Middlewares/Third_Party/FreeRTOS/Source/CMSIS_RTOS_V2/cmsis_os2.c ****               rflags = (uint32_t)osErrorResource;
 2884              		.loc 1 750 0
 2885 005e 002F     		cmp	r7, #0
 2886 0060 32D0     		beq	.L260
 2887              	.L249:
 768:Middlewares/Third_Party/FreeRTOS/Source/CMSIS_RTOS_V2/cmsis_os2.c **** 
 2888              		.loc 1 768 0
 2889 0062 FFF7FEFF 		bl	xTaskGetTickCount
 2890              	.LVL245:
 2891 0066 5B46     		mov	r3, fp
 2892 0068 C01A     		subs	r0, r0, r3
 2893              	.LVL246:
 770:Middlewares/Third_Party/FreeRTOS/Source/CMSIS_RTOS_V2/cmsis_os2.c ****           tout  = 0;
 2894              		.loc 1 770 0
 2895 006a 8642     		cmp	r6, r0
 2896 006c 09D3     		bcc	.L258
 2897              	.LVL247:
 773:Middlewares/Third_Party/FreeRTOS/Source/CMSIS_RTOS_V2/cmsis_os2.c ****         }
 2898              		.loc 1 773 0
 2899 006e 361A     		subs	r6, r6, r0
 2900              	.LVL248:
 2901 0070 0BE0     		b	.L250
 2902              	.LVL249:
 2903              	.L248:
 757:Middlewares/Third_Party/FreeRTOS/Source/CMSIS_RTOS_V2/cmsis_os2.c ****             break;
 2904              		.loc 1 757 0
 2905 0072 4B46     		mov	r3, r9
 2906 0074 1D42     		tst	r5, r3
 2907 0076 1AD1     		bne	.L243
 2908              	.LVL250:
 760:Middlewares/Third_Party/FreeRTOS/Source/CMSIS_RTOS_V2/cmsis_os2.c ****               rflags = (uint32_t)osErrorResource;
 2909              		.loc 1 760 0
 2910 0078 002F     		cmp	r7, #0
 2911 007a F2D1     		bne	.L249
 761:Middlewares/Third_Party/FreeRTOS/Source/CMSIS_RTOS_V2/cmsis_os2.c ****               break;
 2912              		.loc 1 761 0
 2913 007c 0325     		movs	r5, #3
 2914              	.LVL251:
 2915 007e 6D42     		rsbs	r5, r5, #0
 2916              	.LVL252:
 788:Middlewares/Third_Party/FreeRTOS/Source/CMSIS_RTOS_V2/cmsis_os2.c **** }
ARM GAS  /tmp/ccJ2K96T.s 			page 79


 2917              		.loc 1 788 0
 2918 0080 15E0     		b	.L243
 2919              	.LVL253:
 2920              	.L258:
 771:Middlewares/Third_Party/FreeRTOS/Source/CMSIS_RTOS_V2/cmsis_os2.c ****         } else {
 2921              		.loc 1 771 0
 2922 0082 0026     		movs	r6, #0
 2923              	.LVL254:
 2924 0084 01E0     		b	.L250
 2925              	.LVL255:
 2926              	.L259:
 780:Middlewares/Third_Party/FreeRTOS/Source/CMSIS_RTOS_V2/cmsis_os2.c ****         }
 2927              		.loc 1 780 0
 2928 0086 0225     		movs	r5, #2
 2929              	.LVL256:
 2930 0088 6D42     		rsbs	r5, r5, #0
 2931              	.LVL257:
 2932              	.L250:
 784:Middlewares/Third_Party/FreeRTOS/Source/CMSIS_RTOS_V2/cmsis_os2.c ****   }
 2933              		.loc 1 784 0
 2934 008a 002C     		cmp	r4, #0
 2935 008c 0FD0     		beq	.L243
 2936              	.LVL258:
 2937              	.L251:
 740:Middlewares/Third_Party/FreeRTOS/Source/CMSIS_RTOS_V2/cmsis_os2.c **** 
 2938              		.loc 1 740 0
 2939 008e 3300     		movs	r3, r6
 2940 0090 03AA     		add	r2, sp, #12
 2941 0092 0199     		ldr	r1, [sp, #4]
 2942 0094 0020     		movs	r0, #0
 2943 0096 FFF7FEFF 		bl	xTaskNotifyWait
 2944              	.LVL259:
 2945 009a 0400     		movs	r4, r0
 2946              	.LVL260:
 742:Middlewares/Third_Party/FreeRTOS/Source/CMSIS_RTOS_V2/cmsis_os2.c ****         rflags &= flags;
 2947              		.loc 1 742 0
 2948 009c 0128     		cmp	r0, #1
 2949 009e D3D0     		beq	.L261
 777:Middlewares/Third_Party/FreeRTOS/Source/CMSIS_RTOS_V2/cmsis_os2.c ****           rflags = (uint32_t)osErrorResource;
 2950              		.loc 1 777 0
 2951 00a0 002F     		cmp	r7, #0
 2952 00a2 F0D1     		bne	.L259
 778:Middlewares/Third_Party/FreeRTOS/Source/CMSIS_RTOS_V2/cmsis_os2.c ****         } else {
 2953              		.loc 1 778 0
 2954 00a4 0325     		movs	r5, #3
 2955              	.LVL261:
 2956 00a6 6D42     		rsbs	r5, r5, #0
 2957 00a8 EFE7     		b	.L250
 2958              	.LVL262:
 2959              	.L252:
 723:Middlewares/Third_Party/FreeRTOS/Source/CMSIS_RTOS_V2/cmsis_os2.c ****   }
 2960              		.loc 1 723 0
 2961 00aa 0625     		movs	r5, #6
 2962 00ac 6D42     		rsbs	r5, r5, #0
 2963              	.LVL263:
 2964              	.L243:
 789:Middlewares/Third_Party/FreeRTOS/Source/CMSIS_RTOS_V2/cmsis_os2.c **** 
ARM GAS  /tmp/ccJ2K96T.s 			page 80


 2965              		.loc 1 789 0
 2966 00ae 2800     		movs	r0, r5
 2967 00b0 04B0     		add	sp, sp, #16
 2968              		@ sp needed
 2969              	.LVL264:
 2970              	.LVL265:
 2971              	.LVL266:
 2972 00b2 1CBC     		pop	{r2, r3, r4}
 2973 00b4 9146     		mov	r9, r2
 2974 00b6 9A46     		mov	r10, r3
 2975 00b8 A346     		mov	fp, r4
 2976 00ba F0BD     		pop	{r4, r5, r6, r7, pc}
 2977              	.LVL267:
 2978              	.L253:
 723:Middlewares/Third_Party/FreeRTOS/Source/CMSIS_RTOS_V2/cmsis_os2.c ****   }
 2979              		.loc 1 723 0
 2980 00bc 0625     		movs	r5, #6
 2981 00be 6D42     		rsbs	r5, r5, #0
 2982 00c0 F5E7     		b	.L243
 2983              	.L254:
 726:Middlewares/Third_Party/FreeRTOS/Source/CMSIS_RTOS_V2/cmsis_os2.c ****   }
 2984              		.loc 1 726 0
 2985 00c2 0425     		movs	r5, #4
 2986 00c4 6D42     		rsbs	r5, r5, #0
 2987 00c6 F2E7     		b	.L243
 2988              	.LVL268:
 2989              	.L260:
 751:Middlewares/Third_Party/FreeRTOS/Source/CMSIS_RTOS_V2/cmsis_os2.c ****               break;
 2990              		.loc 1 751 0
 2991 00c8 0325     		movs	r5, #3
 2992              	.LVL269:
 2993 00ca 6D42     		rsbs	r5, r5, #0
 2994 00cc EFE7     		b	.L243
 2995              	.L263:
 2996 00ce C046     		.align	2
 2997              	.L262:
 2998 00d0 00000000 		.word	.LANCHOR0
 2999              		.cfi_endproc
 3000              	.LFE54:
 3002              		.section	.text.osDelay,"ax",%progbits
 3003              		.align	1
 3004              		.global	osDelay
 3005              		.syntax unified
 3006              		.code	16
 3007              		.thumb_func
 3008              		.fpu softvfp
 3010              	osDelay:
 3011              	.LFB55:
 791:Middlewares/Third_Party/FreeRTOS/Source/CMSIS_RTOS_V2/cmsis_os2.c ****   osStatus_t stat;
 3012              		.loc 1 791 0
 3013              		.cfi_startproc
 3014              		@ args = 0, pretend = 0, frame = 0
 3015              		@ frame_needed = 0, uses_anonymous_args = 0
 3016              	.LVL270:
 3017 0000 10B5     		push	{r4, lr}
 3018              	.LCFI34:
 3019              		.cfi_def_cfa_offset 8
ARM GAS  /tmp/ccJ2K96T.s 			page 81


 3020              		.cfi_offset 4, -8
 3021              		.cfi_offset 14, -4
 3022              	.LBB310:
 3023              	.LBB311:
 209:Drivers/CMSIS/Include/cmsis_gcc.h ****   return(result);
 3024              		.loc 2 209 0
 3025              		.syntax divided
 3026              	@ 209 "Drivers/CMSIS/Include/cmsis_gcc.h" 1
 3027 0002 EFF30583 		MRS r3, ipsr
 3028              	@ 0 "" 2
 3029              		.thumb
 3030              		.syntax unified
 3031              	.LBE311:
 3032              	.LBE310:
 794:Middlewares/Third_Party/FreeRTOS/Source/CMSIS_RTOS_V2/cmsis_os2.c ****     stat = osErrorISR;
 3033              		.loc 1 794 0
 3034 0006 002B     		cmp	r3, #0
 3035 0008 0FD1     		bne	.L267
 3036              	.LBB312:
 3037              	.LBB313:
 3038              		.loc 2 386 0
 3039              		.syntax divided
 3040              	@ 386 "Drivers/CMSIS/Include/cmsis_gcc.h" 1
 3041 000a EFF31083 		MRS r3, primask
 3042              	@ 0 "" 2
 3043              		.thumb
 3044              		.syntax unified
 3045              	.LBE313:
 3046              	.LBE312:
 794:Middlewares/Third_Party/FreeRTOS/Source/CMSIS_RTOS_V2/cmsis_os2.c ****     stat = osErrorISR;
 3047              		.loc 1 794 0
 3048 000e 002B     		cmp	r3, #0
 3049 0010 03D0     		beq	.L266
 794:Middlewares/Third_Party/FreeRTOS/Source/CMSIS_RTOS_V2/cmsis_os2.c ****     stat = osErrorISR;
 3050              		.loc 1 794 0 is_stmt 0 discriminator 2
 3051 0012 094B     		ldr	r3, .L271
 3052 0014 1B68     		ldr	r3, [r3]
 3053 0016 022B     		cmp	r3, #2
 3054 0018 0AD0     		beq	.L268
 3055              	.L266:
 3056              	.LVL271:
 800:Middlewares/Third_Party/FreeRTOS/Source/CMSIS_RTOS_V2/cmsis_os2.c ****       vTaskDelay(ticks);
 3057              		.loc 1 800 0 is_stmt 1
 3058 001a 0028     		cmp	r0, #0
 3059 001c 01D1     		bne	.L270
 798:Middlewares/Third_Party/FreeRTOS/Source/CMSIS_RTOS_V2/cmsis_os2.c **** 
 3060              		.loc 1 798 0
 3061 001e 0020     		movs	r0, #0
 3062              	.LVL272:
 3063              	.L264:
 806:Middlewares/Third_Party/FreeRTOS/Source/CMSIS_RTOS_V2/cmsis_os2.c **** 
 3064              		.loc 1 806 0
 3065              		@ sp needed
 3066 0020 10BD     		pop	{r4, pc}
 3067              	.LVL273:
 3068              	.L270:
 801:Middlewares/Third_Party/FreeRTOS/Source/CMSIS_RTOS_V2/cmsis_os2.c ****     }
ARM GAS  /tmp/ccJ2K96T.s 			page 82


 3069              		.loc 1 801 0
 3070 0022 FFF7FEFF 		bl	vTaskDelay
 3071              	.LVL274:
 798:Middlewares/Third_Party/FreeRTOS/Source/CMSIS_RTOS_V2/cmsis_os2.c **** 
 3072              		.loc 1 798 0
 3073 0026 0020     		movs	r0, #0
 3074 0028 FAE7     		b	.L264
 3075              	.LVL275:
 3076              	.L267:
 795:Middlewares/Third_Party/FreeRTOS/Source/CMSIS_RTOS_V2/cmsis_os2.c ****   }
 3077              		.loc 1 795 0
 3078 002a 0620     		movs	r0, #6
 3079              	.LVL276:
 3080 002c 4042     		rsbs	r0, r0, #0
 3081 002e F7E7     		b	.L264
 3082              	.LVL277:
 3083              	.L268:
 3084 0030 0620     		movs	r0, #6
 3085              	.LVL278:
 3086 0032 4042     		rsbs	r0, r0, #0
 3087 0034 F4E7     		b	.L264
 3088              	.L272:
 3089 0036 C046     		.align	2
 3090              	.L271:
 3091 0038 00000000 		.word	.LANCHOR0
 3092              		.cfi_endproc
 3093              	.LFE55:
 3095              		.section	.text.osDelayUntil,"ax",%progbits
 3096              		.align	1
 3097              		.global	osDelayUntil
 3098              		.syntax unified
 3099              		.code	16
 3100              		.thumb_func
 3101              		.fpu softvfp
 3103              	osDelayUntil:
 3104              	.LFB56:
 808:Middlewares/Third_Party/FreeRTOS/Source/CMSIS_RTOS_V2/cmsis_os2.c ****   TickType_t tcnt;
 3105              		.loc 1 808 0
 3106              		.cfi_startproc
 3107              		@ args = 0, pretend = 0, frame = 8
 3108              		@ frame_needed = 0, uses_anonymous_args = 0
 3109              	.LVL279:
 3110 0000 10B5     		push	{r4, lr}
 3111              	.LCFI35:
 3112              		.cfi_def_cfa_offset 8
 3113              		.cfi_offset 4, -8
 3114              		.cfi_offset 14, -4
 3115 0002 82B0     		sub	sp, sp, #8
 3116              	.LCFI36:
 3117              		.cfi_def_cfa_offset 16
 3118 0004 0400     		movs	r4, r0
 3119              	.LBB314:
 3120              	.LBB315:
 209:Drivers/CMSIS/Include/cmsis_gcc.h ****   return(result);
 3121              		.loc 2 209 0
 3122              		.syntax divided
 3123              	@ 209 "Drivers/CMSIS/Include/cmsis_gcc.h" 1
ARM GAS  /tmp/ccJ2K96T.s 			page 83


 3124 0006 EFF30583 		MRS r3, ipsr
 3125              	@ 0 "" 2
 3126              		.thumb
 3127              		.syntax unified
 3128              	.LBE315:
 3129              	.LBE314:
 812:Middlewares/Third_Party/FreeRTOS/Source/CMSIS_RTOS_V2/cmsis_os2.c ****     stat = osErrorISR;
 3130              		.loc 1 812 0
 3131 000a 002B     		cmp	r3, #0
 3132 000c 11D1     		bne	.L276
 3133              	.LBB316:
 3134              	.LBB317:
 3135              		.loc 2 386 0
 3136              		.syntax divided
 3137              	@ 386 "Drivers/CMSIS/Include/cmsis_gcc.h" 1
 3138 000e EFF31083 		MRS r3, primask
 3139              	@ 0 "" 2
 3140              		.thumb
 3141              		.syntax unified
 3142              	.LBE317:
 3143              	.LBE316:
 812:Middlewares/Third_Party/FreeRTOS/Source/CMSIS_RTOS_V2/cmsis_os2.c ****     stat = osErrorISR;
 3144              		.loc 1 812 0
 3145 0012 002B     		cmp	r3, #0
 3146 0014 03D0     		beq	.L275
 812:Middlewares/Third_Party/FreeRTOS/Source/CMSIS_RTOS_V2/cmsis_os2.c ****     stat = osErrorISR;
 3147              		.loc 1 812 0 is_stmt 0 discriminator 2
 3148 0016 0A4B     		ldr	r3, .L278
 3149 0018 1B68     		ldr	r3, [r3]
 3150 001a 022B     		cmp	r3, #2
 3151 001c 0CD0     		beq	.L277
 3152              	.L275:
 3153              	.LVL280:
 817:Middlewares/Third_Party/FreeRTOS/Source/CMSIS_RTOS_V2/cmsis_os2.c **** 
 3154              		.loc 1 817 0 is_stmt 1
 3155 001e FFF7FEFF 		bl	xTaskGetTickCount
 3156              	.LVL281:
 3157 0022 0190     		str	r0, [sp, #4]
 819:Middlewares/Third_Party/FreeRTOS/Source/CMSIS_RTOS_V2/cmsis_os2.c ****   }
 3158              		.loc 1 819 0
 3159 0024 211A     		subs	r1, r4, r0
 3160 0026 01A8     		add	r0, sp, #4
 3161 0028 FFF7FEFF 		bl	vTaskDelayUntil
 3162              	.LVL282:
 816:Middlewares/Third_Party/FreeRTOS/Source/CMSIS_RTOS_V2/cmsis_os2.c ****     tcnt = xTaskGetTickCount();
 3163              		.loc 1 816 0
 3164 002c 0020     		movs	r0, #0
 3165              	.LVL283:
 3166              	.L273:
 823:Middlewares/Third_Party/FreeRTOS/Source/CMSIS_RTOS_V2/cmsis_os2.c **** 
 3167              		.loc 1 823 0
 3168 002e 02B0     		add	sp, sp, #8
 3169              		@ sp needed
 3170              	.LVL284:
 3171 0030 10BD     		pop	{r4, pc}
 3172              	.LVL285:
 3173              	.L276:
ARM GAS  /tmp/ccJ2K96T.s 			page 84


 813:Middlewares/Third_Party/FreeRTOS/Source/CMSIS_RTOS_V2/cmsis_os2.c ****   }
 3174              		.loc 1 813 0
 3175 0032 0620     		movs	r0, #6
 3176              	.LVL286:
 3177 0034 4042     		rsbs	r0, r0, #0
 3178 0036 FAE7     		b	.L273
 3179              	.LVL287:
 3180              	.L277:
 3181 0038 0620     		movs	r0, #6
 3182              	.LVL288:
 3183 003a 4042     		rsbs	r0, r0, #0
 3184              	.LVL289:
 822:Middlewares/Third_Party/FreeRTOS/Source/CMSIS_RTOS_V2/cmsis_os2.c **** }
 3185              		.loc 1 822 0
 3186 003c F7E7     		b	.L273
 3187              	.L279:
 3188 003e C046     		.align	2
 3189              	.L278:
 3190 0040 00000000 		.word	.LANCHOR0
 3191              		.cfi_endproc
 3192              	.LFE56:
 3194              		.section	.text.osTimerNew,"ax",%progbits
 3195              		.align	1
 3196              		.global	osTimerNew
 3197              		.syntax unified
 3198              		.code	16
 3199              		.thumb_func
 3200              		.fpu softvfp
 3202              	osTimerNew:
 3203              	.LFB58:
 836:Middlewares/Third_Party/FreeRTOS/Source/CMSIS_RTOS_V2/cmsis_os2.c **** 
 837:Middlewares/Third_Party/FreeRTOS/Source/CMSIS_RTOS_V2/cmsis_os2.c **** osTimerId_t osTimerNew (osTimerFunc_t func, osTimerType_t type, void *argument, const osTimerAttr_t
 3204              		.loc 1 837 0
 3205              		.cfi_startproc
 3206              		@ args = 0, pretend = 0, frame = 0
 3207              		@ frame_needed = 0, uses_anonymous_args = 0
 3208              	.LVL290:
 3209 0000 F0B5     		push	{r4, r5, r6, r7, lr}
 3210              	.LCFI37:
 3211              		.cfi_def_cfa_offset 20
 3212              		.cfi_offset 4, -20
 3213              		.cfi_offset 5, -16
 3214              		.cfi_offset 6, -12
 3215              		.cfi_offset 7, -8
 3216              		.cfi_offset 14, -4
 3217 0002 83B0     		sub	sp, sp, #12
 3218              	.LCFI38:
 3219              		.cfi_def_cfa_offset 32
 3220 0004 0500     		movs	r5, r0
 3221 0006 0E00     		movs	r6, r1
 3222 0008 1700     		movs	r7, r2
 3223 000a 1C00     		movs	r4, r3
 3224              	.LVL291:
 3225              	.LBB318:
 3226              	.LBB319:
 209:Drivers/CMSIS/Include/cmsis_gcc.h ****   return(result);
 3227              		.loc 2 209 0
ARM GAS  /tmp/ccJ2K96T.s 			page 85


 3228              		.syntax divided
 3229              	@ 209 "Drivers/CMSIS/Include/cmsis_gcc.h" 1
 3230 000c EFF30583 		MRS r3, ipsr
 3231              	@ 0 "" 2
 3232              	.LVL292:
 3233              		.thumb
 3234              		.syntax unified
 3235              	.LBE319:
 3236              	.LBE318:
 838:Middlewares/Third_Party/FreeRTOS/Source/CMSIS_RTOS_V2/cmsis_os2.c ****   const char *name;
 839:Middlewares/Third_Party/FreeRTOS/Source/CMSIS_RTOS_V2/cmsis_os2.c ****   TimerHandle_t hTimer;
 840:Middlewares/Third_Party/FreeRTOS/Source/CMSIS_RTOS_V2/cmsis_os2.c ****   TimerCallback_t *callb;
 841:Middlewares/Third_Party/FreeRTOS/Source/CMSIS_RTOS_V2/cmsis_os2.c ****   UBaseType_t reload;
 842:Middlewares/Third_Party/FreeRTOS/Source/CMSIS_RTOS_V2/cmsis_os2.c ****   int32_t mem;
 843:Middlewares/Third_Party/FreeRTOS/Source/CMSIS_RTOS_V2/cmsis_os2.c **** 
 844:Middlewares/Third_Party/FreeRTOS/Source/CMSIS_RTOS_V2/cmsis_os2.c ****   hTimer = NULL;
 845:Middlewares/Third_Party/FreeRTOS/Source/CMSIS_RTOS_V2/cmsis_os2.c **** 
 846:Middlewares/Third_Party/FreeRTOS/Source/CMSIS_RTOS_V2/cmsis_os2.c ****   if (!IS_IRQ() && (func != NULL)) {
 3237              		.loc 1 846 0
 3238 0010 002B     		cmp	r3, #0
 3239 0012 3DD1     		bne	.L288
 3240              	.LBB320:
 3241              	.LBB321:
 3242              		.loc 2 386 0
 3243              		.syntax divided
 3244              	@ 386 "Drivers/CMSIS/Include/cmsis_gcc.h" 1
 3245 0014 EFF31083 		MRS r3, primask
 3246              	@ 0 "" 2
 3247              		.thumb
 3248              		.syntax unified
 3249              	.LBE321:
 3250              	.LBE320:
 3251              		.loc 1 846 0
 3252 0018 002B     		cmp	r3, #0
 3253 001a 03D0     		beq	.L282
 3254              		.loc 1 846 0 is_stmt 0 discriminator 3
 3255 001c 214B     		ldr	r3, .L298
 3256 001e 1B68     		ldr	r3, [r3]
 3257 0020 022B     		cmp	r3, #2
 3258 0022 37D0     		beq	.L289
 3259              	.L282:
 3260              		.loc 1 846 0 discriminator 4
 3261 0024 002D     		cmp	r5, #0
 3262 0026 37D0     		beq	.L290
 847:Middlewares/Third_Party/FreeRTOS/Source/CMSIS_RTOS_V2/cmsis_os2.c ****     /* Allocate memory to store callback function and argument */
 848:Middlewares/Third_Party/FreeRTOS/Source/CMSIS_RTOS_V2/cmsis_os2.c ****     callb = pvPortMalloc (sizeof(TimerCallback_t));
 3263              		.loc 1 848 0 is_stmt 1
 3264 0028 0820     		movs	r0, #8
 3265              	.LVL293:
 3266 002a FFF7FEFF 		bl	pvPortMalloc
 3267              	.LVL294:
 3268 002e 031E     		subs	r3, r0, #0
 3269              	.LVL295:
 849:Middlewares/Third_Party/FreeRTOS/Source/CMSIS_RTOS_V2/cmsis_os2.c **** 
 850:Middlewares/Third_Party/FreeRTOS/Source/CMSIS_RTOS_V2/cmsis_os2.c ****     if (callb != NULL) {
 3270              		.loc 1 850 0
 3271 0030 34D0     		beq	.L291
ARM GAS  /tmp/ccJ2K96T.s 			page 86


 851:Middlewares/Third_Party/FreeRTOS/Source/CMSIS_RTOS_V2/cmsis_os2.c ****       callb->func = func;
 3272              		.loc 1 851 0
 3273 0032 0560     		str	r5, [r0]
 852:Middlewares/Third_Party/FreeRTOS/Source/CMSIS_RTOS_V2/cmsis_os2.c ****       callb->arg  = argument;
 3274              		.loc 1 852 0
 3275 0034 4760     		str	r7, [r0, #4]
 853:Middlewares/Third_Party/FreeRTOS/Source/CMSIS_RTOS_V2/cmsis_os2.c **** 
 854:Middlewares/Third_Party/FreeRTOS/Source/CMSIS_RTOS_V2/cmsis_os2.c ****       if (type == osTimerOnce) {
 3276              		.loc 1 854 0
 3277 0036 002E     		cmp	r6, #0
 3278 0038 16D1     		bne	.L292
 855:Middlewares/Third_Party/FreeRTOS/Source/CMSIS_RTOS_V2/cmsis_os2.c ****         reload = pdFALSE;
 3279              		.loc 1 855 0
 3280 003a 0022     		movs	r2, #0
 3281              	.L283:
 3282              	.LVL296:
 856:Middlewares/Third_Party/FreeRTOS/Source/CMSIS_RTOS_V2/cmsis_os2.c ****       } else {
 857:Middlewares/Third_Party/FreeRTOS/Source/CMSIS_RTOS_V2/cmsis_os2.c ****         reload = pdTRUE;
 858:Middlewares/Third_Party/FreeRTOS/Source/CMSIS_RTOS_V2/cmsis_os2.c ****       }
 859:Middlewares/Third_Party/FreeRTOS/Source/CMSIS_RTOS_V2/cmsis_os2.c **** 
 860:Middlewares/Third_Party/FreeRTOS/Source/CMSIS_RTOS_V2/cmsis_os2.c ****       mem  = -1;
 861:Middlewares/Third_Party/FreeRTOS/Source/CMSIS_RTOS_V2/cmsis_os2.c ****       name = NULL;
 862:Middlewares/Third_Party/FreeRTOS/Source/CMSIS_RTOS_V2/cmsis_os2.c **** 
 863:Middlewares/Third_Party/FreeRTOS/Source/CMSIS_RTOS_V2/cmsis_os2.c ****       if (attr != NULL) {
 3283              		.loc 1 863 0
 3284 003c 002C     		cmp	r4, #0
 3285 003e 22D0     		beq	.L293
 864:Middlewares/Third_Party/FreeRTOS/Source/CMSIS_RTOS_V2/cmsis_os2.c ****         if (attr->name != NULL) {
 3286              		.loc 1 864 0
 3287 0040 2068     		ldr	r0, [r4]
 3288              	.LVL297:
 865:Middlewares/Third_Party/FreeRTOS/Source/CMSIS_RTOS_V2/cmsis_os2.c ****           name = attr->name;
 866:Middlewares/Third_Party/FreeRTOS/Source/CMSIS_RTOS_V2/cmsis_os2.c ****         }
 867:Middlewares/Third_Party/FreeRTOS/Source/CMSIS_RTOS_V2/cmsis_os2.c **** 
 868:Middlewares/Third_Party/FreeRTOS/Source/CMSIS_RTOS_V2/cmsis_os2.c ****         if ((attr->cb_mem != NULL) && (attr->cb_size >= sizeof(StaticTimer_t))) {
 3289              		.loc 1 868 0
 3290 0042 A168     		ldr	r1, [r4, #8]
 3291 0044 0029     		cmp	r1, #0
 3292 0046 02D0     		beq	.L286
 3293              		.loc 1 868 0 is_stmt 0 discriminator 1
 3294 0048 E568     		ldr	r5, [r4, #12]
 3295              	.LVL298:
 3296 004a 2F2D     		cmp	r5, #47
 3297 004c 14D8     		bhi	.L287
 3298              	.L286:
 869:Middlewares/Third_Party/FreeRTOS/Source/CMSIS_RTOS_V2/cmsis_os2.c ****           mem = 1;
 870:Middlewares/Third_Party/FreeRTOS/Source/CMSIS_RTOS_V2/cmsis_os2.c ****         }
 871:Middlewares/Third_Party/FreeRTOS/Source/CMSIS_RTOS_V2/cmsis_os2.c ****         else {
 872:Middlewares/Third_Party/FreeRTOS/Source/CMSIS_RTOS_V2/cmsis_os2.c ****           if ((attr->cb_mem == NULL) && (attr->cb_size == 0U)) {
 3299              		.loc 1 872 0 is_stmt 1
 3300 004e 0029     		cmp	r1, #0
 3301 0050 0CD0     		beq	.L297
 860:Middlewares/Third_Party/FreeRTOS/Source/CMSIS_RTOS_V2/cmsis_os2.c ****       name = NULL;
 3302              		.loc 1 860 0
 3303 0052 0121     		movs	r1, #1
 3304 0054 4942     		rsbs	r1, r1, #0
 3305              	.LVL299:
ARM GAS  /tmp/ccJ2K96T.s 			page 87


 3306              	.L284:
 873:Middlewares/Third_Party/FreeRTOS/Source/CMSIS_RTOS_V2/cmsis_os2.c ****             mem = 0;
 874:Middlewares/Third_Party/FreeRTOS/Source/CMSIS_RTOS_V2/cmsis_os2.c ****           }
 875:Middlewares/Third_Party/FreeRTOS/Source/CMSIS_RTOS_V2/cmsis_os2.c ****         }
 876:Middlewares/Third_Party/FreeRTOS/Source/CMSIS_RTOS_V2/cmsis_os2.c ****       }
 877:Middlewares/Third_Party/FreeRTOS/Source/CMSIS_RTOS_V2/cmsis_os2.c ****       else {
 878:Middlewares/Third_Party/FreeRTOS/Source/CMSIS_RTOS_V2/cmsis_os2.c ****         mem = 0;
 879:Middlewares/Third_Party/FreeRTOS/Source/CMSIS_RTOS_V2/cmsis_os2.c ****       }
 880:Middlewares/Third_Party/FreeRTOS/Source/CMSIS_RTOS_V2/cmsis_os2.c **** 
 881:Middlewares/Third_Party/FreeRTOS/Source/CMSIS_RTOS_V2/cmsis_os2.c ****       if (mem == 1) {
 882:Middlewares/Third_Party/FreeRTOS/Source/CMSIS_RTOS_V2/cmsis_os2.c ****         hTimer = xTimerCreateStatic (name, 1, reload, callb, TimerCallback, (StaticTimer_t *)attr->
 883:Middlewares/Third_Party/FreeRTOS/Source/CMSIS_RTOS_V2/cmsis_os2.c ****       }
 884:Middlewares/Third_Party/FreeRTOS/Source/CMSIS_RTOS_V2/cmsis_os2.c ****       else {
 885:Middlewares/Third_Party/FreeRTOS/Source/CMSIS_RTOS_V2/cmsis_os2.c ****         if (mem == 0) {
 3307              		.loc 1 885 0
 3308 0056 0029     		cmp	r1, #0
 3309 0058 22D1     		bne	.L296
 886:Middlewares/Third_Party/FreeRTOS/Source/CMSIS_RTOS_V2/cmsis_os2.c ****           hTimer = xTimerCreate (name, 1, reload, callb, TimerCallback);
 3310              		.loc 1 886 0
 3311 005a 1349     		ldr	r1, .L298+4
 3312 005c 0091     		str	r1, [sp]
 3313              	.LVL300:
 3314 005e 0121     		movs	r1, #1
 3315 0060 FFF7FEFF 		bl	xTimerCreate
 3316              	.LVL301:
 3317              	.L280:
 887:Middlewares/Third_Party/FreeRTOS/Source/CMSIS_RTOS_V2/cmsis_os2.c ****         }
 888:Middlewares/Third_Party/FreeRTOS/Source/CMSIS_RTOS_V2/cmsis_os2.c ****       }
 889:Middlewares/Third_Party/FreeRTOS/Source/CMSIS_RTOS_V2/cmsis_os2.c ****     }
 890:Middlewares/Third_Party/FreeRTOS/Source/CMSIS_RTOS_V2/cmsis_os2.c ****   }
 891:Middlewares/Third_Party/FreeRTOS/Source/CMSIS_RTOS_V2/cmsis_os2.c **** 
 892:Middlewares/Third_Party/FreeRTOS/Source/CMSIS_RTOS_V2/cmsis_os2.c ****   return ((osTimerId_t)hTimer);
 893:Middlewares/Third_Party/FreeRTOS/Source/CMSIS_RTOS_V2/cmsis_os2.c **** }
 3318              		.loc 1 893 0
 3319 0064 03B0     		add	sp, sp, #12
 3320              		@ sp needed
 3321              	.LVL302:
 3322              	.LVL303:
 3323 0066 F0BD     		pop	{r4, r5, r6, r7, pc}
 3324              	.LVL304:
 3325              	.L292:
 857:Middlewares/Third_Party/FreeRTOS/Source/CMSIS_RTOS_V2/cmsis_os2.c ****       }
 3326              		.loc 1 857 0
 3327 0068 0122     		movs	r2, #1
 3328 006a E7E7     		b	.L283
 3329              	.LVL305:
 3330              	.L297:
 872:Middlewares/Third_Party/FreeRTOS/Source/CMSIS_RTOS_V2/cmsis_os2.c ****             mem = 0;
 3331              		.loc 1 872 0 discriminator 1
 3332 006c E168     		ldr	r1, [r4, #12]
 3333 006e 0029     		cmp	r1, #0
 3334 0070 0CD0     		beq	.L295
 860:Middlewares/Third_Party/FreeRTOS/Source/CMSIS_RTOS_V2/cmsis_os2.c ****       name = NULL;
 3335              		.loc 1 860 0
 3336 0072 0121     		movs	r1, #1
 3337 0074 4942     		rsbs	r1, r1, #0
 3338 0076 EEE7     		b	.L284
ARM GAS  /tmp/ccJ2K96T.s 			page 88


 3339              	.L287:
 3340              	.LVL306:
 882:Middlewares/Third_Party/FreeRTOS/Source/CMSIS_RTOS_V2/cmsis_os2.c ****       }
 3341              		.loc 1 882 0
 3342 0078 0191     		str	r1, [sp, #4]
 3343              	.LVL307:
 3344 007a 0B49     		ldr	r1, .L298+4
 3345 007c 0091     		str	r1, [sp]
 3346 007e 0121     		movs	r1, #1
 3347 0080 FFF7FEFF 		bl	xTimerCreateStatic
 3348              	.LVL308:
 3349 0084 EEE7     		b	.L280
 3350              	.LVL309:
 3351              	.L293:
 878:Middlewares/Third_Party/FreeRTOS/Source/CMSIS_RTOS_V2/cmsis_os2.c ****       }
 3352              		.loc 1 878 0
 3353 0086 0021     		movs	r1, #0
 861:Middlewares/Third_Party/FreeRTOS/Source/CMSIS_RTOS_V2/cmsis_os2.c **** 
 3354              		.loc 1 861 0
 3355 0088 0020     		movs	r0, #0
 3356              	.LVL310:
 3357 008a E4E7     		b	.L284
 3358              	.LVL311:
 3359              	.L295:
 873:Middlewares/Third_Party/FreeRTOS/Source/CMSIS_RTOS_V2/cmsis_os2.c ****           }
 3360              		.loc 1 873 0
 3361 008c 0021     		movs	r1, #0
 3362 008e E2E7     		b	.L284
 3363              	.LVL312:
 3364              	.L288:
 844:Middlewares/Third_Party/FreeRTOS/Source/CMSIS_RTOS_V2/cmsis_os2.c **** 
 3365              		.loc 1 844 0
 3366 0090 0020     		movs	r0, #0
 3367              	.LVL313:
 3368 0092 E7E7     		b	.L280
 3369              	.LVL314:
 3370              	.L289:
 3371 0094 0020     		movs	r0, #0
 3372              	.LVL315:
 3373 0096 E5E7     		b	.L280
 3374              	.LVL316:
 3375              	.L290:
 3376 0098 0020     		movs	r0, #0
 3377              	.LVL317:
 3378 009a E3E7     		b	.L280
 3379              	.LVL318:
 3380              	.L291:
 3381 009c 0020     		movs	r0, #0
 3382              	.LVL319:
 3383 009e E1E7     		b	.L280
 3384              	.LVL320:
 3385              	.L296:
 3386 00a0 0020     		movs	r0, #0
 892:Middlewares/Third_Party/FreeRTOS/Source/CMSIS_RTOS_V2/cmsis_os2.c **** }
 3387              		.loc 1 892 0
 3388 00a2 DFE7     		b	.L280
 3389              	.L299:
ARM GAS  /tmp/ccJ2K96T.s 			page 89


 3390              		.align	2
 3391              	.L298:
 3392 00a4 00000000 		.word	.LANCHOR0
 3393 00a8 00000000 		.word	TimerCallback
 3394              		.cfi_endproc
 3395              	.LFE58:
 3397              		.section	.text.osTimerGetName,"ax",%progbits
 3398              		.align	1
 3399              		.global	osTimerGetName
 3400              		.syntax unified
 3401              		.code	16
 3402              		.thumb_func
 3403              		.fpu softvfp
 3405              	osTimerGetName:
 3406              	.LFB59:
 894:Middlewares/Third_Party/FreeRTOS/Source/CMSIS_RTOS_V2/cmsis_os2.c **** 
 895:Middlewares/Third_Party/FreeRTOS/Source/CMSIS_RTOS_V2/cmsis_os2.c **** const char *osTimerGetName (osTimerId_t timer_id) {
 3407              		.loc 1 895 0
 3408              		.cfi_startproc
 3409              		@ args = 0, pretend = 0, frame = 0
 3410              		@ frame_needed = 0, uses_anonymous_args = 0
 3411              	.LVL321:
 3412 0000 10B5     		push	{r4, lr}
 3413              	.LCFI39:
 3414              		.cfi_def_cfa_offset 8
 3415              		.cfi_offset 4, -8
 3416              		.cfi_offset 14, -4
 3417              	.LVL322:
 3418              	.LBB322:
 3419              	.LBB323:
 209:Drivers/CMSIS/Include/cmsis_gcc.h ****   return(result);
 3420              		.loc 2 209 0
 3421              		.syntax divided
 3422              	@ 209 "Drivers/CMSIS/Include/cmsis_gcc.h" 1
 3423 0002 EFF30583 		MRS r3, ipsr
 3424              	@ 0 "" 2
 3425              		.thumb
 3426              		.syntax unified
 3427              	.LBE323:
 3428              	.LBE322:
 896:Middlewares/Third_Party/FreeRTOS/Source/CMSIS_RTOS_V2/cmsis_os2.c ****   TimerHandle_t hTimer = (TimerHandle_t)timer_id;
 897:Middlewares/Third_Party/FreeRTOS/Source/CMSIS_RTOS_V2/cmsis_os2.c ****   const char *p;
 898:Middlewares/Third_Party/FreeRTOS/Source/CMSIS_RTOS_V2/cmsis_os2.c **** 
 899:Middlewares/Third_Party/FreeRTOS/Source/CMSIS_RTOS_V2/cmsis_os2.c ****   if (IS_IRQ() || (hTimer == NULL)) {
 3429              		.loc 1 899 0
 3430 0006 002B     		cmp	r3, #0
 3431 0008 0CD1     		bne	.L303
 3432              	.LBB324:
 3433              	.LBB325:
 3434              		.loc 2 386 0
 3435              		.syntax divided
 3436              	@ 386 "Drivers/CMSIS/Include/cmsis_gcc.h" 1
 3437 000a EFF31083 		MRS r3, primask
 3438              	@ 0 "" 2
 3439              		.thumb
 3440              		.syntax unified
 3441              	.LBE325:
ARM GAS  /tmp/ccJ2K96T.s 			page 90


 3442              	.LBE324:
 3443              		.loc 1 899 0
 3444 000e 002B     		cmp	r3, #0
 3445 0010 03D0     		beq	.L302
 3446              		.loc 1 899 0 is_stmt 0 discriminator 2
 3447 0012 074B     		ldr	r3, .L306
 3448 0014 1B68     		ldr	r3, [r3]
 3449 0016 022B     		cmp	r3, #2
 3450 0018 06D0     		beq	.L304
 3451              	.L302:
 3452              		.loc 1 899 0 discriminator 4
 3453 001a 0028     		cmp	r0, #0
 3454 001c 06D0     		beq	.L305
 900:Middlewares/Third_Party/FreeRTOS/Source/CMSIS_RTOS_V2/cmsis_os2.c ****     p = NULL;
 901:Middlewares/Third_Party/FreeRTOS/Source/CMSIS_RTOS_V2/cmsis_os2.c ****   } else {
 902:Middlewares/Third_Party/FreeRTOS/Source/CMSIS_RTOS_V2/cmsis_os2.c ****     p = pcTimerGetName (hTimer);
 3455              		.loc 1 902 0 is_stmt 1
 3456 001e FFF7FEFF 		bl	pcTimerGetName
 3457              	.LVL323:
 3458              	.L300:
 903:Middlewares/Third_Party/FreeRTOS/Source/CMSIS_RTOS_V2/cmsis_os2.c ****   }
 904:Middlewares/Third_Party/FreeRTOS/Source/CMSIS_RTOS_V2/cmsis_os2.c **** 
 905:Middlewares/Third_Party/FreeRTOS/Source/CMSIS_RTOS_V2/cmsis_os2.c ****   return (p);
 906:Middlewares/Third_Party/FreeRTOS/Source/CMSIS_RTOS_V2/cmsis_os2.c **** }
 3459              		.loc 1 906 0
 3460              		@ sp needed
 3461 0022 10BD     		pop	{r4, pc}
 3462              	.LVL324:
 3463              	.L303:
 900:Middlewares/Third_Party/FreeRTOS/Source/CMSIS_RTOS_V2/cmsis_os2.c ****     p = NULL;
 3464              		.loc 1 900 0
 3465 0024 0020     		movs	r0, #0
 3466              	.LVL325:
 3467 0026 FCE7     		b	.L300
 3468              	.LVL326:
 3469              	.L304:
 3470 0028 0020     		movs	r0, #0
 3471              	.LVL327:
 3472 002a FAE7     		b	.L300
 3473              	.LVL328:
 3474              	.L305:
 3475 002c 0020     		movs	r0, #0
 3476              	.LVL329:
 905:Middlewares/Third_Party/FreeRTOS/Source/CMSIS_RTOS_V2/cmsis_os2.c **** }
 3477              		.loc 1 905 0
 3478 002e F8E7     		b	.L300
 3479              	.L307:
 3480              		.align	2
 3481              	.L306:
 3482 0030 00000000 		.word	.LANCHOR0
 3483              		.cfi_endproc
 3484              	.LFE59:
 3486              		.section	.text.osTimerStart,"ax",%progbits
 3487              		.align	1
 3488              		.global	osTimerStart
 3489              		.syntax unified
 3490              		.code	16
ARM GAS  /tmp/ccJ2K96T.s 			page 91


 3491              		.thumb_func
 3492              		.fpu softvfp
 3494              	osTimerStart:
 3495              	.LFB60:
 907:Middlewares/Third_Party/FreeRTOS/Source/CMSIS_RTOS_V2/cmsis_os2.c **** 
 908:Middlewares/Third_Party/FreeRTOS/Source/CMSIS_RTOS_V2/cmsis_os2.c **** osStatus_t osTimerStart (osTimerId_t timer_id, uint32_t ticks) {
 3496              		.loc 1 908 0
 3497              		.cfi_startproc
 3498              		@ args = 0, pretend = 0, frame = 0
 3499              		@ frame_needed = 0, uses_anonymous_args = 0
 3500              	.LVL330:
 3501 0000 00B5     		push	{lr}
 3502              	.LCFI40:
 3503              		.cfi_def_cfa_offset 4
 3504              		.cfi_offset 14, -4
 3505 0002 83B0     		sub	sp, sp, #12
 3506              	.LCFI41:
 3507              		.cfi_def_cfa_offset 16
 3508              	.LVL331:
 3509              	.LBB326:
 3510              	.LBB327:
 209:Drivers/CMSIS/Include/cmsis_gcc.h ****   return(result);
 3511              		.loc 2 209 0
 3512              		.syntax divided
 3513              	@ 209 "Drivers/CMSIS/Include/cmsis_gcc.h" 1
 3514 0004 EFF30583 		MRS r3, ipsr
 3515              	@ 0 "" 2
 3516              		.thumb
 3517              		.syntax unified
 3518              	.LBE327:
 3519              	.LBE326:
 909:Middlewares/Third_Party/FreeRTOS/Source/CMSIS_RTOS_V2/cmsis_os2.c ****   TimerHandle_t hTimer = (TimerHandle_t)timer_id;
 910:Middlewares/Third_Party/FreeRTOS/Source/CMSIS_RTOS_V2/cmsis_os2.c ****   osStatus_t stat;
 911:Middlewares/Third_Party/FreeRTOS/Source/CMSIS_RTOS_V2/cmsis_os2.c **** 
 912:Middlewares/Third_Party/FreeRTOS/Source/CMSIS_RTOS_V2/cmsis_os2.c ****   if (IS_IRQ()) {
 3520              		.loc 1 912 0
 3521 0008 002B     		cmp	r3, #0
 3522 000a 14D1     		bne	.L311
 3523              	.LBB328:
 3524              	.LBB329:
 3525              		.loc 2 386 0
 3526              		.syntax divided
 3527              	@ 386 "Drivers/CMSIS/Include/cmsis_gcc.h" 1
 3528 000c EFF31083 		MRS r3, primask
 3529              	@ 0 "" 2
 3530              		.thumb
 3531              		.syntax unified
 3532              	.LBE329:
 3533              	.LBE328:
 3534              		.loc 1 912 0
 3535 0010 002B     		cmp	r3, #0
 3536 0012 03D0     		beq	.L310
 3537              		.loc 1 912 0 is_stmt 0 discriminator 2
 3538 0014 0E4B     		ldr	r3, .L315
 3539 0016 1B68     		ldr	r3, [r3]
 3540 0018 022B     		cmp	r3, #2
 3541 001a 0FD0     		beq	.L312
ARM GAS  /tmp/ccJ2K96T.s 			page 92


 3542              	.L310:
 913:Middlewares/Third_Party/FreeRTOS/Source/CMSIS_RTOS_V2/cmsis_os2.c ****     stat = osErrorISR;
 914:Middlewares/Third_Party/FreeRTOS/Source/CMSIS_RTOS_V2/cmsis_os2.c ****   }
 915:Middlewares/Third_Party/FreeRTOS/Source/CMSIS_RTOS_V2/cmsis_os2.c ****   else if (hTimer == NULL) {
 3543              		.loc 1 915 0 is_stmt 1
 3544 001c 0028     		cmp	r0, #0
 3545 001e 10D0     		beq	.L313
 916:Middlewares/Third_Party/FreeRTOS/Source/CMSIS_RTOS_V2/cmsis_os2.c ****     stat = osErrorParameter;
 917:Middlewares/Third_Party/FreeRTOS/Source/CMSIS_RTOS_V2/cmsis_os2.c ****   }
 918:Middlewares/Third_Party/FreeRTOS/Source/CMSIS_RTOS_V2/cmsis_os2.c ****   else {
 919:Middlewares/Third_Party/FreeRTOS/Source/CMSIS_RTOS_V2/cmsis_os2.c ****     if (xTimerChangePeriod (hTimer, ticks, 0) == pdPASS) {
 3546              		.loc 1 919 0
 3547 0020 0023     		movs	r3, #0
 3548 0022 0093     		str	r3, [sp]
 3549 0024 0A00     		movs	r2, r1
 3550 0026 0421     		movs	r1, #4
 3551              	.LVL332:
 3552 0028 FFF7FEFF 		bl	xTimerGenericCommand
 3553              	.LVL333:
 3554 002c 0128     		cmp	r0, #1
 3555 002e 0BD1     		bne	.L314
 920:Middlewares/Third_Party/FreeRTOS/Source/CMSIS_RTOS_V2/cmsis_os2.c ****       stat = osOK;
 3556              		.loc 1 920 0
 3557 0030 0020     		movs	r0, #0
 3558              	.L308:
 921:Middlewares/Third_Party/FreeRTOS/Source/CMSIS_RTOS_V2/cmsis_os2.c ****     } else {
 922:Middlewares/Third_Party/FreeRTOS/Source/CMSIS_RTOS_V2/cmsis_os2.c ****       stat = osErrorResource;
 923:Middlewares/Third_Party/FreeRTOS/Source/CMSIS_RTOS_V2/cmsis_os2.c ****     }
 924:Middlewares/Third_Party/FreeRTOS/Source/CMSIS_RTOS_V2/cmsis_os2.c ****   }
 925:Middlewares/Third_Party/FreeRTOS/Source/CMSIS_RTOS_V2/cmsis_os2.c **** 
 926:Middlewares/Third_Party/FreeRTOS/Source/CMSIS_RTOS_V2/cmsis_os2.c ****   return (stat);
 927:Middlewares/Third_Party/FreeRTOS/Source/CMSIS_RTOS_V2/cmsis_os2.c **** }
 3559              		.loc 1 927 0
 3560 0032 03B0     		add	sp, sp, #12
 3561              		@ sp needed
 3562 0034 00BD     		pop	{pc}
 3563              	.LVL334:
 3564              	.L311:
 913:Middlewares/Third_Party/FreeRTOS/Source/CMSIS_RTOS_V2/cmsis_os2.c ****   }
 3565              		.loc 1 913 0
 3566 0036 0620     		movs	r0, #6
 3567              	.LVL335:
 3568 0038 4042     		rsbs	r0, r0, #0
 3569 003a FAE7     		b	.L308
 3570              	.LVL336:
 3571              	.L312:
 3572 003c 0620     		movs	r0, #6
 3573              	.LVL337:
 3574 003e 4042     		rsbs	r0, r0, #0
 3575 0040 F7E7     		b	.L308
 3576              	.LVL338:
 3577              	.L313:
 916:Middlewares/Third_Party/FreeRTOS/Source/CMSIS_RTOS_V2/cmsis_os2.c ****   }
 3578              		.loc 1 916 0
 3579 0042 0420     		movs	r0, #4
 3580              	.LVL339:
 3581 0044 4042     		rsbs	r0, r0, #0
ARM GAS  /tmp/ccJ2K96T.s 			page 93


 3582 0046 F4E7     		b	.L308
 3583              	.LVL340:
 3584              	.L314:
 922:Middlewares/Third_Party/FreeRTOS/Source/CMSIS_RTOS_V2/cmsis_os2.c ****     }
 3585              		.loc 1 922 0
 3586 0048 0320     		movs	r0, #3
 3587 004a 4042     		rsbs	r0, r0, #0
 3588              	.LVL341:
 926:Middlewares/Third_Party/FreeRTOS/Source/CMSIS_RTOS_V2/cmsis_os2.c **** }
 3589              		.loc 1 926 0
 3590 004c F1E7     		b	.L308
 3591              	.L316:
 3592 004e C046     		.align	2
 3593              	.L315:
 3594 0050 00000000 		.word	.LANCHOR0
 3595              		.cfi_endproc
 3596              	.LFE60:
 3598              		.section	.text.osTimerStop,"ax",%progbits
 3599              		.align	1
 3600              		.global	osTimerStop
 3601              		.syntax unified
 3602              		.code	16
 3603              		.thumb_func
 3604              		.fpu softvfp
 3606              	osTimerStop:
 3607              	.LFB61:
 928:Middlewares/Third_Party/FreeRTOS/Source/CMSIS_RTOS_V2/cmsis_os2.c **** 
 929:Middlewares/Third_Party/FreeRTOS/Source/CMSIS_RTOS_V2/cmsis_os2.c **** osStatus_t osTimerStop (osTimerId_t timer_id) {
 3608              		.loc 1 929 0
 3609              		.cfi_startproc
 3610              		@ args = 0, pretend = 0, frame = 0
 3611              		@ frame_needed = 0, uses_anonymous_args = 0
 3612              	.LVL342:
 3613 0000 10B5     		push	{r4, lr}
 3614              	.LCFI42:
 3615              		.cfi_def_cfa_offset 8
 3616              		.cfi_offset 4, -8
 3617              		.cfi_offset 14, -4
 3618 0002 82B0     		sub	sp, sp, #8
 3619              	.LCFI43:
 3620              		.cfi_def_cfa_offset 16
 3621 0004 0400     		movs	r4, r0
 3622              	.LVL343:
 3623              	.LBB330:
 3624              	.LBB331:
 209:Drivers/CMSIS/Include/cmsis_gcc.h ****   return(result);
 3625              		.loc 2 209 0
 3626              		.syntax divided
 3627              	@ 209 "Drivers/CMSIS/Include/cmsis_gcc.h" 1
 3628 0006 EFF30583 		MRS r3, ipsr
 3629              	@ 0 "" 2
 3630              		.thumb
 3631              		.syntax unified
 3632              	.LBE331:
 3633              	.LBE330:
 930:Middlewares/Third_Party/FreeRTOS/Source/CMSIS_RTOS_V2/cmsis_os2.c ****   TimerHandle_t hTimer = (TimerHandle_t)timer_id;
 931:Middlewares/Third_Party/FreeRTOS/Source/CMSIS_RTOS_V2/cmsis_os2.c ****   osStatus_t stat;
ARM GAS  /tmp/ccJ2K96T.s 			page 94


 932:Middlewares/Third_Party/FreeRTOS/Source/CMSIS_RTOS_V2/cmsis_os2.c **** 
 933:Middlewares/Third_Party/FreeRTOS/Source/CMSIS_RTOS_V2/cmsis_os2.c ****   if (IS_IRQ()) {
 3634              		.loc 1 933 0
 3635 000a 002B     		cmp	r3, #0
 3636 000c 1AD1     		bne	.L320
 3637              	.LBB332:
 3638              	.LBB333:
 3639              		.loc 2 386 0
 3640              		.syntax divided
 3641              	@ 386 "Drivers/CMSIS/Include/cmsis_gcc.h" 1
 3642 000e EFF31083 		MRS r3, primask
 3643              	@ 0 "" 2
 3644              		.thumb
 3645              		.syntax unified
 3646              	.LBE333:
 3647              	.LBE332:
 3648              		.loc 1 933 0
 3649 0012 002B     		cmp	r3, #0
 3650 0014 03D0     		beq	.L319
 3651              		.loc 1 933 0 is_stmt 0 discriminator 2
 3652 0016 134B     		ldr	r3, .L325
 3653 0018 1B68     		ldr	r3, [r3]
 3654 001a 022B     		cmp	r3, #2
 3655 001c 15D0     		beq	.L321
 3656              	.L319:
 934:Middlewares/Third_Party/FreeRTOS/Source/CMSIS_RTOS_V2/cmsis_os2.c ****     stat = osErrorISR;
 935:Middlewares/Third_Party/FreeRTOS/Source/CMSIS_RTOS_V2/cmsis_os2.c ****   }
 936:Middlewares/Third_Party/FreeRTOS/Source/CMSIS_RTOS_V2/cmsis_os2.c ****   else if (hTimer == NULL) {
 3657              		.loc 1 936 0 is_stmt 1
 3658 001e 002C     		cmp	r4, #0
 3659 0020 16D0     		beq	.L322
 937:Middlewares/Third_Party/FreeRTOS/Source/CMSIS_RTOS_V2/cmsis_os2.c ****     stat = osErrorParameter;
 938:Middlewares/Third_Party/FreeRTOS/Source/CMSIS_RTOS_V2/cmsis_os2.c ****   }
 939:Middlewares/Third_Party/FreeRTOS/Source/CMSIS_RTOS_V2/cmsis_os2.c ****   else {
 940:Middlewares/Third_Party/FreeRTOS/Source/CMSIS_RTOS_V2/cmsis_os2.c ****     if (xTimerIsTimerActive (hTimer) == pdFALSE) {
 3660              		.loc 1 940 0
 3661 0022 2000     		movs	r0, r4
 3662              	.LVL344:
 3663 0024 FFF7FEFF 		bl	xTimerIsTimerActive
 3664              	.LVL345:
 3665 0028 0028     		cmp	r0, #0
 3666 002a 14D0     		beq	.L323
 941:Middlewares/Third_Party/FreeRTOS/Source/CMSIS_RTOS_V2/cmsis_os2.c ****       stat = osErrorResource;
 942:Middlewares/Third_Party/FreeRTOS/Source/CMSIS_RTOS_V2/cmsis_os2.c ****     }
 943:Middlewares/Third_Party/FreeRTOS/Source/CMSIS_RTOS_V2/cmsis_os2.c ****     else {
 944:Middlewares/Third_Party/FreeRTOS/Source/CMSIS_RTOS_V2/cmsis_os2.c ****       if (xTimerStop (hTimer, 0) == pdPASS) {
 3667              		.loc 1 944 0
 3668 002c 0023     		movs	r3, #0
 3669 002e 0093     		str	r3, [sp]
 3670 0030 0022     		movs	r2, #0
 3671 0032 0321     		movs	r1, #3
 3672 0034 2000     		movs	r0, r4
 3673 0036 FFF7FEFF 		bl	xTimerGenericCommand
 3674              	.LVL346:
 3675 003a 0128     		cmp	r0, #1
 3676 003c 0ED1     		bne	.L324
 945:Middlewares/Third_Party/FreeRTOS/Source/CMSIS_RTOS_V2/cmsis_os2.c ****         stat = osOK;
ARM GAS  /tmp/ccJ2K96T.s 			page 95


 3677              		.loc 1 945 0
 3678 003e 0020     		movs	r0, #0
 3679              	.L317:
 946:Middlewares/Third_Party/FreeRTOS/Source/CMSIS_RTOS_V2/cmsis_os2.c ****       } else {
 947:Middlewares/Third_Party/FreeRTOS/Source/CMSIS_RTOS_V2/cmsis_os2.c ****         stat = osError;
 948:Middlewares/Third_Party/FreeRTOS/Source/CMSIS_RTOS_V2/cmsis_os2.c ****       }
 949:Middlewares/Third_Party/FreeRTOS/Source/CMSIS_RTOS_V2/cmsis_os2.c ****     }
 950:Middlewares/Third_Party/FreeRTOS/Source/CMSIS_RTOS_V2/cmsis_os2.c ****   }
 951:Middlewares/Third_Party/FreeRTOS/Source/CMSIS_RTOS_V2/cmsis_os2.c **** 
 952:Middlewares/Third_Party/FreeRTOS/Source/CMSIS_RTOS_V2/cmsis_os2.c ****   return (stat);
 953:Middlewares/Third_Party/FreeRTOS/Source/CMSIS_RTOS_V2/cmsis_os2.c **** }
 3680              		.loc 1 953 0
 3681 0040 02B0     		add	sp, sp, #8
 3682              		@ sp needed
 3683              	.LVL347:
 3684 0042 10BD     		pop	{r4, pc}
 3685              	.LVL348:
 3686              	.L320:
 934:Middlewares/Third_Party/FreeRTOS/Source/CMSIS_RTOS_V2/cmsis_os2.c ****   }
 3687              		.loc 1 934 0
 3688 0044 0620     		movs	r0, #6
 3689              	.LVL349:
 3690 0046 4042     		rsbs	r0, r0, #0
 3691 0048 FAE7     		b	.L317
 3692              	.LVL350:
 3693              	.L321:
 3694 004a 0620     		movs	r0, #6
 3695              	.LVL351:
 3696 004c 4042     		rsbs	r0, r0, #0
 3697 004e F7E7     		b	.L317
 3698              	.LVL352:
 3699              	.L322:
 937:Middlewares/Third_Party/FreeRTOS/Source/CMSIS_RTOS_V2/cmsis_os2.c ****   }
 3700              		.loc 1 937 0
 3701 0050 0420     		movs	r0, #4
 3702              	.LVL353:
 3703 0052 4042     		rsbs	r0, r0, #0
 3704 0054 F4E7     		b	.L317
 3705              	.L323:
 941:Middlewares/Third_Party/FreeRTOS/Source/CMSIS_RTOS_V2/cmsis_os2.c ****     }
 3706              		.loc 1 941 0
 3707 0056 0320     		movs	r0, #3
 3708 0058 4042     		rsbs	r0, r0, #0
 3709 005a F1E7     		b	.L317
 3710              	.L324:
 947:Middlewares/Third_Party/FreeRTOS/Source/CMSIS_RTOS_V2/cmsis_os2.c ****       }
 3711              		.loc 1 947 0
 3712 005c 0120     		movs	r0, #1
 3713 005e 4042     		rsbs	r0, r0, #0
 3714              	.LVL354:
 952:Middlewares/Third_Party/FreeRTOS/Source/CMSIS_RTOS_V2/cmsis_os2.c **** }
 3715              		.loc 1 952 0
 3716 0060 EEE7     		b	.L317
 3717              	.L326:
 3718 0062 C046     		.align	2
 3719              	.L325:
 3720 0064 00000000 		.word	.LANCHOR0
ARM GAS  /tmp/ccJ2K96T.s 			page 96


 3721              		.cfi_endproc
 3722              	.LFE61:
 3724              		.section	.text.osTimerIsRunning,"ax",%progbits
 3725              		.align	1
 3726              		.global	osTimerIsRunning
 3727              		.syntax unified
 3728              		.code	16
 3729              		.thumb_func
 3730              		.fpu softvfp
 3732              	osTimerIsRunning:
 3733              	.LFB62:
 954:Middlewares/Third_Party/FreeRTOS/Source/CMSIS_RTOS_V2/cmsis_os2.c **** 
 955:Middlewares/Third_Party/FreeRTOS/Source/CMSIS_RTOS_V2/cmsis_os2.c **** uint32_t osTimerIsRunning (osTimerId_t timer_id) {
 3734              		.loc 1 955 0
 3735              		.cfi_startproc
 3736              		@ args = 0, pretend = 0, frame = 0
 3737              		@ frame_needed = 0, uses_anonymous_args = 0
 3738              	.LVL355:
 3739 0000 10B5     		push	{r4, lr}
 3740              	.LCFI44:
 3741              		.cfi_def_cfa_offset 8
 3742              		.cfi_offset 4, -8
 3743              		.cfi_offset 14, -4
 3744 0002 0300     		movs	r3, r0
 3745              	.LVL356:
 3746              	.LBB334:
 3747              	.LBB335:
 209:Drivers/CMSIS/Include/cmsis_gcc.h ****   return(result);
 3748              		.loc 2 209 0
 3749              		.syntax divided
 3750              	@ 209 "Drivers/CMSIS/Include/cmsis_gcc.h" 1
 3751 0004 EFF30580 		MRS r0, ipsr
 3752              	@ 0 "" 2
 3753              	.LVL357:
 3754              		.thumb
 3755              		.syntax unified
 3756              	.LBE335:
 3757              	.LBE334:
 956:Middlewares/Third_Party/FreeRTOS/Source/CMSIS_RTOS_V2/cmsis_os2.c ****   TimerHandle_t hTimer = (TimerHandle_t)timer_id;
 957:Middlewares/Third_Party/FreeRTOS/Source/CMSIS_RTOS_V2/cmsis_os2.c ****   uint32_t running;
 958:Middlewares/Third_Party/FreeRTOS/Source/CMSIS_RTOS_V2/cmsis_os2.c **** 
 959:Middlewares/Third_Party/FreeRTOS/Source/CMSIS_RTOS_V2/cmsis_os2.c ****   if (IS_IRQ() || (hTimer == NULL)) {
 3758              		.loc 1 959 0
 3759 0008 0028     		cmp	r0, #0
 3760 000a 0DD1     		bne	.L330
 3761              	.LBB336:
 3762              	.LBB337:
 3763              		.loc 2 386 0
 3764              		.syntax divided
 3765              	@ 386 "Drivers/CMSIS/Include/cmsis_gcc.h" 1
 3766 000c EFF31082 		MRS r2, primask
 3767              	@ 0 "" 2
 3768              		.thumb
 3769              		.syntax unified
 3770              	.LBE337:
 3771              	.LBE336:
 3772              		.loc 1 959 0
ARM GAS  /tmp/ccJ2K96T.s 			page 97


 3773 0010 002A     		cmp	r2, #0
 3774 0012 03D0     		beq	.L329
 3775              		.loc 1 959 0 is_stmt 0 discriminator 2
 3776 0014 054A     		ldr	r2, .L331
 3777 0016 1268     		ldr	r2, [r2]
 3778 0018 022A     		cmp	r2, #2
 3779 001a 06D0     		beq	.L327
 3780              	.L329:
 3781              		.loc 1 959 0 discriminator 4
 3782 001c 002B     		cmp	r3, #0
 3783 001e 04D0     		beq	.L327
 960:Middlewares/Third_Party/FreeRTOS/Source/CMSIS_RTOS_V2/cmsis_os2.c ****     running = 0U;
 961:Middlewares/Third_Party/FreeRTOS/Source/CMSIS_RTOS_V2/cmsis_os2.c ****   } else {
 962:Middlewares/Third_Party/FreeRTOS/Source/CMSIS_RTOS_V2/cmsis_os2.c ****     running = (uint32_t)xTimerIsTimerActive (hTimer);
 3784              		.loc 1 962 0 is_stmt 1
 3785 0020 1800     		movs	r0, r3
 3786 0022 FFF7FEFF 		bl	xTimerIsTimerActive
 3787              	.LVL358:
 3788 0026 00E0     		b	.L327
 3789              	.LVL359:
 3790              	.L330:
 960:Middlewares/Third_Party/FreeRTOS/Source/CMSIS_RTOS_V2/cmsis_os2.c ****     running = 0U;
 3791              		.loc 1 960 0
 3792 0028 0020     		movs	r0, #0
 3793              	.LVL360:
 3794              	.L327:
 963:Middlewares/Third_Party/FreeRTOS/Source/CMSIS_RTOS_V2/cmsis_os2.c ****   }
 964:Middlewares/Third_Party/FreeRTOS/Source/CMSIS_RTOS_V2/cmsis_os2.c **** 
 965:Middlewares/Third_Party/FreeRTOS/Source/CMSIS_RTOS_V2/cmsis_os2.c ****   return (running);
 966:Middlewares/Third_Party/FreeRTOS/Source/CMSIS_RTOS_V2/cmsis_os2.c **** }
 3795              		.loc 1 966 0
 3796              		@ sp needed
 3797 002a 10BD     		pop	{r4, pc}
 3798              	.L332:
 3799              		.align	2
 3800              	.L331:
 3801 002c 00000000 		.word	.LANCHOR0
 3802              		.cfi_endproc
 3803              	.LFE62:
 3805              		.section	.text.osTimerDelete,"ax",%progbits
 3806              		.align	1
 3807              		.global	osTimerDelete
 3808              		.syntax unified
 3809              		.code	16
 3810              		.thumb_func
 3811              		.fpu softvfp
 3813              	osTimerDelete:
 3814              	.LFB63:
 967:Middlewares/Third_Party/FreeRTOS/Source/CMSIS_RTOS_V2/cmsis_os2.c **** 
 968:Middlewares/Third_Party/FreeRTOS/Source/CMSIS_RTOS_V2/cmsis_os2.c **** osStatus_t osTimerDelete (osTimerId_t timer_id) {
 3815              		.loc 1 968 0
 3816              		.cfi_startproc
 3817              		@ args = 0, pretend = 0, frame = 0
 3818              		@ frame_needed = 0, uses_anonymous_args = 0
 3819              	.LVL361:
 3820 0000 30B5     		push	{r4, r5, lr}
 3821              	.LCFI45:
ARM GAS  /tmp/ccJ2K96T.s 			page 98


 3822              		.cfi_def_cfa_offset 12
 3823              		.cfi_offset 4, -12
 3824              		.cfi_offset 5, -8
 3825              		.cfi_offset 14, -4
 3826 0002 83B0     		sub	sp, sp, #12
 3827              	.LCFI46:
 3828              		.cfi_def_cfa_offset 24
 3829 0004 0400     		movs	r4, r0
 3830              	.LVL362:
 3831              	.LBB338:
 3832              	.LBB339:
 209:Drivers/CMSIS/Include/cmsis_gcc.h ****   return(result);
 3833              		.loc 2 209 0
 3834              		.syntax divided
 3835              	@ 209 "Drivers/CMSIS/Include/cmsis_gcc.h" 1
 3836 0006 EFF30583 		MRS r3, ipsr
 3837              	@ 0 "" 2
 3838              		.thumb
 3839              		.syntax unified
 3840              	.LBE339:
 3841              	.LBE338:
 969:Middlewares/Third_Party/FreeRTOS/Source/CMSIS_RTOS_V2/cmsis_os2.c ****   TimerHandle_t hTimer = (TimerHandle_t)timer_id;
 970:Middlewares/Third_Party/FreeRTOS/Source/CMSIS_RTOS_V2/cmsis_os2.c ****   osStatus_t stat;
 971:Middlewares/Third_Party/FreeRTOS/Source/CMSIS_RTOS_V2/cmsis_os2.c **** #ifndef USE_FreeRTOS_HEAP_1
 972:Middlewares/Third_Party/FreeRTOS/Source/CMSIS_RTOS_V2/cmsis_os2.c ****   TimerCallback_t *callb;
 973:Middlewares/Third_Party/FreeRTOS/Source/CMSIS_RTOS_V2/cmsis_os2.c **** 
 974:Middlewares/Third_Party/FreeRTOS/Source/CMSIS_RTOS_V2/cmsis_os2.c ****   if (IS_IRQ()) {
 3842              		.loc 1 974 0
 3843 000a 002B     		cmp	r3, #0
 3844 000c 1CD1     		bne	.L336
 3845              	.LBB340:
 3846              	.LBB341:
 3847              		.loc 2 386 0
 3848              		.syntax divided
 3849              	@ 386 "Drivers/CMSIS/Include/cmsis_gcc.h" 1
 3850 000e EFF31083 		MRS r3, primask
 3851              	@ 0 "" 2
 3852              		.thumb
 3853              		.syntax unified
 3854              	.LBE341:
 3855              	.LBE340:
 3856              		.loc 1 974 0
 3857 0012 002B     		cmp	r3, #0
 3858 0014 03D0     		beq	.L335
 3859              		.loc 1 974 0 is_stmt 0 discriminator 2
 3860 0016 124B     		ldr	r3, .L340
 3861 0018 1B68     		ldr	r3, [r3]
 3862 001a 022B     		cmp	r3, #2
 3863 001c 17D0     		beq	.L337
 3864              	.L335:
 975:Middlewares/Third_Party/FreeRTOS/Source/CMSIS_RTOS_V2/cmsis_os2.c ****     stat = osErrorISR;
 976:Middlewares/Third_Party/FreeRTOS/Source/CMSIS_RTOS_V2/cmsis_os2.c ****   }
 977:Middlewares/Third_Party/FreeRTOS/Source/CMSIS_RTOS_V2/cmsis_os2.c ****   else if (hTimer == NULL) {
 3865              		.loc 1 977 0 is_stmt 1
 3866 001e 002C     		cmp	r4, #0
 3867 0020 18D0     		beq	.L338
 978:Middlewares/Third_Party/FreeRTOS/Source/CMSIS_RTOS_V2/cmsis_os2.c ****     stat = osErrorParameter;
ARM GAS  /tmp/ccJ2K96T.s 			page 99


 979:Middlewares/Third_Party/FreeRTOS/Source/CMSIS_RTOS_V2/cmsis_os2.c ****   }
 980:Middlewares/Third_Party/FreeRTOS/Source/CMSIS_RTOS_V2/cmsis_os2.c ****   else {
 981:Middlewares/Third_Party/FreeRTOS/Source/CMSIS_RTOS_V2/cmsis_os2.c ****     callb = (TimerCallback_t *)pvTimerGetTimerID (hTimer);
 3868              		.loc 1 981 0
 3869 0022 2000     		movs	r0, r4
 3870              	.LVL363:
 3871 0024 FFF7FEFF 		bl	pvTimerGetTimerID
 3872              	.LVL364:
 3873 0028 0500     		movs	r5, r0
 3874              	.LVL365:
 982:Middlewares/Third_Party/FreeRTOS/Source/CMSIS_RTOS_V2/cmsis_os2.c **** 
 983:Middlewares/Third_Party/FreeRTOS/Source/CMSIS_RTOS_V2/cmsis_os2.c ****     if (xTimerDelete (hTimer, 0) == pdPASS) {
 3875              		.loc 1 983 0
 3876 002a 0023     		movs	r3, #0
 3877 002c 0093     		str	r3, [sp]
 3878 002e 0022     		movs	r2, #0
 3879 0030 0521     		movs	r1, #5
 3880 0032 2000     		movs	r0, r4
 3881              	.LVL366:
 3882 0034 FFF7FEFF 		bl	xTimerGenericCommand
 3883              	.LVL367:
 3884 0038 0128     		cmp	r0, #1
 3885 003a 0ED1     		bne	.L339
 984:Middlewares/Third_Party/FreeRTOS/Source/CMSIS_RTOS_V2/cmsis_os2.c ****       vPortFree (callb);
 3886              		.loc 1 984 0
 3887 003c 2800     		movs	r0, r5
 3888 003e FFF7FEFF 		bl	vPortFree
 3889              	.LVL368:
 985:Middlewares/Third_Party/FreeRTOS/Source/CMSIS_RTOS_V2/cmsis_os2.c ****       stat = osOK;
 3890              		.loc 1 985 0
 3891 0042 0020     		movs	r0, #0
 3892              	.LVL369:
 3893              	.L333:
 986:Middlewares/Third_Party/FreeRTOS/Source/CMSIS_RTOS_V2/cmsis_os2.c ****     } else {
 987:Middlewares/Third_Party/FreeRTOS/Source/CMSIS_RTOS_V2/cmsis_os2.c ****       stat = osErrorResource;
 988:Middlewares/Third_Party/FreeRTOS/Source/CMSIS_RTOS_V2/cmsis_os2.c ****     }
 989:Middlewares/Third_Party/FreeRTOS/Source/CMSIS_RTOS_V2/cmsis_os2.c ****   }
 990:Middlewares/Third_Party/FreeRTOS/Source/CMSIS_RTOS_V2/cmsis_os2.c **** #else
 991:Middlewares/Third_Party/FreeRTOS/Source/CMSIS_RTOS_V2/cmsis_os2.c ****   stat = osError;
 992:Middlewares/Third_Party/FreeRTOS/Source/CMSIS_RTOS_V2/cmsis_os2.c **** #endif
 993:Middlewares/Third_Party/FreeRTOS/Source/CMSIS_RTOS_V2/cmsis_os2.c **** 
 994:Middlewares/Third_Party/FreeRTOS/Source/CMSIS_RTOS_V2/cmsis_os2.c ****   return (stat);
 995:Middlewares/Third_Party/FreeRTOS/Source/CMSIS_RTOS_V2/cmsis_os2.c **** }
 3894              		.loc 1 995 0
 3895 0044 03B0     		add	sp, sp, #12
 3896              		@ sp needed
 3897              	.LVL370:
 3898 0046 30BD     		pop	{r4, r5, pc}
 3899              	.LVL371:
 3900              	.L336:
 975:Middlewares/Third_Party/FreeRTOS/Source/CMSIS_RTOS_V2/cmsis_os2.c ****   }
 3901              		.loc 1 975 0
 3902 0048 0620     		movs	r0, #6
 3903              	.LVL372:
 3904 004a 4042     		rsbs	r0, r0, #0
 3905 004c FAE7     		b	.L333
 3906              	.LVL373:
ARM GAS  /tmp/ccJ2K96T.s 			page 100


 3907              	.L337:
 3908 004e 0620     		movs	r0, #6
 3909              	.LVL374:
 3910 0050 4042     		rsbs	r0, r0, #0
 3911 0052 F7E7     		b	.L333
 3912              	.LVL375:
 3913              	.L338:
 978:Middlewares/Third_Party/FreeRTOS/Source/CMSIS_RTOS_V2/cmsis_os2.c ****   }
 3914              		.loc 1 978 0
 3915 0054 0420     		movs	r0, #4
 3916              	.LVL376:
 3917 0056 4042     		rsbs	r0, r0, #0
 3918 0058 F4E7     		b	.L333
 3919              	.LVL377:
 3920              	.L339:
 987:Middlewares/Third_Party/FreeRTOS/Source/CMSIS_RTOS_V2/cmsis_os2.c ****     }
 3921              		.loc 1 987 0
 3922 005a 0320     		movs	r0, #3
 3923 005c 4042     		rsbs	r0, r0, #0
 3924              	.LVL378:
 994:Middlewares/Third_Party/FreeRTOS/Source/CMSIS_RTOS_V2/cmsis_os2.c **** }
 3925              		.loc 1 994 0
 3926 005e F1E7     		b	.L333
 3927              	.L341:
 3928              		.align	2
 3929              	.L340:
 3930 0060 00000000 		.word	.LANCHOR0
 3931              		.cfi_endproc
 3932              	.LFE63:
 3934              		.section	.text.osEventFlagsNew,"ax",%progbits
 3935              		.align	1
 3936              		.global	osEventFlagsNew
 3937              		.syntax unified
 3938              		.code	16
 3939              		.thumb_func
 3940              		.fpu softvfp
 3942              	osEventFlagsNew:
 3943              	.LFB64:
 996:Middlewares/Third_Party/FreeRTOS/Source/CMSIS_RTOS_V2/cmsis_os2.c **** 
 997:Middlewares/Third_Party/FreeRTOS/Source/CMSIS_RTOS_V2/cmsis_os2.c **** /*---------------------------------------------------------------------------*/
 998:Middlewares/Third_Party/FreeRTOS/Source/CMSIS_RTOS_V2/cmsis_os2.c **** 
 999:Middlewares/Third_Party/FreeRTOS/Source/CMSIS_RTOS_V2/cmsis_os2.c **** osEventFlagsId_t osEventFlagsNew (const osEventFlagsAttr_t *attr) {
 3944              		.loc 1 999 0
 3945              		.cfi_startproc
 3946              		@ args = 0, pretend = 0, frame = 0
 3947              		@ frame_needed = 0, uses_anonymous_args = 0
 3948              	.LVL379:
 3949 0000 10B5     		push	{r4, lr}
 3950              	.LCFI47:
 3951              		.cfi_def_cfa_offset 8
 3952              		.cfi_offset 4, -8
 3953              		.cfi_offset 14, -4
 3954              	.LVL380:
 3955              	.LBB342:
 3956              	.LBB343:
 209:Drivers/CMSIS/Include/cmsis_gcc.h ****   return(result);
 3957              		.loc 2 209 0
ARM GAS  /tmp/ccJ2K96T.s 			page 101


 3958              		.syntax divided
 3959              	@ 209 "Drivers/CMSIS/Include/cmsis_gcc.h" 1
 3960 0002 EFF30583 		MRS r3, ipsr
 3961              	@ 0 "" 2
 3962              		.thumb
 3963              		.syntax unified
 3964              	.LBE343:
 3965              	.LBE342:
1000:Middlewares/Third_Party/FreeRTOS/Source/CMSIS_RTOS_V2/cmsis_os2.c ****   EventGroupHandle_t hEventGroup;
1001:Middlewares/Third_Party/FreeRTOS/Source/CMSIS_RTOS_V2/cmsis_os2.c ****   int32_t mem;
1002:Middlewares/Third_Party/FreeRTOS/Source/CMSIS_RTOS_V2/cmsis_os2.c **** 
1003:Middlewares/Third_Party/FreeRTOS/Source/CMSIS_RTOS_V2/cmsis_os2.c ****   hEventGroup = NULL;
1004:Middlewares/Third_Party/FreeRTOS/Source/CMSIS_RTOS_V2/cmsis_os2.c **** 
1005:Middlewares/Third_Party/FreeRTOS/Source/CMSIS_RTOS_V2/cmsis_os2.c ****   if (!IS_IRQ()) {
 3966              		.loc 1 1005 0
 3967 0006 002B     		cmp	r3, #0
 3968 0008 26D1     		bne	.L348
 3969              	.LBB344:
 3970              	.LBB345:
 3971              		.loc 2 386 0
 3972              		.syntax divided
 3973              	@ 386 "Drivers/CMSIS/Include/cmsis_gcc.h" 1
 3974 000a EFF31083 		MRS r3, primask
 3975              	@ 0 "" 2
 3976              		.thumb
 3977              		.syntax unified
 3978              	.LBE345:
 3979              	.LBE344:
 3980              		.loc 1 1005 0
 3981 000e 002B     		cmp	r3, #0
 3982 0010 03D0     		beq	.L344
 3983              		.loc 1 1005 0 is_stmt 0 discriminator 2
 3984 0012 144B     		ldr	r3, .L355
 3985 0014 1B68     		ldr	r3, [r3]
 3986 0016 022B     		cmp	r3, #2
 3987 0018 20D0     		beq	.L349
 3988              	.L344:
 3989              	.LVL381:
1006:Middlewares/Third_Party/FreeRTOS/Source/CMSIS_RTOS_V2/cmsis_os2.c ****     mem = -1;
1007:Middlewares/Third_Party/FreeRTOS/Source/CMSIS_RTOS_V2/cmsis_os2.c **** 
1008:Middlewares/Third_Party/FreeRTOS/Source/CMSIS_RTOS_V2/cmsis_os2.c ****     if (attr != NULL) {
 3990              		.loc 1 1008 0 is_stmt 1
 3991 001a 0028     		cmp	r0, #0
 3992 001c 18D0     		beq	.L350
1009:Middlewares/Third_Party/FreeRTOS/Source/CMSIS_RTOS_V2/cmsis_os2.c ****       if ((attr->cb_mem != NULL) && (attr->cb_size >= sizeof(StaticEventGroup_t))) {
 3993              		.loc 1 1009 0
 3994 001e 8368     		ldr	r3, [r0, #8]
 3995 0020 002B     		cmp	r3, #0
 3996 0022 02D0     		beq	.L346
 3997              		.loc 1 1009 0 is_stmt 0 discriminator 1
 3998 0024 C268     		ldr	r2, [r0, #12]
 3999 0026 1F2A     		cmp	r2, #31
 4000 0028 0ED8     		bhi	.L347
 4001              	.L346:
1010:Middlewares/Third_Party/FreeRTOS/Source/CMSIS_RTOS_V2/cmsis_os2.c ****         mem = 1;
1011:Middlewares/Third_Party/FreeRTOS/Source/CMSIS_RTOS_V2/cmsis_os2.c ****       }
1012:Middlewares/Third_Party/FreeRTOS/Source/CMSIS_RTOS_V2/cmsis_os2.c ****       else {
ARM GAS  /tmp/ccJ2K96T.s 			page 102


1013:Middlewares/Third_Party/FreeRTOS/Source/CMSIS_RTOS_V2/cmsis_os2.c ****         if ((attr->cb_mem == NULL) && (attr->cb_size == 0U)) {
 4002              		.loc 1 1013 0 is_stmt 1
 4003 002a 002B     		cmp	r3, #0
 4004 002c 06D0     		beq	.L354
1006:Middlewares/Third_Party/FreeRTOS/Source/CMSIS_RTOS_V2/cmsis_os2.c **** 
 4005              		.loc 1 1006 0
 4006 002e 0123     		movs	r3, #1
 4007 0030 5B42     		rsbs	r3, r3, #0
 4008              	.L345:
1014:Middlewares/Third_Party/FreeRTOS/Source/CMSIS_RTOS_V2/cmsis_os2.c ****           mem = 0;
1015:Middlewares/Third_Party/FreeRTOS/Source/CMSIS_RTOS_V2/cmsis_os2.c ****         }
1016:Middlewares/Third_Party/FreeRTOS/Source/CMSIS_RTOS_V2/cmsis_os2.c ****       }
1017:Middlewares/Third_Party/FreeRTOS/Source/CMSIS_RTOS_V2/cmsis_os2.c ****     }
1018:Middlewares/Third_Party/FreeRTOS/Source/CMSIS_RTOS_V2/cmsis_os2.c ****     else {
1019:Middlewares/Third_Party/FreeRTOS/Source/CMSIS_RTOS_V2/cmsis_os2.c ****       mem = 0;
1020:Middlewares/Third_Party/FreeRTOS/Source/CMSIS_RTOS_V2/cmsis_os2.c ****     }
1021:Middlewares/Third_Party/FreeRTOS/Source/CMSIS_RTOS_V2/cmsis_os2.c **** 
1022:Middlewares/Third_Party/FreeRTOS/Source/CMSIS_RTOS_V2/cmsis_os2.c ****     if (mem == 1) {
1023:Middlewares/Third_Party/FreeRTOS/Source/CMSIS_RTOS_V2/cmsis_os2.c ****       hEventGroup = xEventGroupCreateStatic (attr->cb_mem);
1024:Middlewares/Third_Party/FreeRTOS/Source/CMSIS_RTOS_V2/cmsis_os2.c ****     }
1025:Middlewares/Third_Party/FreeRTOS/Source/CMSIS_RTOS_V2/cmsis_os2.c ****     else {
1026:Middlewares/Third_Party/FreeRTOS/Source/CMSIS_RTOS_V2/cmsis_os2.c ****       if (mem == 0) {
 4009              		.loc 1 1026 0
 4010 0032 002B     		cmp	r3, #0
 4011 0034 14D1     		bne	.L353
1027:Middlewares/Third_Party/FreeRTOS/Source/CMSIS_RTOS_V2/cmsis_os2.c ****         hEventGroup = xEventGroupCreate();
 4012              		.loc 1 1027 0
 4013 0036 FFF7FEFF 		bl	xEventGroupCreate
 4014              	.LVL382:
 4015              	.L342:
1028:Middlewares/Third_Party/FreeRTOS/Source/CMSIS_RTOS_V2/cmsis_os2.c ****       }
1029:Middlewares/Third_Party/FreeRTOS/Source/CMSIS_RTOS_V2/cmsis_os2.c ****     }
1030:Middlewares/Third_Party/FreeRTOS/Source/CMSIS_RTOS_V2/cmsis_os2.c ****   }
1031:Middlewares/Third_Party/FreeRTOS/Source/CMSIS_RTOS_V2/cmsis_os2.c **** 
1032:Middlewares/Third_Party/FreeRTOS/Source/CMSIS_RTOS_V2/cmsis_os2.c ****   return ((osEventFlagsId_t)hEventGroup);
1033:Middlewares/Third_Party/FreeRTOS/Source/CMSIS_RTOS_V2/cmsis_os2.c **** }
 4016              		.loc 1 1033 0
 4017              		@ sp needed
 4018 003a 10BD     		pop	{r4, pc}
 4019              	.LVL383:
 4020              	.L354:
1013:Middlewares/Third_Party/FreeRTOS/Source/CMSIS_RTOS_V2/cmsis_os2.c ****           mem = 0;
 4021              		.loc 1 1013 0 discriminator 1
 4022 003c C368     		ldr	r3, [r0, #12]
 4023 003e 002B     		cmp	r3, #0
 4024 0040 08D0     		beq	.L352
1006:Middlewares/Third_Party/FreeRTOS/Source/CMSIS_RTOS_V2/cmsis_os2.c **** 
 4025              		.loc 1 1006 0
 4026 0042 0123     		movs	r3, #1
 4027 0044 5B42     		rsbs	r3, r3, #0
 4028 0046 F4E7     		b	.L345
 4029              	.L347:
 4030              	.LVL384:
1023:Middlewares/Third_Party/FreeRTOS/Source/CMSIS_RTOS_V2/cmsis_os2.c ****     }
 4031              		.loc 1 1023 0
 4032 0048 1800     		movs	r0, r3
 4033              	.LVL385:
ARM GAS  /tmp/ccJ2K96T.s 			page 103


 4034 004a FFF7FEFF 		bl	xEventGroupCreateStatic
 4035              	.LVL386:
 4036 004e F4E7     		b	.L342
 4037              	.LVL387:
 4038              	.L350:
1019:Middlewares/Third_Party/FreeRTOS/Source/CMSIS_RTOS_V2/cmsis_os2.c ****     }
 4039              		.loc 1 1019 0
 4040 0050 0023     		movs	r3, #0
 4041 0052 EEE7     		b	.L345
 4042              	.L352:
1014:Middlewares/Third_Party/FreeRTOS/Source/CMSIS_RTOS_V2/cmsis_os2.c ****         }
 4043              		.loc 1 1014 0
 4044 0054 0023     		movs	r3, #0
 4045 0056 ECE7     		b	.L345
 4046              	.LVL388:
 4047              	.L348:
1003:Middlewares/Third_Party/FreeRTOS/Source/CMSIS_RTOS_V2/cmsis_os2.c **** 
 4048              		.loc 1 1003 0
 4049 0058 0020     		movs	r0, #0
 4050              	.LVL389:
 4051 005a EEE7     		b	.L342
 4052              	.LVL390:
 4053              	.L349:
 4054 005c 0020     		movs	r0, #0
 4055              	.LVL391:
 4056 005e ECE7     		b	.L342
 4057              	.LVL392:
 4058              	.L353:
 4059 0060 0020     		movs	r0, #0
 4060              	.LVL393:
1032:Middlewares/Third_Party/FreeRTOS/Source/CMSIS_RTOS_V2/cmsis_os2.c **** }
 4061              		.loc 1 1032 0
 4062 0062 EAE7     		b	.L342
 4063              	.L356:
 4064              		.align	2
 4065              	.L355:
 4066 0064 00000000 		.word	.LANCHOR0
 4067              		.cfi_endproc
 4068              	.LFE64:
 4070              		.section	.text.osEventFlagsSet,"ax",%progbits
 4071              		.align	1
 4072              		.global	osEventFlagsSet
 4073              		.syntax unified
 4074              		.code	16
 4075              		.thumb_func
 4076              		.fpu softvfp
 4078              	osEventFlagsSet:
 4079              	.LFB65:
1034:Middlewares/Third_Party/FreeRTOS/Source/CMSIS_RTOS_V2/cmsis_os2.c **** 
1035:Middlewares/Third_Party/FreeRTOS/Source/CMSIS_RTOS_V2/cmsis_os2.c **** uint32_t osEventFlagsSet (osEventFlagsId_t ef_id, uint32_t flags) {
 4080              		.loc 1 1035 0
 4081              		.cfi_startproc
 4082              		@ args = 0, pretend = 0, frame = 8
 4083              		@ frame_needed = 0, uses_anonymous_args = 0
 4084              	.LVL394:
 4085 0000 10B5     		push	{r4, lr}
 4086              	.LCFI48:
ARM GAS  /tmp/ccJ2K96T.s 			page 104


 4087              		.cfi_def_cfa_offset 8
 4088              		.cfi_offset 4, -8
 4089              		.cfi_offset 14, -4
 4090 0002 82B0     		sub	sp, sp, #8
 4091              	.LCFI49:
 4092              		.cfi_def_cfa_offset 16
 4093 0004 0C00     		movs	r4, r1
 4094              	.LVL395:
1036:Middlewares/Third_Party/FreeRTOS/Source/CMSIS_RTOS_V2/cmsis_os2.c ****   EventGroupHandle_t hEventGroup = (EventGroupHandle_t)ef_id;
1037:Middlewares/Third_Party/FreeRTOS/Source/CMSIS_RTOS_V2/cmsis_os2.c ****   uint32_t rflags;
1038:Middlewares/Third_Party/FreeRTOS/Source/CMSIS_RTOS_V2/cmsis_os2.c ****   BaseType_t yield;
1039:Middlewares/Third_Party/FreeRTOS/Source/CMSIS_RTOS_V2/cmsis_os2.c **** 
1040:Middlewares/Third_Party/FreeRTOS/Source/CMSIS_RTOS_V2/cmsis_os2.c ****   if ((hEventGroup == NULL) || ((flags & EVENT_FLAGS_INVALID_BITS) != 0U)) {
 4095              		.loc 1 1040 0
 4096 0006 0028     		cmp	r0, #0
 4097 0008 23D0     		beq	.L361
 4098              		.loc 1 1040 0 is_stmt 0 discriminator 1
 4099 000a 0B0E     		lsrs	r3, r1, #24
 4100 000c 24D1     		bne	.L362
 4101              	.LBB346:
 4102              	.LBB347:
 209:Drivers/CMSIS/Include/cmsis_gcc.h ****   return(result);
 4103              		.loc 2 209 0 is_stmt 1
 4104              		.syntax divided
 4105              	@ 209 "Drivers/CMSIS/Include/cmsis_gcc.h" 1
 4106 000e EFF30583 		MRS r3, ipsr
 4107              	@ 0 "" 2
 4108              		.thumb
 4109              		.syntax unified
 4110              	.LBE347:
 4111              	.LBE346:
1041:Middlewares/Third_Party/FreeRTOS/Source/CMSIS_RTOS_V2/cmsis_os2.c ****     rflags = (uint32_t)osErrorParameter;
1042:Middlewares/Third_Party/FreeRTOS/Source/CMSIS_RTOS_V2/cmsis_os2.c ****   }
1043:Middlewares/Third_Party/FreeRTOS/Source/CMSIS_RTOS_V2/cmsis_os2.c ****   else if (IS_IRQ()) {
 4112              		.loc 1 1043 0
 4113 0012 002B     		cmp	r3, #0
 4114 0014 0CD1     		bne	.L359
 4115              	.LBB348:
 4116              	.LBB349:
 4117              		.loc 2 386 0
 4118              		.syntax divided
 4119              	@ 386 "Drivers/CMSIS/Include/cmsis_gcc.h" 1
 4120 0016 EFF31083 		MRS r3, primask
 4121              	@ 0 "" 2
 4122              		.thumb
 4123              		.syntax unified
 4124              	.LBE349:
 4125              	.LBE348:
 4126              		.loc 1 1043 0
 4127 001a 002B     		cmp	r3, #0
 4128 001c 03D0     		beq	.L360
 4129              		.loc 1 1043 0 is_stmt 0 discriminator 2
 4130 001e 124B     		ldr	r3, .L365
 4131 0020 1B68     		ldr	r3, [r3]
 4132 0022 022B     		cmp	r3, #2
 4133 0024 04D0     		beq	.L359
 4134              	.L360:
ARM GAS  /tmp/ccJ2K96T.s 			page 105


1044:Middlewares/Third_Party/FreeRTOS/Source/CMSIS_RTOS_V2/cmsis_os2.c ****     yield = pdFALSE;
1045:Middlewares/Third_Party/FreeRTOS/Source/CMSIS_RTOS_V2/cmsis_os2.c **** 
1046:Middlewares/Third_Party/FreeRTOS/Source/CMSIS_RTOS_V2/cmsis_os2.c ****     if (xEventGroupSetBitsFromISR (hEventGroup, (EventBits_t)flags, &yield) != pdFAIL) {
1047:Middlewares/Third_Party/FreeRTOS/Source/CMSIS_RTOS_V2/cmsis_os2.c ****       rflags = (uint32_t)osErrorResource;
1048:Middlewares/Third_Party/FreeRTOS/Source/CMSIS_RTOS_V2/cmsis_os2.c ****     } else {
1049:Middlewares/Third_Party/FreeRTOS/Source/CMSIS_RTOS_V2/cmsis_os2.c ****       rflags = flags;
1050:Middlewares/Third_Party/FreeRTOS/Source/CMSIS_RTOS_V2/cmsis_os2.c ****       portYIELD_FROM_ISR (yield);
1051:Middlewares/Third_Party/FreeRTOS/Source/CMSIS_RTOS_V2/cmsis_os2.c ****     }
1052:Middlewares/Third_Party/FreeRTOS/Source/CMSIS_RTOS_V2/cmsis_os2.c ****   }
1053:Middlewares/Third_Party/FreeRTOS/Source/CMSIS_RTOS_V2/cmsis_os2.c ****   else {
1054:Middlewares/Third_Party/FreeRTOS/Source/CMSIS_RTOS_V2/cmsis_os2.c ****     rflags = xEventGroupSetBits (hEventGroup, (EventBits_t)flags);
 4135              		.loc 1 1054 0 is_stmt 1
 4136 0026 2100     		movs	r1, r4
 4137              	.LVL396:
 4138 0028 FFF7FEFF 		bl	xEventGroupSetBits
 4139              	.LVL397:
 4140              	.L357:
1055:Middlewares/Third_Party/FreeRTOS/Source/CMSIS_RTOS_V2/cmsis_os2.c ****   }
1056:Middlewares/Third_Party/FreeRTOS/Source/CMSIS_RTOS_V2/cmsis_os2.c **** 
1057:Middlewares/Third_Party/FreeRTOS/Source/CMSIS_RTOS_V2/cmsis_os2.c ****   return (rflags);
1058:Middlewares/Third_Party/FreeRTOS/Source/CMSIS_RTOS_V2/cmsis_os2.c **** }
 4141              		.loc 1 1058 0
 4142 002c 02B0     		add	sp, sp, #8
 4143              		@ sp needed
 4144              	.LVL398:
 4145 002e 10BD     		pop	{r4, pc}
 4146              	.LVL399:
 4147              	.L359:
1044:Middlewares/Third_Party/FreeRTOS/Source/CMSIS_RTOS_V2/cmsis_os2.c ****     yield = pdFALSE;
 4148              		.loc 1 1044 0
 4149 0030 0023     		movs	r3, #0
 4150 0032 0193     		str	r3, [sp, #4]
1046:Middlewares/Third_Party/FreeRTOS/Source/CMSIS_RTOS_V2/cmsis_os2.c ****       rflags = (uint32_t)osErrorResource;
 4151              		.loc 1 1046 0
 4152 0034 01AA     		add	r2, sp, #4
 4153 0036 2100     		movs	r1, r4
 4154              	.LVL400:
 4155 0038 FFF7FEFF 		bl	xEventGroupSetBitsFromISR
 4156              	.LVL401:
 4157 003c 0028     		cmp	r0, #0
 4158 003e 0ED1     		bne	.L363
 4159              	.LVL402:
1050:Middlewares/Third_Party/FreeRTOS/Source/CMSIS_RTOS_V2/cmsis_os2.c ****     }
 4160              		.loc 1 1050 0
 4161 0040 019B     		ldr	r3, [sp, #4]
 4162 0042 002B     		cmp	r3, #0
 4163 0044 0ED0     		beq	.L364
1050:Middlewares/Third_Party/FreeRTOS/Source/CMSIS_RTOS_V2/cmsis_os2.c ****     }
 4164              		.loc 1 1050 0 is_stmt 0 discriminator 1
 4165 0046 094B     		ldr	r3, .L365+4
 4166 0048 8022     		movs	r2, #128
 4167 004a 5205     		lsls	r2, r2, #21
 4168 004c 1A60     		str	r2, [r3]
1049:Middlewares/Third_Party/FreeRTOS/Source/CMSIS_RTOS_V2/cmsis_os2.c ****       portYIELD_FROM_ISR (yield);
 4169              		.loc 1 1049 0 is_stmt 1 discriminator 1
 4170 004e 2000     		movs	r0, r4
 4171 0050 ECE7     		b	.L357
ARM GAS  /tmp/ccJ2K96T.s 			page 106


 4172              	.LVL403:
 4173              	.L361:
1041:Middlewares/Third_Party/FreeRTOS/Source/CMSIS_RTOS_V2/cmsis_os2.c ****   }
 4174              		.loc 1 1041 0
 4175 0052 0420     		movs	r0, #4
 4176              	.LVL404:
 4177 0054 4042     		rsbs	r0, r0, #0
 4178 0056 E9E7     		b	.L357
 4179              	.LVL405:
 4180              	.L362:
 4181 0058 0420     		movs	r0, #4
 4182              	.LVL406:
 4183 005a 4042     		rsbs	r0, r0, #0
 4184 005c E6E7     		b	.L357
 4185              	.LVL407:
 4186              	.L363:
1047:Middlewares/Third_Party/FreeRTOS/Source/CMSIS_RTOS_V2/cmsis_os2.c ****     } else {
 4187              		.loc 1 1047 0
 4188 005e 0320     		movs	r0, #3
 4189 0060 4042     		rsbs	r0, r0, #0
 4190 0062 E3E7     		b	.L357
 4191              	.LVL408:
 4192              	.L364:
1049:Middlewares/Third_Party/FreeRTOS/Source/CMSIS_RTOS_V2/cmsis_os2.c ****       portYIELD_FROM_ISR (yield);
 4193              		.loc 1 1049 0
 4194 0064 2000     		movs	r0, r4
 4195              	.LVL409:
1057:Middlewares/Third_Party/FreeRTOS/Source/CMSIS_RTOS_V2/cmsis_os2.c **** }
 4196              		.loc 1 1057 0
 4197 0066 E1E7     		b	.L357
 4198              	.L366:
 4199              		.align	2
 4200              	.L365:
 4201 0068 00000000 		.word	.LANCHOR0
 4202 006c 04ED00E0 		.word	-536810236
 4203              		.cfi_endproc
 4204              	.LFE65:
 4206              		.section	.text.osEventFlagsClear,"ax",%progbits
 4207              		.align	1
 4208              		.global	osEventFlagsClear
 4209              		.syntax unified
 4210              		.code	16
 4211              		.thumb_func
 4212              		.fpu softvfp
 4214              	osEventFlagsClear:
 4215              	.LFB66:
1059:Middlewares/Third_Party/FreeRTOS/Source/CMSIS_RTOS_V2/cmsis_os2.c **** 
1060:Middlewares/Third_Party/FreeRTOS/Source/CMSIS_RTOS_V2/cmsis_os2.c **** uint32_t osEventFlagsClear (osEventFlagsId_t ef_id, uint32_t flags) {
 4216              		.loc 1 1060 0
 4217              		.cfi_startproc
 4218              		@ args = 0, pretend = 0, frame = 0
 4219              		@ frame_needed = 0, uses_anonymous_args = 0
 4220              	.LVL410:
 4221 0000 70B5     		push	{r4, r5, r6, lr}
 4222              	.LCFI50:
 4223              		.cfi_def_cfa_offset 16
 4224              		.cfi_offset 4, -16
ARM GAS  /tmp/ccJ2K96T.s 			page 107


 4225              		.cfi_offset 5, -12
 4226              		.cfi_offset 6, -8
 4227              		.cfi_offset 14, -4
 4228 0002 0400     		movs	r4, r0
 4229 0004 0D00     		movs	r5, r1
 4230              	.LVL411:
1061:Middlewares/Third_Party/FreeRTOS/Source/CMSIS_RTOS_V2/cmsis_os2.c ****   EventGroupHandle_t hEventGroup = (EventGroupHandle_t)ef_id;
1062:Middlewares/Third_Party/FreeRTOS/Source/CMSIS_RTOS_V2/cmsis_os2.c ****   uint32_t rflags;
1063:Middlewares/Third_Party/FreeRTOS/Source/CMSIS_RTOS_V2/cmsis_os2.c **** 
1064:Middlewares/Third_Party/FreeRTOS/Source/CMSIS_RTOS_V2/cmsis_os2.c ****   if ((hEventGroup == NULL) || ((flags & EVENT_FLAGS_INVALID_BITS) != 0U)) {
 4231              		.loc 1 1064 0
 4232 0006 0028     		cmp	r0, #0
 4233 0008 21D0     		beq	.L371
 4234              		.loc 1 1064 0 is_stmt 0 discriminator 1
 4235 000a 0B0E     		lsrs	r3, r1, #24
 4236 000c 22D1     		bne	.L372
 4237              	.LBB350:
 4238              	.LBB351:
 209:Drivers/CMSIS/Include/cmsis_gcc.h ****   return(result);
 4239              		.loc 2 209 0 is_stmt 1
 4240              		.syntax divided
 4241              	@ 209 "Drivers/CMSIS/Include/cmsis_gcc.h" 1
 4242 000e EFF30583 		MRS r3, ipsr
 4243              	@ 0 "" 2
 4244              		.thumb
 4245              		.syntax unified
 4246              	.LBE351:
 4247              	.LBE350:
1065:Middlewares/Third_Party/FreeRTOS/Source/CMSIS_RTOS_V2/cmsis_os2.c ****     rflags = (uint32_t)osErrorParameter;
1066:Middlewares/Third_Party/FreeRTOS/Source/CMSIS_RTOS_V2/cmsis_os2.c ****   }
1067:Middlewares/Third_Party/FreeRTOS/Source/CMSIS_RTOS_V2/cmsis_os2.c ****   else if (IS_IRQ()) {
 4248              		.loc 1 1067 0
 4249 0012 002B     		cmp	r3, #0
 4250 0014 0ED1     		bne	.L369
 4251              	.LBB352:
 4252              	.LBB353:
 4253              		.loc 2 386 0
 4254              		.syntax divided
 4255              	@ 386 "Drivers/CMSIS/Include/cmsis_gcc.h" 1
 4256 0016 EFF31083 		MRS r3, primask
 4257              	@ 0 "" 2
 4258              		.thumb
 4259              		.syntax unified
 4260              	.LBE353:
 4261              	.LBE352:
 4262              		.loc 1 1067 0
 4263 001a 002B     		cmp	r3, #0
 4264 001c 03D0     		beq	.L370
 4265              		.loc 1 1067 0 is_stmt 0 discriminator 2
 4266 001e 0F4B     		ldr	r3, .L374
 4267 0020 1B68     		ldr	r3, [r3]
 4268 0022 022B     		cmp	r3, #2
 4269 0024 06D0     		beq	.L369
 4270              	.L370:
1068:Middlewares/Third_Party/FreeRTOS/Source/CMSIS_RTOS_V2/cmsis_os2.c ****     rflags = xEventGroupGetBitsFromISR (hEventGroup);
1069:Middlewares/Third_Party/FreeRTOS/Source/CMSIS_RTOS_V2/cmsis_os2.c **** 
1070:Middlewares/Third_Party/FreeRTOS/Source/CMSIS_RTOS_V2/cmsis_os2.c ****     if (xEventGroupClearBitsFromISR (hEventGroup, (EventBits_t)flags) == pdFAIL) {
ARM GAS  /tmp/ccJ2K96T.s 			page 108


1071:Middlewares/Third_Party/FreeRTOS/Source/CMSIS_RTOS_V2/cmsis_os2.c ****       rflags = (uint32_t)osErrorResource;
1072:Middlewares/Third_Party/FreeRTOS/Source/CMSIS_RTOS_V2/cmsis_os2.c ****     }
1073:Middlewares/Third_Party/FreeRTOS/Source/CMSIS_RTOS_V2/cmsis_os2.c ****   }
1074:Middlewares/Third_Party/FreeRTOS/Source/CMSIS_RTOS_V2/cmsis_os2.c ****   else {
1075:Middlewares/Third_Party/FreeRTOS/Source/CMSIS_RTOS_V2/cmsis_os2.c ****     rflags = xEventGroupClearBits (hEventGroup, (EventBits_t)flags);
 4271              		.loc 1 1075 0 is_stmt 1
 4272 0026 2900     		movs	r1, r5
 4273              	.LVL412:
 4274 0028 2000     		movs	r0, r4
 4275              	.LVL413:
 4276 002a FFF7FEFF 		bl	xEventGroupClearBits
 4277              	.LVL414:
 4278 002e 0600     		movs	r6, r0
 4279              	.LVL415:
 4280              	.L367:
1076:Middlewares/Third_Party/FreeRTOS/Source/CMSIS_RTOS_V2/cmsis_os2.c ****   }
1077:Middlewares/Third_Party/FreeRTOS/Source/CMSIS_RTOS_V2/cmsis_os2.c **** 
1078:Middlewares/Third_Party/FreeRTOS/Source/CMSIS_RTOS_V2/cmsis_os2.c ****   return (rflags);
1079:Middlewares/Third_Party/FreeRTOS/Source/CMSIS_RTOS_V2/cmsis_os2.c **** }
 4281              		.loc 1 1079 0
 4282 0030 3000     		movs	r0, r6
 4283              		@ sp needed
 4284              	.LVL416:
 4285              	.LVL417:
 4286 0032 70BD     		pop	{r4, r5, r6, pc}
 4287              	.LVL418:
 4288              	.L369:
1068:Middlewares/Third_Party/FreeRTOS/Source/CMSIS_RTOS_V2/cmsis_os2.c ****     rflags = xEventGroupGetBitsFromISR (hEventGroup);
 4289              		.loc 1 1068 0
 4290 0034 2000     		movs	r0, r4
 4291              	.LVL419:
 4292 0036 FFF7FEFF 		bl	xEventGroupGetBitsFromISR
 4293              	.LVL420:
 4294 003a 0600     		movs	r6, r0
 4295              	.LVL421:
1070:Middlewares/Third_Party/FreeRTOS/Source/CMSIS_RTOS_V2/cmsis_os2.c ****       rflags = (uint32_t)osErrorResource;
 4296              		.loc 1 1070 0
 4297 003c 2900     		movs	r1, r5
 4298 003e 2000     		movs	r0, r4
 4299              	.LVL422:
 4300 0040 FFF7FEFF 		bl	xEventGroupClearBitsFromISR
 4301              	.LVL423:
 4302 0044 0028     		cmp	r0, #0
 4303 0046 F3D1     		bne	.L367
1071:Middlewares/Third_Party/FreeRTOS/Source/CMSIS_RTOS_V2/cmsis_os2.c ****     }
 4304              		.loc 1 1071 0
 4305 0048 0326     		movs	r6, #3
 4306              	.LVL424:
 4307 004a 7642     		rsbs	r6, r6, #0
 4308              	.LVL425:
1078:Middlewares/Third_Party/FreeRTOS/Source/CMSIS_RTOS_V2/cmsis_os2.c **** }
 4309              		.loc 1 1078 0
 4310 004c F0E7     		b	.L367
 4311              	.LVL426:
 4312              	.L371:
1065:Middlewares/Third_Party/FreeRTOS/Source/CMSIS_RTOS_V2/cmsis_os2.c ****   }
 4313              		.loc 1 1065 0
ARM GAS  /tmp/ccJ2K96T.s 			page 109


 4314 004e 0426     		movs	r6, #4
 4315 0050 7642     		rsbs	r6, r6, #0
 4316 0052 EDE7     		b	.L367
 4317              	.L372:
 4318 0054 0426     		movs	r6, #4
 4319 0056 7642     		rsbs	r6, r6, #0
 4320 0058 EAE7     		b	.L367
 4321              	.L375:
 4322 005a C046     		.align	2
 4323              	.L374:
 4324 005c 00000000 		.word	.LANCHOR0
 4325              		.cfi_endproc
 4326              	.LFE66:
 4328              		.section	.text.osEventFlagsGet,"ax",%progbits
 4329              		.align	1
 4330              		.global	osEventFlagsGet
 4331              		.syntax unified
 4332              		.code	16
 4333              		.thumb_func
 4334              		.fpu softvfp
 4336              	osEventFlagsGet:
 4337              	.LFB67:
1080:Middlewares/Third_Party/FreeRTOS/Source/CMSIS_RTOS_V2/cmsis_os2.c **** 
1081:Middlewares/Third_Party/FreeRTOS/Source/CMSIS_RTOS_V2/cmsis_os2.c **** uint32_t osEventFlagsGet (osEventFlagsId_t ef_id) {
 4338              		.loc 1 1081 0
 4339              		.cfi_startproc
 4340              		@ args = 0, pretend = 0, frame = 0
 4341              		@ frame_needed = 0, uses_anonymous_args = 0
 4342              	.LVL427:
 4343 0000 10B5     		push	{r4, lr}
 4344              	.LCFI51:
 4345              		.cfi_def_cfa_offset 8
 4346              		.cfi_offset 4, -8
 4347              		.cfi_offset 14, -4
 4348              	.LVL428:
1082:Middlewares/Third_Party/FreeRTOS/Source/CMSIS_RTOS_V2/cmsis_os2.c ****   EventGroupHandle_t hEventGroup = (EventGroupHandle_t)ef_id;
1083:Middlewares/Third_Party/FreeRTOS/Source/CMSIS_RTOS_V2/cmsis_os2.c ****   uint32_t rflags;
1084:Middlewares/Third_Party/FreeRTOS/Source/CMSIS_RTOS_V2/cmsis_os2.c **** 
1085:Middlewares/Third_Party/FreeRTOS/Source/CMSIS_RTOS_V2/cmsis_os2.c ****   if (ef_id == NULL) {
 4349              		.loc 1 1085 0
 4350 0002 0028     		cmp	r0, #0
 4351 0004 12D0     		beq	.L380
 4352              	.LBB354:
 4353              	.LBB355:
 209:Drivers/CMSIS/Include/cmsis_gcc.h ****   return(result);
 4354              		.loc 2 209 0
 4355              		.syntax divided
 4356              	@ 209 "Drivers/CMSIS/Include/cmsis_gcc.h" 1
 4357 0006 EFF30583 		MRS r3, ipsr
 4358              	@ 0 "" 2
 4359              		.thumb
 4360              		.syntax unified
 4361              	.LBE355:
 4362              	.LBE354:
1086:Middlewares/Third_Party/FreeRTOS/Source/CMSIS_RTOS_V2/cmsis_os2.c ****     rflags = 0U;
1087:Middlewares/Third_Party/FreeRTOS/Source/CMSIS_RTOS_V2/cmsis_os2.c ****   }
1088:Middlewares/Third_Party/FreeRTOS/Source/CMSIS_RTOS_V2/cmsis_os2.c ****   else if (IS_IRQ()) {
ARM GAS  /tmp/ccJ2K96T.s 			page 110


 4363              		.loc 1 1088 0
 4364 000a 002B     		cmp	r3, #0
 4365 000c 0BD1     		bne	.L378
 4366              	.LBB356:
 4367              	.LBB357:
 4368              		.loc 2 386 0
 4369              		.syntax divided
 4370              	@ 386 "Drivers/CMSIS/Include/cmsis_gcc.h" 1
 4371 000e EFF31083 		MRS r3, primask
 4372              	@ 0 "" 2
 4373              		.thumb
 4374              		.syntax unified
 4375              	.LBE357:
 4376              	.LBE356:
 4377              		.loc 1 1088 0
 4378 0012 002B     		cmp	r3, #0
 4379 0014 03D0     		beq	.L379
 4380              		.loc 1 1088 0 is_stmt 0 discriminator 2
 4381 0016 064B     		ldr	r3, .L381
 4382 0018 1B68     		ldr	r3, [r3]
 4383 001a 022B     		cmp	r3, #2
 4384 001c 03D0     		beq	.L378
 4385              	.L379:
1089:Middlewares/Third_Party/FreeRTOS/Source/CMSIS_RTOS_V2/cmsis_os2.c ****     rflags = xEventGroupGetBitsFromISR (hEventGroup);
1090:Middlewares/Third_Party/FreeRTOS/Source/CMSIS_RTOS_V2/cmsis_os2.c ****   }
1091:Middlewares/Third_Party/FreeRTOS/Source/CMSIS_RTOS_V2/cmsis_os2.c ****   else {
1092:Middlewares/Third_Party/FreeRTOS/Source/CMSIS_RTOS_V2/cmsis_os2.c ****     rflags = xEventGroupGetBits (hEventGroup);
 4386              		.loc 1 1092 0 is_stmt 1
 4387 001e 0021     		movs	r1, #0
 4388 0020 FFF7FEFF 		bl	xEventGroupClearBits
 4389              	.LVL429:
 4390              	.L376:
1093:Middlewares/Third_Party/FreeRTOS/Source/CMSIS_RTOS_V2/cmsis_os2.c ****   }
1094:Middlewares/Third_Party/FreeRTOS/Source/CMSIS_RTOS_V2/cmsis_os2.c **** 
1095:Middlewares/Third_Party/FreeRTOS/Source/CMSIS_RTOS_V2/cmsis_os2.c ****   return (rflags);
1096:Middlewares/Third_Party/FreeRTOS/Source/CMSIS_RTOS_V2/cmsis_os2.c **** }
 4391              		.loc 1 1096 0
 4392              		@ sp needed
 4393 0024 10BD     		pop	{r4, pc}
 4394              	.LVL430:
 4395              	.L378:
1089:Middlewares/Third_Party/FreeRTOS/Source/CMSIS_RTOS_V2/cmsis_os2.c ****     rflags = xEventGroupGetBitsFromISR (hEventGroup);
 4396              		.loc 1 1089 0
 4397 0026 FFF7FEFF 		bl	xEventGroupGetBitsFromISR
 4398              	.LVL431:
 4399 002a FBE7     		b	.L376
 4400              	.LVL432:
 4401              	.L380:
1086:Middlewares/Third_Party/FreeRTOS/Source/CMSIS_RTOS_V2/cmsis_os2.c ****   }
 4402              		.loc 1 1086 0
 4403 002c 0020     		movs	r0, #0
 4404              	.LVL433:
1095:Middlewares/Third_Party/FreeRTOS/Source/CMSIS_RTOS_V2/cmsis_os2.c **** }
 4405              		.loc 1 1095 0
 4406 002e F9E7     		b	.L376
 4407              	.L382:
 4408              		.align	2
ARM GAS  /tmp/ccJ2K96T.s 			page 111


 4409              	.L381:
 4410 0030 00000000 		.word	.LANCHOR0
 4411              		.cfi_endproc
 4412              	.LFE67:
 4414              		.section	.text.osEventFlagsWait,"ax",%progbits
 4415              		.align	1
 4416              		.global	osEventFlagsWait
 4417              		.syntax unified
 4418              		.code	16
 4419              		.thumb_func
 4420              		.fpu softvfp
 4422              	osEventFlagsWait:
 4423              	.LFB68:
1097:Middlewares/Third_Party/FreeRTOS/Source/CMSIS_RTOS_V2/cmsis_os2.c **** 
1098:Middlewares/Third_Party/FreeRTOS/Source/CMSIS_RTOS_V2/cmsis_os2.c **** uint32_t osEventFlagsWait (osEventFlagsId_t ef_id, uint32_t flags, uint32_t options, uint32_t timeo
 4424              		.loc 1 1098 0
 4425              		.cfi_startproc
 4426              		@ args = 0, pretend = 0, frame = 0
 4427              		@ frame_needed = 0, uses_anonymous_args = 0
 4428              	.LVL434:
 4429 0000 70B5     		push	{r4, r5, r6, lr}
 4430              	.LCFI52:
 4431              		.cfi_def_cfa_offset 16
 4432              		.cfi_offset 4, -16
 4433              		.cfi_offset 5, -12
 4434              		.cfi_offset 6, -8
 4435              		.cfi_offset 14, -4
 4436 0002 82B0     		sub	sp, sp, #8
 4437              	.LCFI53:
 4438              		.cfi_def_cfa_offset 24
 4439 0004 0C00     		movs	r4, r1
 4440 0006 1D00     		movs	r5, r3
 4441              	.LVL435:
1099:Middlewares/Third_Party/FreeRTOS/Source/CMSIS_RTOS_V2/cmsis_os2.c ****   EventGroupHandle_t hEventGroup = (EventGroupHandle_t)ef_id;
1100:Middlewares/Third_Party/FreeRTOS/Source/CMSIS_RTOS_V2/cmsis_os2.c ****   BaseType_t wait_all;
1101:Middlewares/Third_Party/FreeRTOS/Source/CMSIS_RTOS_V2/cmsis_os2.c ****   BaseType_t exit_clr;
1102:Middlewares/Third_Party/FreeRTOS/Source/CMSIS_RTOS_V2/cmsis_os2.c ****   uint32_t rflags;
1103:Middlewares/Third_Party/FreeRTOS/Source/CMSIS_RTOS_V2/cmsis_os2.c **** 
1104:Middlewares/Third_Party/FreeRTOS/Source/CMSIS_RTOS_V2/cmsis_os2.c ****   if ((hEventGroup == NULL) || ((flags & EVENT_FLAGS_INVALID_BITS) != 0U)) {
 4442              		.loc 1 1104 0
 4443 0008 0028     		cmp	r0, #0
 4444 000a 2CD0     		beq	.L389
 4445              		.loc 1 1104 0 is_stmt 0 discriminator 1
 4446 000c 0B0E     		lsrs	r3, r1, #24
 4447              	.LVL436:
 4448 000e 2DD1     		bne	.L390
 4449              	.LBB358:
 4450              	.LBB359:
 209:Drivers/CMSIS/Include/cmsis_gcc.h ****   return(result);
 4451              		.loc 2 209 0 is_stmt 1
 4452              		.syntax divided
 4453              	@ 209 "Drivers/CMSIS/Include/cmsis_gcc.h" 1
 4454 0010 EFF30583 		MRS r3, ipsr
 4455              	@ 0 "" 2
 4456              		.thumb
 4457              		.syntax unified
 4458              	.LBE359:
ARM GAS  /tmp/ccJ2K96T.s 			page 112


 4459              	.LBE358:
1105:Middlewares/Third_Party/FreeRTOS/Source/CMSIS_RTOS_V2/cmsis_os2.c ****     rflags = (uint32_t)osErrorParameter;
1106:Middlewares/Third_Party/FreeRTOS/Source/CMSIS_RTOS_V2/cmsis_os2.c ****   }
1107:Middlewares/Third_Party/FreeRTOS/Source/CMSIS_RTOS_V2/cmsis_os2.c ****   else if (IS_IRQ()) {
 4460              		.loc 1 1107 0
 4461 0014 002B     		cmp	r3, #0
 4462 0016 2DD1     		bne	.L391
 4463              	.LBB360:
 4464              	.LBB361:
 4465              		.loc 2 386 0
 4466              		.syntax divided
 4467              	@ 386 "Drivers/CMSIS/Include/cmsis_gcc.h" 1
 4468 0018 EFF31083 		MRS r3, primask
 4469              	@ 0 "" 2
 4470              		.thumb
 4471              		.syntax unified
 4472              	.LBE361:
 4473              	.LBE360:
 4474              		.loc 1 1107 0
 4475 001c 002B     		cmp	r3, #0
 4476 001e 03D0     		beq	.L385
 4477              		.loc 1 1107 0 is_stmt 0 discriminator 2
 4478 0020 1A4B     		ldr	r3, .L397
 4479 0022 1B68     		ldr	r3, [r3]
 4480 0024 022B     		cmp	r3, #2
 4481 0026 28D0     		beq	.L392
 4482              	.L385:
1108:Middlewares/Third_Party/FreeRTOS/Source/CMSIS_RTOS_V2/cmsis_os2.c ****     rflags = (uint32_t)osErrorISR;
1109:Middlewares/Third_Party/FreeRTOS/Source/CMSIS_RTOS_V2/cmsis_os2.c ****   }
1110:Middlewares/Third_Party/FreeRTOS/Source/CMSIS_RTOS_V2/cmsis_os2.c ****   else {
1111:Middlewares/Third_Party/FreeRTOS/Source/CMSIS_RTOS_V2/cmsis_os2.c ****     if (options & osFlagsWaitAll) {
 4483              		.loc 1 1111 0 is_stmt 1
 4484 0028 0126     		movs	r6, #1
 4485 002a 1640     		ands	r6, r2
 4486 002c 10D0     		beq	.L393
1112:Middlewares/Third_Party/FreeRTOS/Source/CMSIS_RTOS_V2/cmsis_os2.c ****       wait_all = pdTRUE;
 4487              		.loc 1 1112 0
 4488 002e 0123     		movs	r3, #1
 4489              	.L386:
 4490              	.LVL437:
1113:Middlewares/Third_Party/FreeRTOS/Source/CMSIS_RTOS_V2/cmsis_os2.c ****     } else {
1114:Middlewares/Third_Party/FreeRTOS/Source/CMSIS_RTOS_V2/cmsis_os2.c ****       wait_all = pdFAIL;
1115:Middlewares/Third_Party/FreeRTOS/Source/CMSIS_RTOS_V2/cmsis_os2.c ****     }
1116:Middlewares/Third_Party/FreeRTOS/Source/CMSIS_RTOS_V2/cmsis_os2.c **** 
1117:Middlewares/Third_Party/FreeRTOS/Source/CMSIS_RTOS_V2/cmsis_os2.c ****     if (options & osFlagsNoClear) {
 4491              		.loc 1 1117 0
 4492 0030 9207     		lsls	r2, r2, #30
 4493 0032 0FD5     		bpl	.L394
 4494              	.LVL438:
1118:Middlewares/Third_Party/FreeRTOS/Source/CMSIS_RTOS_V2/cmsis_os2.c ****       exit_clr = pdFAIL;
 4495              		.loc 1 1118 0
 4496 0034 0022     		movs	r2, #0
 4497              	.L387:
 4498              	.LVL439:
1119:Middlewares/Third_Party/FreeRTOS/Source/CMSIS_RTOS_V2/cmsis_os2.c ****     } else {
1120:Middlewares/Third_Party/FreeRTOS/Source/CMSIS_RTOS_V2/cmsis_os2.c ****       exit_clr = pdTRUE;
1121:Middlewares/Third_Party/FreeRTOS/Source/CMSIS_RTOS_V2/cmsis_os2.c ****     }
ARM GAS  /tmp/ccJ2K96T.s 			page 113


1122:Middlewares/Third_Party/FreeRTOS/Source/CMSIS_RTOS_V2/cmsis_os2.c **** 
1123:Middlewares/Third_Party/FreeRTOS/Source/CMSIS_RTOS_V2/cmsis_os2.c ****     rflags = xEventGroupWaitBits (hEventGroup, (EventBits_t)flags, exit_clr, wait_all, (TickType_t)
 4499              		.loc 1 1123 0
 4500 0036 0095     		str	r5, [sp]
 4501 0038 2100     		movs	r1, r4
 4502              	.LVL440:
 4503 003a FFF7FEFF 		bl	xEventGroupWaitBits
 4504              	.LVL441:
1124:Middlewares/Third_Party/FreeRTOS/Source/CMSIS_RTOS_V2/cmsis_os2.c **** 
1125:Middlewares/Third_Party/FreeRTOS/Source/CMSIS_RTOS_V2/cmsis_os2.c ****     if (options & osFlagsWaitAll) {
 4505              		.loc 1 1125 0
 4506 003e 002E     		cmp	r6, #0
 4507 0040 0AD0     		beq	.L388
1126:Middlewares/Third_Party/FreeRTOS/Source/CMSIS_RTOS_V2/cmsis_os2.c ****       if (flags != rflags) {
 4508              		.loc 1 1126 0
 4509 0042 8442     		cmp	r4, r0
 4510 0044 14D0     		beq	.L383
1127:Middlewares/Third_Party/FreeRTOS/Source/CMSIS_RTOS_V2/cmsis_os2.c ****         if (timeout > 0U) {
 4511              		.loc 1 1127 0
 4512 0046 002D     		cmp	r5, #0
 4513 0048 1AD0     		beq	.L395
1128:Middlewares/Third_Party/FreeRTOS/Source/CMSIS_RTOS_V2/cmsis_os2.c ****           rflags = (uint32_t)osErrorTimeout;
 4514              		.loc 1 1128 0
 4515 004a 0220     		movs	r0, #2
 4516              	.LVL442:
 4517 004c 4042     		rsbs	r0, r0, #0
 4518 004e 0FE0     		b	.L383
 4519              	.LVL443:
 4520              	.L393:
1114:Middlewares/Third_Party/FreeRTOS/Source/CMSIS_RTOS_V2/cmsis_os2.c ****     }
 4521              		.loc 1 1114 0
 4522 0050 0023     		movs	r3, #0
 4523 0052 EDE7     		b	.L386
 4524              	.LVL444:
 4525              	.L394:
1120:Middlewares/Third_Party/FreeRTOS/Source/CMSIS_RTOS_V2/cmsis_os2.c ****     }
 4526              		.loc 1 1120 0
 4527 0054 0122     		movs	r2, #1
 4528 0056 EEE7     		b	.L387
 4529              	.LVL445:
 4530              	.L388:
1129:Middlewares/Third_Party/FreeRTOS/Source/CMSIS_RTOS_V2/cmsis_os2.c ****         } else {
1130:Middlewares/Third_Party/FreeRTOS/Source/CMSIS_RTOS_V2/cmsis_os2.c ****           rflags = (uint32_t)osErrorResource;
1131:Middlewares/Third_Party/FreeRTOS/Source/CMSIS_RTOS_V2/cmsis_os2.c ****         }
1132:Middlewares/Third_Party/FreeRTOS/Source/CMSIS_RTOS_V2/cmsis_os2.c ****       }
1133:Middlewares/Third_Party/FreeRTOS/Source/CMSIS_RTOS_V2/cmsis_os2.c ****     }
1134:Middlewares/Third_Party/FreeRTOS/Source/CMSIS_RTOS_V2/cmsis_os2.c ****     else {
1135:Middlewares/Third_Party/FreeRTOS/Source/CMSIS_RTOS_V2/cmsis_os2.c ****       if ((flags & rflags) == 0U) {
 4531              		.loc 1 1135 0
 4532 0058 2042     		tst	r0, r4
 4533 005a 09D1     		bne	.L383
1136:Middlewares/Third_Party/FreeRTOS/Source/CMSIS_RTOS_V2/cmsis_os2.c ****         if (timeout > 0U) {
 4534              		.loc 1 1136 0
 4535 005c 002D     		cmp	r5, #0
 4536 005e 12D0     		beq	.L396
1137:Middlewares/Third_Party/FreeRTOS/Source/CMSIS_RTOS_V2/cmsis_os2.c ****           rflags = (uint32_t)osErrorTimeout;
 4537              		.loc 1 1137 0
ARM GAS  /tmp/ccJ2K96T.s 			page 114


 4538 0060 0220     		movs	r0, #2
 4539              	.LVL446:
 4540 0062 4042     		rsbs	r0, r0, #0
 4541 0064 04E0     		b	.L383
 4542              	.LVL447:
 4543              	.L389:
1105:Middlewares/Third_Party/FreeRTOS/Source/CMSIS_RTOS_V2/cmsis_os2.c ****   }
 4544              		.loc 1 1105 0
 4545 0066 0420     		movs	r0, #4
 4546              	.LVL448:
 4547 0068 4042     		rsbs	r0, r0, #0
 4548 006a 01E0     		b	.L383
 4549              	.LVL449:
 4550              	.L390:
 4551 006c 0420     		movs	r0, #4
 4552              	.LVL450:
 4553 006e 4042     		rsbs	r0, r0, #0
 4554              	.LVL451:
 4555              	.L383:
1138:Middlewares/Third_Party/FreeRTOS/Source/CMSIS_RTOS_V2/cmsis_os2.c ****         } else {
1139:Middlewares/Third_Party/FreeRTOS/Source/CMSIS_RTOS_V2/cmsis_os2.c ****           rflags = (uint32_t)osErrorResource;
1140:Middlewares/Third_Party/FreeRTOS/Source/CMSIS_RTOS_V2/cmsis_os2.c ****         }
1141:Middlewares/Third_Party/FreeRTOS/Source/CMSIS_RTOS_V2/cmsis_os2.c ****       }
1142:Middlewares/Third_Party/FreeRTOS/Source/CMSIS_RTOS_V2/cmsis_os2.c ****     }
1143:Middlewares/Third_Party/FreeRTOS/Source/CMSIS_RTOS_V2/cmsis_os2.c ****   }
1144:Middlewares/Third_Party/FreeRTOS/Source/CMSIS_RTOS_V2/cmsis_os2.c **** 
1145:Middlewares/Third_Party/FreeRTOS/Source/CMSIS_RTOS_V2/cmsis_os2.c ****   return (rflags);
1146:Middlewares/Third_Party/FreeRTOS/Source/CMSIS_RTOS_V2/cmsis_os2.c **** }
 4556              		.loc 1 1146 0
 4557 0070 02B0     		add	sp, sp, #8
 4558              		@ sp needed
 4559              	.LVL452:
 4560              	.LVL453:
 4561 0072 70BD     		pop	{r4, r5, r6, pc}
 4562              	.LVL454:
 4563              	.L391:
1108:Middlewares/Third_Party/FreeRTOS/Source/CMSIS_RTOS_V2/cmsis_os2.c ****   }
 4564              		.loc 1 1108 0
 4565 0074 0620     		movs	r0, #6
 4566              	.LVL455:
 4567 0076 4042     		rsbs	r0, r0, #0
 4568 0078 FAE7     		b	.L383
 4569              	.LVL456:
 4570              	.L392:
 4571 007a 0620     		movs	r0, #6
 4572              	.LVL457:
 4573 007c 4042     		rsbs	r0, r0, #0
 4574 007e F7E7     		b	.L383
 4575              	.LVL458:
 4576              	.L395:
1130:Middlewares/Third_Party/FreeRTOS/Source/CMSIS_RTOS_V2/cmsis_os2.c ****         }
 4577              		.loc 1 1130 0
 4578 0080 0320     		movs	r0, #3
 4579              	.LVL459:
 4580 0082 4042     		rsbs	r0, r0, #0
 4581 0084 F4E7     		b	.L383
 4582              	.LVL460:
ARM GAS  /tmp/ccJ2K96T.s 			page 115


 4583              	.L396:
1139:Middlewares/Third_Party/FreeRTOS/Source/CMSIS_RTOS_V2/cmsis_os2.c ****         }
 4584              		.loc 1 1139 0
 4585 0086 0320     		movs	r0, #3
 4586              	.LVL461:
 4587 0088 4042     		rsbs	r0, r0, #0
 4588              	.LVL462:
1145:Middlewares/Third_Party/FreeRTOS/Source/CMSIS_RTOS_V2/cmsis_os2.c **** }
 4589              		.loc 1 1145 0
 4590 008a F1E7     		b	.L383
 4591              	.L398:
 4592              		.align	2
 4593              	.L397:
 4594 008c 00000000 		.word	.LANCHOR0
 4595              		.cfi_endproc
 4596              	.LFE68:
 4598              		.section	.text.osEventFlagsDelete,"ax",%progbits
 4599              		.align	1
 4600              		.global	osEventFlagsDelete
 4601              		.syntax unified
 4602              		.code	16
 4603              		.thumb_func
 4604              		.fpu softvfp
 4606              	osEventFlagsDelete:
 4607              	.LFB69:
1147:Middlewares/Third_Party/FreeRTOS/Source/CMSIS_RTOS_V2/cmsis_os2.c **** 
1148:Middlewares/Third_Party/FreeRTOS/Source/CMSIS_RTOS_V2/cmsis_os2.c **** osStatus_t osEventFlagsDelete (osEventFlagsId_t ef_id) {
 4608              		.loc 1 1148 0
 4609              		.cfi_startproc
 4610              		@ args = 0, pretend = 0, frame = 0
 4611              		@ frame_needed = 0, uses_anonymous_args = 0
 4612              	.LVL463:
 4613 0000 10B5     		push	{r4, lr}
 4614              	.LCFI54:
 4615              		.cfi_def_cfa_offset 8
 4616              		.cfi_offset 4, -8
 4617              		.cfi_offset 14, -4
 4618              	.LVL464:
 4619              	.LBB362:
 4620              	.LBB363:
 209:Drivers/CMSIS/Include/cmsis_gcc.h ****   return(result);
 4621              		.loc 2 209 0
 4622              		.syntax divided
 4623              	@ 209 "Drivers/CMSIS/Include/cmsis_gcc.h" 1
 4624 0002 EFF30583 		MRS r3, ipsr
 4625              	@ 0 "" 2
 4626              		.thumb
 4627              		.syntax unified
 4628              	.LBE363:
 4629              	.LBE362:
1149:Middlewares/Third_Party/FreeRTOS/Source/CMSIS_RTOS_V2/cmsis_os2.c ****   EventGroupHandle_t hEventGroup = (EventGroupHandle_t)ef_id;
1150:Middlewares/Third_Party/FreeRTOS/Source/CMSIS_RTOS_V2/cmsis_os2.c ****   osStatus_t stat;
1151:Middlewares/Third_Party/FreeRTOS/Source/CMSIS_RTOS_V2/cmsis_os2.c **** 
1152:Middlewares/Third_Party/FreeRTOS/Source/CMSIS_RTOS_V2/cmsis_os2.c **** #ifndef USE_FreeRTOS_HEAP_1
1153:Middlewares/Third_Party/FreeRTOS/Source/CMSIS_RTOS_V2/cmsis_os2.c ****   if (IS_IRQ()) {
 4630              		.loc 1 1153 0
 4631 0006 002B     		cmp	r3, #0
ARM GAS  /tmp/ccJ2K96T.s 			page 116


 4632 0008 0DD1     		bne	.L402
 4633              	.LBB364:
 4634              	.LBB365:
 4635              		.loc 2 386 0
 4636              		.syntax divided
 4637              	@ 386 "Drivers/CMSIS/Include/cmsis_gcc.h" 1
 4638 000a EFF31083 		MRS r3, primask
 4639              	@ 0 "" 2
 4640              		.thumb
 4641              		.syntax unified
 4642              	.LBE365:
 4643              	.LBE364:
 4644              		.loc 1 1153 0
 4645 000e 002B     		cmp	r3, #0
 4646 0010 03D0     		beq	.L401
 4647              		.loc 1 1153 0 is_stmt 0 discriminator 2
 4648 0012 094B     		ldr	r3, .L405
 4649 0014 1B68     		ldr	r3, [r3]
 4650 0016 022B     		cmp	r3, #2
 4651 0018 08D0     		beq	.L403
 4652              	.L401:
1154:Middlewares/Third_Party/FreeRTOS/Source/CMSIS_RTOS_V2/cmsis_os2.c ****     stat = osErrorISR;
1155:Middlewares/Third_Party/FreeRTOS/Source/CMSIS_RTOS_V2/cmsis_os2.c ****   }
1156:Middlewares/Third_Party/FreeRTOS/Source/CMSIS_RTOS_V2/cmsis_os2.c ****   else if (hEventGroup == NULL) {
 4653              		.loc 1 1156 0 is_stmt 1
 4654 001a 0028     		cmp	r0, #0
 4655 001c 09D0     		beq	.L404
 4656              	.LVL465:
1157:Middlewares/Third_Party/FreeRTOS/Source/CMSIS_RTOS_V2/cmsis_os2.c ****     stat = osErrorParameter;
1158:Middlewares/Third_Party/FreeRTOS/Source/CMSIS_RTOS_V2/cmsis_os2.c ****   }
1159:Middlewares/Third_Party/FreeRTOS/Source/CMSIS_RTOS_V2/cmsis_os2.c ****   else {
1160:Middlewares/Third_Party/FreeRTOS/Source/CMSIS_RTOS_V2/cmsis_os2.c ****     stat = osOK;
1161:Middlewares/Third_Party/FreeRTOS/Source/CMSIS_RTOS_V2/cmsis_os2.c ****     vEventGroupDelete (hEventGroup);
 4657              		.loc 1 1161 0
 4658 001e FFF7FEFF 		bl	vEventGroupDelete
 4659              	.LVL466:
1160:Middlewares/Third_Party/FreeRTOS/Source/CMSIS_RTOS_V2/cmsis_os2.c ****     vEventGroupDelete (hEventGroup);
 4660              		.loc 1 1160 0
 4661 0022 0020     		movs	r0, #0
 4662              	.LVL467:
 4663              	.L399:
1162:Middlewares/Third_Party/FreeRTOS/Source/CMSIS_RTOS_V2/cmsis_os2.c ****   }
1163:Middlewares/Third_Party/FreeRTOS/Source/CMSIS_RTOS_V2/cmsis_os2.c **** #else
1164:Middlewares/Third_Party/FreeRTOS/Source/CMSIS_RTOS_V2/cmsis_os2.c ****   stat = osError;
1165:Middlewares/Third_Party/FreeRTOS/Source/CMSIS_RTOS_V2/cmsis_os2.c **** #endif
1166:Middlewares/Third_Party/FreeRTOS/Source/CMSIS_RTOS_V2/cmsis_os2.c **** 
1167:Middlewares/Third_Party/FreeRTOS/Source/CMSIS_RTOS_V2/cmsis_os2.c ****   return (stat);
1168:Middlewares/Third_Party/FreeRTOS/Source/CMSIS_RTOS_V2/cmsis_os2.c **** }
 4664              		.loc 1 1168 0
 4665              		@ sp needed
 4666 0024 10BD     		pop	{r4, pc}
 4667              	.LVL468:
 4668              	.L402:
1154:Middlewares/Third_Party/FreeRTOS/Source/CMSIS_RTOS_V2/cmsis_os2.c ****   }
 4669              		.loc 1 1154 0
 4670 0026 0620     		movs	r0, #6
 4671              	.LVL469:
ARM GAS  /tmp/ccJ2K96T.s 			page 117


 4672 0028 4042     		rsbs	r0, r0, #0
 4673 002a FBE7     		b	.L399
 4674              	.LVL470:
 4675              	.L403:
 4676 002c 0620     		movs	r0, #6
 4677              	.LVL471:
 4678 002e 4042     		rsbs	r0, r0, #0
 4679 0030 F8E7     		b	.L399
 4680              	.LVL472:
 4681              	.L404:
1157:Middlewares/Third_Party/FreeRTOS/Source/CMSIS_RTOS_V2/cmsis_os2.c ****   }
 4682              		.loc 1 1157 0
 4683 0032 0420     		movs	r0, #4
 4684              	.LVL473:
 4685 0034 4042     		rsbs	r0, r0, #0
 4686              	.LVL474:
1167:Middlewares/Third_Party/FreeRTOS/Source/CMSIS_RTOS_V2/cmsis_os2.c **** }
 4687              		.loc 1 1167 0
 4688 0036 F5E7     		b	.L399
 4689              	.L406:
 4690              		.align	2
 4691              	.L405:
 4692 0038 00000000 		.word	.LANCHOR0
 4693              		.cfi_endproc
 4694              	.LFE69:
 4696              		.section	.text.osMutexNew,"ax",%progbits
 4697              		.align	1
 4698              		.global	osMutexNew
 4699              		.syntax unified
 4700              		.code	16
 4701              		.thumb_func
 4702              		.fpu softvfp
 4704              	osMutexNew:
 4705              	.LFB70:
1169:Middlewares/Third_Party/FreeRTOS/Source/CMSIS_RTOS_V2/cmsis_os2.c **** 
1170:Middlewares/Third_Party/FreeRTOS/Source/CMSIS_RTOS_V2/cmsis_os2.c **** /*---------------------------------------------------------------------------*/
1171:Middlewares/Third_Party/FreeRTOS/Source/CMSIS_RTOS_V2/cmsis_os2.c **** 
1172:Middlewares/Third_Party/FreeRTOS/Source/CMSIS_RTOS_V2/cmsis_os2.c **** osMutexId_t osMutexNew (const osMutexAttr_t *attr) {
 4706              		.loc 1 1172 0
 4707              		.cfi_startproc
 4708              		@ args = 0, pretend = 0, frame = 0
 4709              		@ frame_needed = 0, uses_anonymous_args = 0
 4710              	.LVL475:
 4711 0000 70B5     		push	{r4, r5, r6, lr}
 4712              	.LCFI55:
 4713              		.cfi_def_cfa_offset 16
 4714              		.cfi_offset 4, -16
 4715              		.cfi_offset 5, -12
 4716              		.cfi_offset 6, -8
 4717              		.cfi_offset 14, -4
 4718 0002 0400     		movs	r4, r0
 4719              	.LVL476:
 4720              	.LBB366:
 4721              	.LBB367:
 209:Drivers/CMSIS/Include/cmsis_gcc.h ****   return(result);
 4722              		.loc 2 209 0
 4723              		.syntax divided
ARM GAS  /tmp/ccJ2K96T.s 			page 118


 4724              	@ 209 "Drivers/CMSIS/Include/cmsis_gcc.h" 1
 4725 0004 EFF30586 		MRS r6, ipsr
 4726              	@ 0 "" 2
 4727              		.thumb
 4728              		.syntax unified
 4729              	.LBE367:
 4730              	.LBE366:
1173:Middlewares/Third_Party/FreeRTOS/Source/CMSIS_RTOS_V2/cmsis_os2.c ****   SemaphoreHandle_t hMutex;
1174:Middlewares/Third_Party/FreeRTOS/Source/CMSIS_RTOS_V2/cmsis_os2.c ****   uint32_t type;
1175:Middlewares/Third_Party/FreeRTOS/Source/CMSIS_RTOS_V2/cmsis_os2.c ****   uint32_t rmtx;
1176:Middlewares/Third_Party/FreeRTOS/Source/CMSIS_RTOS_V2/cmsis_os2.c ****   int32_t  mem;
1177:Middlewares/Third_Party/FreeRTOS/Source/CMSIS_RTOS_V2/cmsis_os2.c ****   #if (configQUEUE_REGISTRY_SIZE > 0)
1178:Middlewares/Third_Party/FreeRTOS/Source/CMSIS_RTOS_V2/cmsis_os2.c ****   const char *name;
1179:Middlewares/Third_Party/FreeRTOS/Source/CMSIS_RTOS_V2/cmsis_os2.c ****   #endif
1180:Middlewares/Third_Party/FreeRTOS/Source/CMSIS_RTOS_V2/cmsis_os2.c **** 
1181:Middlewares/Third_Party/FreeRTOS/Source/CMSIS_RTOS_V2/cmsis_os2.c ****   hMutex = NULL;
1182:Middlewares/Third_Party/FreeRTOS/Source/CMSIS_RTOS_V2/cmsis_os2.c **** 
1183:Middlewares/Third_Party/FreeRTOS/Source/CMSIS_RTOS_V2/cmsis_os2.c ****   if (!IS_IRQ()) {
 4731              		.loc 1 1183 0
 4732 0008 002E     		cmp	r6, #0
 4733 000a 54D1     		bne	.L420
 4734              	.LBB368:
 4735              	.LBB369:
 4736              		.loc 2 386 0
 4737              		.syntax divided
 4738              	@ 386 "Drivers/CMSIS/Include/cmsis_gcc.h" 1
 4739 000c EFF31083 		MRS r3, primask
 4740              	@ 0 "" 2
 4741              		.thumb
 4742              		.syntax unified
 4743              	.LBE369:
 4744              	.LBE368:
 4745              		.loc 1 1183 0
 4746 0010 002B     		cmp	r3, #0
 4747 0012 03D0     		beq	.L409
 4748              		.loc 1 1183 0 is_stmt 0 discriminator 2
 4749 0014 2B4B     		ldr	r3, .L430
 4750 0016 1B68     		ldr	r3, [r3]
 4751 0018 022B     		cmp	r3, #2
 4752 001a 4ED0     		beq	.L421
 4753              	.L409:
1184:Middlewares/Third_Party/FreeRTOS/Source/CMSIS_RTOS_V2/cmsis_os2.c ****     if (attr != NULL) {
 4754              		.loc 1 1184 0 is_stmt 1
 4755 001c 002C     		cmp	r4, #0
 4756 001e 29D0     		beq	.L422
1185:Middlewares/Third_Party/FreeRTOS/Source/CMSIS_RTOS_V2/cmsis_os2.c ****       type = attr->attr_bits;
 4757              		.loc 1 1185 0
 4758 0020 6368     		ldr	r3, [r4, #4]
 4759              	.LVL477:
 4760              	.L410:
1186:Middlewares/Third_Party/FreeRTOS/Source/CMSIS_RTOS_V2/cmsis_os2.c ****     } else {
1187:Middlewares/Third_Party/FreeRTOS/Source/CMSIS_RTOS_V2/cmsis_os2.c ****       type = 0U;
1188:Middlewares/Third_Party/FreeRTOS/Source/CMSIS_RTOS_V2/cmsis_os2.c ****     }
1189:Middlewares/Third_Party/FreeRTOS/Source/CMSIS_RTOS_V2/cmsis_os2.c **** 
1190:Middlewares/Third_Party/FreeRTOS/Source/CMSIS_RTOS_V2/cmsis_os2.c ****     if ((type & osMutexRecursive) == osMutexRecursive) {
 4761              		.loc 1 1190 0
 4762 0022 DA07     		lsls	r2, r3, #31
ARM GAS  /tmp/ccJ2K96T.s 			page 119


 4763 0024 00D5     		bpl	.L411
1191:Middlewares/Third_Party/FreeRTOS/Source/CMSIS_RTOS_V2/cmsis_os2.c ****       rmtx = 1U;
 4764              		.loc 1 1191 0
 4765 0026 0126     		movs	r6, #1
 4766              	.L411:
 4767              	.LVL478:
1192:Middlewares/Third_Party/FreeRTOS/Source/CMSIS_RTOS_V2/cmsis_os2.c ****     } else {
1193:Middlewares/Third_Party/FreeRTOS/Source/CMSIS_RTOS_V2/cmsis_os2.c ****       rmtx = 0U;
1194:Middlewares/Third_Party/FreeRTOS/Source/CMSIS_RTOS_V2/cmsis_os2.c ****     }
1195:Middlewares/Third_Party/FreeRTOS/Source/CMSIS_RTOS_V2/cmsis_os2.c **** 
1196:Middlewares/Third_Party/FreeRTOS/Source/CMSIS_RTOS_V2/cmsis_os2.c ****     if ((type & osMutexRobust) != osMutexRobust) {
 4768              		.loc 1 1196 0
 4769 0028 1B07     		lsls	r3, r3, #28
 4770 002a 48D4     		bmi	.L423
 4771              	.LVL479:
1197:Middlewares/Third_Party/FreeRTOS/Source/CMSIS_RTOS_V2/cmsis_os2.c ****       mem = -1;
1198:Middlewares/Third_Party/FreeRTOS/Source/CMSIS_RTOS_V2/cmsis_os2.c **** 
1199:Middlewares/Third_Party/FreeRTOS/Source/CMSIS_RTOS_V2/cmsis_os2.c ****       if (attr != NULL) {
 4772              		.loc 1 1199 0
 4773 002c 002C     		cmp	r4, #0
 4774 002e 35D0     		beq	.L424
1200:Middlewares/Third_Party/FreeRTOS/Source/CMSIS_RTOS_V2/cmsis_os2.c ****         if ((attr->cb_mem != NULL) && (attr->cb_size >= sizeof(StaticSemaphore_t))) {
 4775              		.loc 1 1200 0
 4776 0030 A168     		ldr	r1, [r4, #8]
 4777 0032 0029     		cmp	r1, #0
 4778 0034 02D0     		beq	.L413
 4779              		.loc 1 1200 0 is_stmt 0 discriminator 1
 4780 0036 E368     		ldr	r3, [r4, #12]
 4781 0038 4F2B     		cmp	r3, #79
 4782 003a 23D8     		bhi	.L414
 4783              	.L413:
1201:Middlewares/Third_Party/FreeRTOS/Source/CMSIS_RTOS_V2/cmsis_os2.c ****           mem = 1;
1202:Middlewares/Third_Party/FreeRTOS/Source/CMSIS_RTOS_V2/cmsis_os2.c ****         }
1203:Middlewares/Third_Party/FreeRTOS/Source/CMSIS_RTOS_V2/cmsis_os2.c ****         else {
1204:Middlewares/Third_Party/FreeRTOS/Source/CMSIS_RTOS_V2/cmsis_os2.c ****           if ((attr->cb_mem == NULL) && (attr->cb_size == 0U)) {
 4784              		.loc 1 1204 0 is_stmt 1
 4785 003c 0029     		cmp	r1, #0
 4786 003e 1BD0     		beq	.L429
1197:Middlewares/Third_Party/FreeRTOS/Source/CMSIS_RTOS_V2/cmsis_os2.c **** 
 4787              		.loc 1 1197 0
 4788 0040 0123     		movs	r3, #1
 4789 0042 5B42     		rsbs	r3, r3, #0
 4790              	.L412:
1205:Middlewares/Third_Party/FreeRTOS/Source/CMSIS_RTOS_V2/cmsis_os2.c ****             mem = 0;
1206:Middlewares/Third_Party/FreeRTOS/Source/CMSIS_RTOS_V2/cmsis_os2.c ****           }
1207:Middlewares/Third_Party/FreeRTOS/Source/CMSIS_RTOS_V2/cmsis_os2.c ****         }
1208:Middlewares/Third_Party/FreeRTOS/Source/CMSIS_RTOS_V2/cmsis_os2.c ****       }
1209:Middlewares/Third_Party/FreeRTOS/Source/CMSIS_RTOS_V2/cmsis_os2.c ****       else {
1210:Middlewares/Third_Party/FreeRTOS/Source/CMSIS_RTOS_V2/cmsis_os2.c ****         mem = 0;
1211:Middlewares/Third_Party/FreeRTOS/Source/CMSIS_RTOS_V2/cmsis_os2.c ****       }
1212:Middlewares/Third_Party/FreeRTOS/Source/CMSIS_RTOS_V2/cmsis_os2.c **** 
1213:Middlewares/Third_Party/FreeRTOS/Source/CMSIS_RTOS_V2/cmsis_os2.c ****       if (mem == 1) {
1214:Middlewares/Third_Party/FreeRTOS/Source/CMSIS_RTOS_V2/cmsis_os2.c ****         if (rmtx != 0U) {
1215:Middlewares/Third_Party/FreeRTOS/Source/CMSIS_RTOS_V2/cmsis_os2.c ****           hMutex = xSemaphoreCreateRecursiveMutexStatic (attr->cb_mem);
1216:Middlewares/Third_Party/FreeRTOS/Source/CMSIS_RTOS_V2/cmsis_os2.c ****         }
1217:Middlewares/Third_Party/FreeRTOS/Source/CMSIS_RTOS_V2/cmsis_os2.c ****         else {
1218:Middlewares/Third_Party/FreeRTOS/Source/CMSIS_RTOS_V2/cmsis_os2.c ****           hMutex = xSemaphoreCreateMutexStatic (attr->cb_mem);
ARM GAS  /tmp/ccJ2K96T.s 			page 120


1219:Middlewares/Third_Party/FreeRTOS/Source/CMSIS_RTOS_V2/cmsis_os2.c ****         }
1220:Middlewares/Third_Party/FreeRTOS/Source/CMSIS_RTOS_V2/cmsis_os2.c ****       }
1221:Middlewares/Third_Party/FreeRTOS/Source/CMSIS_RTOS_V2/cmsis_os2.c ****       else {
1222:Middlewares/Third_Party/FreeRTOS/Source/CMSIS_RTOS_V2/cmsis_os2.c ****         if (mem == 0) {
 4791              		.loc 1 1222 0
 4792 0044 002B     		cmp	r3, #0
 4793 0046 34D1     		bne	.L427
1223:Middlewares/Third_Party/FreeRTOS/Source/CMSIS_RTOS_V2/cmsis_os2.c ****           if (rmtx != 0U) {
 4794              		.loc 1 1223 0
 4795 0048 002E     		cmp	r6, #0
 4796 004a 2BD0     		beq	.L418
1224:Middlewares/Third_Party/FreeRTOS/Source/CMSIS_RTOS_V2/cmsis_os2.c ****             hMutex = xSemaphoreCreateRecursiveMutex ();
 4797              		.loc 1 1224 0
 4798 004c 0420     		movs	r0, #4
 4799              	.LVL480:
 4800 004e FFF7FEFF 		bl	xQueueCreateMutex
 4801              	.LVL481:
 4802 0052 0500     		movs	r5, r0
 4803              	.LVL482:
 4804              	.L416:
1225:Middlewares/Third_Party/FreeRTOS/Source/CMSIS_RTOS_V2/cmsis_os2.c ****           } else {
1226:Middlewares/Third_Party/FreeRTOS/Source/CMSIS_RTOS_V2/cmsis_os2.c ****             hMutex = xSemaphoreCreateMutex ();
1227:Middlewares/Third_Party/FreeRTOS/Source/CMSIS_RTOS_V2/cmsis_os2.c ****           }
1228:Middlewares/Third_Party/FreeRTOS/Source/CMSIS_RTOS_V2/cmsis_os2.c ****         }
1229:Middlewares/Third_Party/FreeRTOS/Source/CMSIS_RTOS_V2/cmsis_os2.c ****       }
1230:Middlewares/Third_Party/FreeRTOS/Source/CMSIS_RTOS_V2/cmsis_os2.c **** 
1231:Middlewares/Third_Party/FreeRTOS/Source/CMSIS_RTOS_V2/cmsis_os2.c ****       #if (configQUEUE_REGISTRY_SIZE > 0)
1232:Middlewares/Third_Party/FreeRTOS/Source/CMSIS_RTOS_V2/cmsis_os2.c ****       if (hMutex != NULL) {
 4805              		.loc 1 1232 0
 4806 0054 002D     		cmp	r5, #0
 4807 0056 05D0     		beq	.L417
1233:Middlewares/Third_Party/FreeRTOS/Source/CMSIS_RTOS_V2/cmsis_os2.c ****         if (attr != NULL) {
 4808              		.loc 1 1233 0
 4809 0058 002C     		cmp	r4, #0
 4810 005a 28D0     		beq	.L428
1234:Middlewares/Third_Party/FreeRTOS/Source/CMSIS_RTOS_V2/cmsis_os2.c ****           name = attr->name;
 4811              		.loc 1 1234 0
 4812 005c 2168     		ldr	r1, [r4]
 4813              	.LVL483:
 4814              	.L419:
1235:Middlewares/Third_Party/FreeRTOS/Source/CMSIS_RTOS_V2/cmsis_os2.c ****         } else {
1236:Middlewares/Third_Party/FreeRTOS/Source/CMSIS_RTOS_V2/cmsis_os2.c ****           name = NULL;
1237:Middlewares/Third_Party/FreeRTOS/Source/CMSIS_RTOS_V2/cmsis_os2.c ****         }
1238:Middlewares/Third_Party/FreeRTOS/Source/CMSIS_RTOS_V2/cmsis_os2.c ****         vQueueAddToRegistry (hMutex, name);
 4815              		.loc 1 1238 0
 4816 005e 2800     		movs	r0, r5
 4817              	.LVL484:
 4818 0060 FFF7FEFF 		bl	vQueueAddToRegistry
 4819              	.LVL485:
 4820              	.L417:
1239:Middlewares/Third_Party/FreeRTOS/Source/CMSIS_RTOS_V2/cmsis_os2.c ****       }
1240:Middlewares/Third_Party/FreeRTOS/Source/CMSIS_RTOS_V2/cmsis_os2.c ****       #endif
1241:Middlewares/Third_Party/FreeRTOS/Source/CMSIS_RTOS_V2/cmsis_os2.c **** 
1242:Middlewares/Third_Party/FreeRTOS/Source/CMSIS_RTOS_V2/cmsis_os2.c ****       if ((hMutex != NULL) && (rmtx != 0U)) {
 4821              		.loc 1 1242 0
 4822 0064 002D     		cmp	r5, #0
 4823 0066 03D0     		beq	.L407
ARM GAS  /tmp/ccJ2K96T.s 			page 121


 4824              		.loc 1 1242 0 is_stmt 0 discriminator 1
 4825 0068 002E     		cmp	r6, #0
 4826 006a 01D0     		beq	.L407
1243:Middlewares/Third_Party/FreeRTOS/Source/CMSIS_RTOS_V2/cmsis_os2.c ****         hMutex = (SemaphoreHandle_t)((uint32_t)hMutex | 1U);
 4827              		.loc 1 1243 0 is_stmt 1
 4828 006c 0123     		movs	r3, #1
 4829 006e 1D43     		orrs	r5, r3
 4830              	.LVL486:
 4831              	.L407:
1244:Middlewares/Third_Party/FreeRTOS/Source/CMSIS_RTOS_V2/cmsis_os2.c ****       }
1245:Middlewares/Third_Party/FreeRTOS/Source/CMSIS_RTOS_V2/cmsis_os2.c ****     }
1246:Middlewares/Third_Party/FreeRTOS/Source/CMSIS_RTOS_V2/cmsis_os2.c ****   }
1247:Middlewares/Third_Party/FreeRTOS/Source/CMSIS_RTOS_V2/cmsis_os2.c **** 
1248:Middlewares/Third_Party/FreeRTOS/Source/CMSIS_RTOS_V2/cmsis_os2.c ****   return ((osMutexId_t)hMutex);
1249:Middlewares/Third_Party/FreeRTOS/Source/CMSIS_RTOS_V2/cmsis_os2.c **** }
 4832              		.loc 1 1249 0
 4833 0070 2800     		movs	r0, r5
 4834              		@ sp needed
 4835              	.LVL487:
 4836 0072 70BD     		pop	{r4, r5, r6, pc}
 4837              	.LVL488:
 4838              	.L422:
1187:Middlewares/Third_Party/FreeRTOS/Source/CMSIS_RTOS_V2/cmsis_os2.c ****     }
 4839              		.loc 1 1187 0
 4840 0074 3300     		movs	r3, r6
 4841 0076 D4E7     		b	.L410
 4842              	.LVL489:
 4843              	.L429:
1204:Middlewares/Third_Party/FreeRTOS/Source/CMSIS_RTOS_V2/cmsis_os2.c ****             mem = 0;
 4844              		.loc 1 1204 0 discriminator 1
 4845 0078 E368     		ldr	r3, [r4, #12]
 4846 007a 002B     		cmp	r3, #0
 4847 007c 10D0     		beq	.L426
1197:Middlewares/Third_Party/FreeRTOS/Source/CMSIS_RTOS_V2/cmsis_os2.c **** 
 4848              		.loc 1 1197 0
 4849 007e 0123     		movs	r3, #1
 4850 0080 5B42     		rsbs	r3, r3, #0
 4851 0082 DFE7     		b	.L412
 4852              	.L414:
 4853              	.LVL490:
1214:Middlewares/Third_Party/FreeRTOS/Source/CMSIS_RTOS_V2/cmsis_os2.c ****           hMutex = xSemaphoreCreateRecursiveMutexStatic (attr->cb_mem);
 4854              		.loc 1 1214 0
 4855 0084 002E     		cmp	r6, #0
 4856 0086 04D0     		beq	.L415
1215:Middlewares/Third_Party/FreeRTOS/Source/CMSIS_RTOS_V2/cmsis_os2.c ****         }
 4857              		.loc 1 1215 0
 4858 0088 0420     		movs	r0, #4
 4859              	.LVL491:
 4860 008a FFF7FEFF 		bl	xQueueCreateMutexStatic
 4861              	.LVL492:
 4862 008e 0500     		movs	r5, r0
 4863              	.LVL493:
 4864 0090 E0E7     		b	.L416
 4865              	.LVL494:
 4866              	.L415:
1218:Middlewares/Third_Party/FreeRTOS/Source/CMSIS_RTOS_V2/cmsis_os2.c ****         }
 4867              		.loc 1 1218 0
ARM GAS  /tmp/ccJ2K96T.s 			page 122


 4868 0092 0120     		movs	r0, #1
 4869              	.LVL495:
 4870 0094 FFF7FEFF 		bl	xQueueCreateMutexStatic
 4871              	.LVL496:
 4872 0098 0500     		movs	r5, r0
 4873              	.LVL497:
 4874 009a DBE7     		b	.L416
 4875              	.LVL498:
 4876              	.L424:
1210:Middlewares/Third_Party/FreeRTOS/Source/CMSIS_RTOS_V2/cmsis_os2.c ****       }
 4877              		.loc 1 1210 0
 4878 009c 0023     		movs	r3, #0
 4879 009e D1E7     		b	.L412
 4880              	.L426:
1205:Middlewares/Third_Party/FreeRTOS/Source/CMSIS_RTOS_V2/cmsis_os2.c ****           }
 4881              		.loc 1 1205 0
 4882 00a0 0023     		movs	r3, #0
 4883 00a2 CFE7     		b	.L412
 4884              	.L418:
1226:Middlewares/Third_Party/FreeRTOS/Source/CMSIS_RTOS_V2/cmsis_os2.c ****           }
 4885              		.loc 1 1226 0
 4886 00a4 0120     		movs	r0, #1
 4887              	.LVL499:
 4888 00a6 FFF7FEFF 		bl	xQueueCreateMutex
 4889              	.LVL500:
 4890 00aa 0500     		movs	r5, r0
 4891              	.LVL501:
 4892 00ac D2E7     		b	.L416
 4893              	.LVL502:
 4894              	.L428:
1236:Middlewares/Third_Party/FreeRTOS/Source/CMSIS_RTOS_V2/cmsis_os2.c ****         }
 4895              		.loc 1 1236 0
 4896 00ae 0021     		movs	r1, #0
 4897 00b0 D5E7     		b	.L419
 4898              	.LVL503:
 4899              	.L427:
1181:Middlewares/Third_Party/FreeRTOS/Source/CMSIS_RTOS_V2/cmsis_os2.c **** 
 4900              		.loc 1 1181 0
 4901 00b2 0025     		movs	r5, #0
 4902 00b4 D6E7     		b	.L417
 4903              	.LVL504:
 4904              	.L420:
 4905 00b6 0025     		movs	r5, #0
 4906 00b8 DAE7     		b	.L407
 4907              	.L421:
 4908 00ba 0025     		movs	r5, #0
 4909 00bc D8E7     		b	.L407
 4910              	.LVL505:
 4911              	.L423:
 4912 00be 0025     		movs	r5, #0
1248:Middlewares/Third_Party/FreeRTOS/Source/CMSIS_RTOS_V2/cmsis_os2.c **** }
 4913              		.loc 1 1248 0
 4914 00c0 D6E7     		b	.L407
 4915              	.L431:
 4916 00c2 C046     		.align	2
 4917              	.L430:
 4918 00c4 00000000 		.word	.LANCHOR0
ARM GAS  /tmp/ccJ2K96T.s 			page 123


 4919              		.cfi_endproc
 4920              	.LFE70:
 4922              		.section	.text.osMutexAcquire,"ax",%progbits
 4923              		.align	1
 4924              		.global	osMutexAcquire
 4925              		.syntax unified
 4926              		.code	16
 4927              		.thumb_func
 4928              		.fpu softvfp
 4930              	osMutexAcquire:
 4931              	.LFB71:
1250:Middlewares/Third_Party/FreeRTOS/Source/CMSIS_RTOS_V2/cmsis_os2.c **** 
1251:Middlewares/Third_Party/FreeRTOS/Source/CMSIS_RTOS_V2/cmsis_os2.c **** osStatus_t osMutexAcquire (osMutexId_t mutex_id, uint32_t timeout) {
 4932              		.loc 1 1251 0
 4933              		.cfi_startproc
 4934              		@ args = 0, pretend = 0, frame = 0
 4935              		@ frame_needed = 0, uses_anonymous_args = 0
 4936              	.LVL506:
 4937 0000 10B5     		push	{r4, lr}
 4938              	.LCFI56:
 4939              		.cfi_def_cfa_offset 8
 4940              		.cfi_offset 4, -8
 4941              		.cfi_offset 14, -4
 4942 0002 0C00     		movs	r4, r1
1252:Middlewares/Third_Party/FreeRTOS/Source/CMSIS_RTOS_V2/cmsis_os2.c ****   SemaphoreHandle_t hMutex;
1253:Middlewares/Third_Party/FreeRTOS/Source/CMSIS_RTOS_V2/cmsis_os2.c ****   osStatus_t stat;
1254:Middlewares/Third_Party/FreeRTOS/Source/CMSIS_RTOS_V2/cmsis_os2.c ****   uint32_t rmtx;
1255:Middlewares/Third_Party/FreeRTOS/Source/CMSIS_RTOS_V2/cmsis_os2.c **** 
1256:Middlewares/Third_Party/FreeRTOS/Source/CMSIS_RTOS_V2/cmsis_os2.c ****   hMutex = (SemaphoreHandle_t)((uint32_t)mutex_id & ~1U);
 4943              		.loc 1 1256 0
 4944 0004 0123     		movs	r3, #1
 4945 0006 0200     		movs	r2, r0
 4946 0008 9A43     		bics	r2, r3
 4947              	.LVL507:
1257:Middlewares/Third_Party/FreeRTOS/Source/CMSIS_RTOS_V2/cmsis_os2.c **** 
1258:Middlewares/Third_Party/FreeRTOS/Source/CMSIS_RTOS_V2/cmsis_os2.c ****   rmtx = (uint32_t)mutex_id & 1U;
 4948              		.loc 1 1258 0
 4949 000a 0340     		ands	r3, r0
 4950              	.LVL508:
 4951              	.LBB370:
 4952              	.LBB371:
 209:Drivers/CMSIS/Include/cmsis_gcc.h ****   return(result);
 4953              		.loc 2 209 0
 4954              		.syntax divided
 4955              	@ 209 "Drivers/CMSIS/Include/cmsis_gcc.h" 1
 4956 000c EFF30581 		MRS r1, ipsr
 4957              	@ 0 "" 2
 4958              	.LVL509:
 4959              		.thumb
 4960              		.syntax unified
 4961              	.LBE371:
 4962              	.LBE370:
1259:Middlewares/Third_Party/FreeRTOS/Source/CMSIS_RTOS_V2/cmsis_os2.c **** 
1260:Middlewares/Third_Party/FreeRTOS/Source/CMSIS_RTOS_V2/cmsis_os2.c ****   stat = osOK;
1261:Middlewares/Third_Party/FreeRTOS/Source/CMSIS_RTOS_V2/cmsis_os2.c **** 
1262:Middlewares/Third_Party/FreeRTOS/Source/CMSIS_RTOS_V2/cmsis_os2.c ****   if (IS_IRQ()) {
 4963              		.loc 1 1262 0
ARM GAS  /tmp/ccJ2K96T.s 			page 124


 4964 0010 0029     		cmp	r1, #0
 4965 0012 21D1     		bne	.L436
 4966              	.LBB372:
 4967              	.LBB373:
 4968              		.loc 2 386 0
 4969              		.syntax divided
 4970              	@ 386 "Drivers/CMSIS/Include/cmsis_gcc.h" 1
 4971 0014 EFF31081 		MRS r1, primask
 4972              	@ 0 "" 2
 4973              		.thumb
 4974              		.syntax unified
 4975              	.LBE373:
 4976              	.LBE372:
 4977              		.loc 1 1262 0
 4978 0018 0029     		cmp	r1, #0
 4979 001a 03D0     		beq	.L434
 4980              		.loc 1 1262 0 is_stmt 0 discriminator 2
 4981 001c 1849     		ldr	r1, .L443
 4982 001e 0968     		ldr	r1, [r1]
 4983 0020 0229     		cmp	r1, #2
 4984 0022 1CD0     		beq	.L437
 4985              	.L434:
1263:Middlewares/Third_Party/FreeRTOS/Source/CMSIS_RTOS_V2/cmsis_os2.c ****     stat = osErrorISR;
1264:Middlewares/Third_Party/FreeRTOS/Source/CMSIS_RTOS_V2/cmsis_os2.c ****   }
1265:Middlewares/Third_Party/FreeRTOS/Source/CMSIS_RTOS_V2/cmsis_os2.c ****   else if (hMutex == NULL) {
 4986              		.loc 1 1265 0 is_stmt 1
 4987 0024 002A     		cmp	r2, #0
 4988 0026 1DD0     		beq	.L438
1266:Middlewares/Third_Party/FreeRTOS/Source/CMSIS_RTOS_V2/cmsis_os2.c ****     stat = osErrorParameter;
1267:Middlewares/Third_Party/FreeRTOS/Source/CMSIS_RTOS_V2/cmsis_os2.c ****   }
1268:Middlewares/Third_Party/FreeRTOS/Source/CMSIS_RTOS_V2/cmsis_os2.c ****   else {
1269:Middlewares/Third_Party/FreeRTOS/Source/CMSIS_RTOS_V2/cmsis_os2.c ****     if (rmtx != 0U) {
 4989              		.loc 1 1269 0
 4990 0028 002B     		cmp	r3, #0
 4991 002a 0AD0     		beq	.L435
1270:Middlewares/Third_Party/FreeRTOS/Source/CMSIS_RTOS_V2/cmsis_os2.c ****       if (xSemaphoreTakeRecursive (hMutex, timeout) != pdPASS) {
 4992              		.loc 1 1270 0
 4993 002c 2100     		movs	r1, r4
 4994 002e 1000     		movs	r0, r2
 4995              	.LVL510:
 4996 0030 FFF7FEFF 		bl	xQueueTakeMutexRecursive
 4997              	.LVL511:
 4998 0034 0128     		cmp	r0, #1
 4999 0036 18D0     		beq	.L439
1271:Middlewares/Third_Party/FreeRTOS/Source/CMSIS_RTOS_V2/cmsis_os2.c ****         if (timeout != 0U) {
 5000              		.loc 1 1271 0
 5001 0038 002C     		cmp	r4, #0
 5002 003a 18D0     		beq	.L440
1272:Middlewares/Third_Party/FreeRTOS/Source/CMSIS_RTOS_V2/cmsis_os2.c ****           stat = osErrorTimeout;
 5003              		.loc 1 1272 0
 5004 003c 0220     		movs	r0, #2
 5005 003e 4042     		rsbs	r0, r0, #0
 5006              	.LVL512:
 5007              	.L432:
1273:Middlewares/Third_Party/FreeRTOS/Source/CMSIS_RTOS_V2/cmsis_os2.c ****         } else {
1274:Middlewares/Third_Party/FreeRTOS/Source/CMSIS_RTOS_V2/cmsis_os2.c ****           stat = osErrorResource;
1275:Middlewares/Third_Party/FreeRTOS/Source/CMSIS_RTOS_V2/cmsis_os2.c ****         }
ARM GAS  /tmp/ccJ2K96T.s 			page 125


1276:Middlewares/Third_Party/FreeRTOS/Source/CMSIS_RTOS_V2/cmsis_os2.c ****       }
1277:Middlewares/Third_Party/FreeRTOS/Source/CMSIS_RTOS_V2/cmsis_os2.c ****     }
1278:Middlewares/Third_Party/FreeRTOS/Source/CMSIS_RTOS_V2/cmsis_os2.c ****     else {
1279:Middlewares/Third_Party/FreeRTOS/Source/CMSIS_RTOS_V2/cmsis_os2.c ****       if (xSemaphoreTake (hMutex, timeout) != pdPASS) {
1280:Middlewares/Third_Party/FreeRTOS/Source/CMSIS_RTOS_V2/cmsis_os2.c ****         if (timeout != 0U) {
1281:Middlewares/Third_Party/FreeRTOS/Source/CMSIS_RTOS_V2/cmsis_os2.c ****           stat = osErrorTimeout;
1282:Middlewares/Third_Party/FreeRTOS/Source/CMSIS_RTOS_V2/cmsis_os2.c ****         } else {
1283:Middlewares/Third_Party/FreeRTOS/Source/CMSIS_RTOS_V2/cmsis_os2.c ****           stat = osErrorResource;
1284:Middlewares/Third_Party/FreeRTOS/Source/CMSIS_RTOS_V2/cmsis_os2.c ****         }
1285:Middlewares/Third_Party/FreeRTOS/Source/CMSIS_RTOS_V2/cmsis_os2.c ****       }
1286:Middlewares/Third_Party/FreeRTOS/Source/CMSIS_RTOS_V2/cmsis_os2.c ****     }
1287:Middlewares/Third_Party/FreeRTOS/Source/CMSIS_RTOS_V2/cmsis_os2.c ****   }
1288:Middlewares/Third_Party/FreeRTOS/Source/CMSIS_RTOS_V2/cmsis_os2.c **** 
1289:Middlewares/Third_Party/FreeRTOS/Source/CMSIS_RTOS_V2/cmsis_os2.c ****   return (stat);
1290:Middlewares/Third_Party/FreeRTOS/Source/CMSIS_RTOS_V2/cmsis_os2.c **** }
 5008              		.loc 1 1290 0
 5009              		@ sp needed
 5010              	.LVL513:
 5011 0040 10BD     		pop	{r4, pc}
 5012              	.LVL514:
 5013              	.L435:
1279:Middlewares/Third_Party/FreeRTOS/Source/CMSIS_RTOS_V2/cmsis_os2.c ****         if (timeout != 0U) {
 5014              		.loc 1 1279 0
 5015 0042 2100     		movs	r1, r4
 5016 0044 1000     		movs	r0, r2
 5017              	.LVL515:
 5018 0046 FFF7FEFF 		bl	xQueueSemaphoreTake
 5019              	.LVL516:
 5020 004a 0128     		cmp	r0, #1
 5021 004c 12D0     		beq	.L441
1280:Middlewares/Third_Party/FreeRTOS/Source/CMSIS_RTOS_V2/cmsis_os2.c ****           stat = osErrorTimeout;
 5022              		.loc 1 1280 0
 5023 004e 002C     		cmp	r4, #0
 5024 0050 12D0     		beq	.L442
1281:Middlewares/Third_Party/FreeRTOS/Source/CMSIS_RTOS_V2/cmsis_os2.c ****         } else {
 5025              		.loc 1 1281 0
 5026 0052 0220     		movs	r0, #2
 5027 0054 4042     		rsbs	r0, r0, #0
 5028 0056 F3E7     		b	.L432
 5029              	.LVL517:
 5030              	.L436:
1263:Middlewares/Third_Party/FreeRTOS/Source/CMSIS_RTOS_V2/cmsis_os2.c ****   }
 5031              		.loc 1 1263 0
 5032 0058 0620     		movs	r0, #6
 5033              	.LVL518:
 5034 005a 4042     		rsbs	r0, r0, #0
 5035 005c F0E7     		b	.L432
 5036              	.LVL519:
 5037              	.L437:
 5038 005e 0620     		movs	r0, #6
 5039              	.LVL520:
 5040 0060 4042     		rsbs	r0, r0, #0
 5041 0062 EDE7     		b	.L432
 5042              	.LVL521:
 5043              	.L438:
1266:Middlewares/Third_Party/FreeRTOS/Source/CMSIS_RTOS_V2/cmsis_os2.c ****   }
 5044              		.loc 1 1266 0
ARM GAS  /tmp/ccJ2K96T.s 			page 126


 5045 0064 0420     		movs	r0, #4
 5046              	.LVL522:
 5047 0066 4042     		rsbs	r0, r0, #0
 5048 0068 EAE7     		b	.L432
 5049              	.LVL523:
 5050              	.L439:
1260:Middlewares/Third_Party/FreeRTOS/Source/CMSIS_RTOS_V2/cmsis_os2.c **** 
 5051              		.loc 1 1260 0
 5052 006a 0020     		movs	r0, #0
 5053 006c E8E7     		b	.L432
 5054              	.L440:
1274:Middlewares/Third_Party/FreeRTOS/Source/CMSIS_RTOS_V2/cmsis_os2.c ****         }
 5055              		.loc 1 1274 0
 5056 006e 0320     		movs	r0, #3
 5057 0070 4042     		rsbs	r0, r0, #0
 5058 0072 E5E7     		b	.L432
 5059              	.L441:
1260:Middlewares/Third_Party/FreeRTOS/Source/CMSIS_RTOS_V2/cmsis_os2.c **** 
 5060              		.loc 1 1260 0
 5061 0074 0020     		movs	r0, #0
 5062 0076 E3E7     		b	.L432
 5063              	.L442:
1283:Middlewares/Third_Party/FreeRTOS/Source/CMSIS_RTOS_V2/cmsis_os2.c ****         }
 5064              		.loc 1 1283 0
 5065 0078 0320     		movs	r0, #3
 5066 007a 4042     		rsbs	r0, r0, #0
 5067              	.LVL524:
1289:Middlewares/Third_Party/FreeRTOS/Source/CMSIS_RTOS_V2/cmsis_os2.c **** }
 5068              		.loc 1 1289 0
 5069 007c E0E7     		b	.L432
 5070              	.L444:
 5071 007e C046     		.align	2
 5072              	.L443:
 5073 0080 00000000 		.word	.LANCHOR0
 5074              		.cfi_endproc
 5075              	.LFE71:
 5077              		.section	.text.osMutexRelease,"ax",%progbits
 5078              		.align	1
 5079              		.global	osMutexRelease
 5080              		.syntax unified
 5081              		.code	16
 5082              		.thumb_func
 5083              		.fpu softvfp
 5085              	osMutexRelease:
 5086              	.LFB72:
1291:Middlewares/Third_Party/FreeRTOS/Source/CMSIS_RTOS_V2/cmsis_os2.c **** 
1292:Middlewares/Third_Party/FreeRTOS/Source/CMSIS_RTOS_V2/cmsis_os2.c **** osStatus_t osMutexRelease (osMutexId_t mutex_id) {
 5087              		.loc 1 1292 0
 5088              		.cfi_startproc
 5089              		@ args = 0, pretend = 0, frame = 0
 5090              		@ frame_needed = 0, uses_anonymous_args = 0
 5091              	.LVL525:
 5092 0000 10B5     		push	{r4, lr}
 5093              	.LCFI57:
 5094              		.cfi_def_cfa_offset 8
 5095              		.cfi_offset 4, -8
 5096              		.cfi_offset 14, -4
ARM GAS  /tmp/ccJ2K96T.s 			page 127


1293:Middlewares/Third_Party/FreeRTOS/Source/CMSIS_RTOS_V2/cmsis_os2.c ****   SemaphoreHandle_t hMutex;
1294:Middlewares/Third_Party/FreeRTOS/Source/CMSIS_RTOS_V2/cmsis_os2.c ****   osStatus_t stat;
1295:Middlewares/Third_Party/FreeRTOS/Source/CMSIS_RTOS_V2/cmsis_os2.c ****   uint32_t rmtx;
1296:Middlewares/Third_Party/FreeRTOS/Source/CMSIS_RTOS_V2/cmsis_os2.c **** 
1297:Middlewares/Third_Party/FreeRTOS/Source/CMSIS_RTOS_V2/cmsis_os2.c ****   hMutex = (SemaphoreHandle_t)((uint32_t)mutex_id & ~1U);
 5097              		.loc 1 1297 0
 5098 0002 0123     		movs	r3, #1
 5099 0004 0400     		movs	r4, r0
 5100 0006 9C43     		bics	r4, r3
 5101              	.LVL526:
1298:Middlewares/Third_Party/FreeRTOS/Source/CMSIS_RTOS_V2/cmsis_os2.c **** 
1299:Middlewares/Third_Party/FreeRTOS/Source/CMSIS_RTOS_V2/cmsis_os2.c ****   rmtx = (uint32_t)mutex_id & 1U;
 5102              		.loc 1 1299 0
 5103 0008 0340     		ands	r3, r0
 5104              	.LVL527:
 5105              	.LBB374:
 5106              	.LBB375:
 209:Drivers/CMSIS/Include/cmsis_gcc.h ****   return(result);
 5107              		.loc 2 209 0
 5108              		.syntax divided
 5109              	@ 209 "Drivers/CMSIS/Include/cmsis_gcc.h" 1
 5110 000a EFF30582 		MRS r2, ipsr
 5111              	@ 0 "" 2
 5112              		.thumb
 5113              		.syntax unified
 5114              	.LBE375:
 5115              	.LBE374:
1300:Middlewares/Third_Party/FreeRTOS/Source/CMSIS_RTOS_V2/cmsis_os2.c **** 
1301:Middlewares/Third_Party/FreeRTOS/Source/CMSIS_RTOS_V2/cmsis_os2.c ****   stat = osOK;
1302:Middlewares/Third_Party/FreeRTOS/Source/CMSIS_RTOS_V2/cmsis_os2.c **** 
1303:Middlewares/Third_Party/FreeRTOS/Source/CMSIS_RTOS_V2/cmsis_os2.c ****   if (IS_IRQ()) {
 5116              		.loc 1 1303 0
 5117 000e 002A     		cmp	r2, #0
 5118 0010 1CD1     		bne	.L449
 5119              	.LBB376:
 5120              	.LBB377:
 5121              		.loc 2 386 0
 5122              		.syntax divided
 5123              	@ 386 "Drivers/CMSIS/Include/cmsis_gcc.h" 1
 5124 0012 EFF31082 		MRS r2, primask
 5125              	@ 0 "" 2
 5126              		.thumb
 5127              		.syntax unified
 5128              	.LBE377:
 5129              	.LBE376:
 5130              		.loc 1 1303 0
 5131 0016 002A     		cmp	r2, #0
 5132 0018 03D0     		beq	.L447
 5133              		.loc 1 1303 0 is_stmt 0 discriminator 2
 5134 001a 144A     		ldr	r2, .L454
 5135 001c 1268     		ldr	r2, [r2]
 5136 001e 022A     		cmp	r2, #2
 5137 0020 17D0     		beq	.L450
 5138              	.L447:
1304:Middlewares/Third_Party/FreeRTOS/Source/CMSIS_RTOS_V2/cmsis_os2.c ****     stat = osErrorISR;
1305:Middlewares/Third_Party/FreeRTOS/Source/CMSIS_RTOS_V2/cmsis_os2.c ****   }
1306:Middlewares/Third_Party/FreeRTOS/Source/CMSIS_RTOS_V2/cmsis_os2.c ****   else if (hMutex == NULL) {
ARM GAS  /tmp/ccJ2K96T.s 			page 128


 5139              		.loc 1 1306 0 is_stmt 1
 5140 0022 002C     		cmp	r4, #0
 5141 0024 18D0     		beq	.L451
1307:Middlewares/Third_Party/FreeRTOS/Source/CMSIS_RTOS_V2/cmsis_os2.c ****     stat = osErrorParameter;
1308:Middlewares/Third_Party/FreeRTOS/Source/CMSIS_RTOS_V2/cmsis_os2.c ****   }
1309:Middlewares/Third_Party/FreeRTOS/Source/CMSIS_RTOS_V2/cmsis_os2.c ****   else {
1310:Middlewares/Third_Party/FreeRTOS/Source/CMSIS_RTOS_V2/cmsis_os2.c ****     if (rmtx != 0U) {
 5142              		.loc 1 1310 0
 5143 0026 002B     		cmp	r3, #0
 5144 0028 06D0     		beq	.L448
1311:Middlewares/Third_Party/FreeRTOS/Source/CMSIS_RTOS_V2/cmsis_os2.c ****       if (xSemaphoreGiveRecursive (hMutex) != pdPASS) {
 5145              		.loc 1 1311 0
 5146 002a 2000     		movs	r0, r4
 5147              	.LVL528:
 5148 002c FFF7FEFF 		bl	xQueueGiveMutexRecursive
 5149              	.LVL529:
 5150 0030 0128     		cmp	r0, #1
 5151 0032 14D1     		bne	.L452
1301:Middlewares/Third_Party/FreeRTOS/Source/CMSIS_RTOS_V2/cmsis_os2.c **** 
 5152              		.loc 1 1301 0
 5153 0034 0020     		movs	r0, #0
 5154              	.LVL530:
 5155              	.L445:
1312:Middlewares/Third_Party/FreeRTOS/Source/CMSIS_RTOS_V2/cmsis_os2.c ****         stat = osErrorResource;
1313:Middlewares/Third_Party/FreeRTOS/Source/CMSIS_RTOS_V2/cmsis_os2.c ****       }
1314:Middlewares/Third_Party/FreeRTOS/Source/CMSIS_RTOS_V2/cmsis_os2.c ****     }
1315:Middlewares/Third_Party/FreeRTOS/Source/CMSIS_RTOS_V2/cmsis_os2.c ****     else {
1316:Middlewares/Third_Party/FreeRTOS/Source/CMSIS_RTOS_V2/cmsis_os2.c ****       if (xSemaphoreGive (hMutex) != pdPASS) {
1317:Middlewares/Third_Party/FreeRTOS/Source/CMSIS_RTOS_V2/cmsis_os2.c ****         stat = osErrorResource;
1318:Middlewares/Third_Party/FreeRTOS/Source/CMSIS_RTOS_V2/cmsis_os2.c ****       }
1319:Middlewares/Third_Party/FreeRTOS/Source/CMSIS_RTOS_V2/cmsis_os2.c ****     }
1320:Middlewares/Third_Party/FreeRTOS/Source/CMSIS_RTOS_V2/cmsis_os2.c ****   }
1321:Middlewares/Third_Party/FreeRTOS/Source/CMSIS_RTOS_V2/cmsis_os2.c **** 
1322:Middlewares/Third_Party/FreeRTOS/Source/CMSIS_RTOS_V2/cmsis_os2.c ****   return (stat);
1323:Middlewares/Third_Party/FreeRTOS/Source/CMSIS_RTOS_V2/cmsis_os2.c **** }
 5156              		.loc 1 1323 0
 5157              		@ sp needed
 5158              	.LVL531:
 5159 0036 10BD     		pop	{r4, pc}
 5160              	.LVL532:
 5161              	.L448:
1316:Middlewares/Third_Party/FreeRTOS/Source/CMSIS_RTOS_V2/cmsis_os2.c ****         stat = osErrorResource;
 5162              		.loc 1 1316 0
 5163 0038 0023     		movs	r3, #0
 5164              	.LVL533:
 5165 003a 0022     		movs	r2, #0
 5166 003c 0021     		movs	r1, #0
 5167 003e 2000     		movs	r0, r4
 5168              	.LVL534:
 5169 0040 FFF7FEFF 		bl	xQueueGenericSend
 5170              	.LVL535:
 5171 0044 0128     		cmp	r0, #1
 5172 0046 0DD1     		bne	.L453
1301:Middlewares/Third_Party/FreeRTOS/Source/CMSIS_RTOS_V2/cmsis_os2.c **** 
 5173              		.loc 1 1301 0
 5174 0048 0020     		movs	r0, #0
 5175 004a F4E7     		b	.L445
ARM GAS  /tmp/ccJ2K96T.s 			page 129


 5176              	.LVL536:
 5177              	.L449:
1304:Middlewares/Third_Party/FreeRTOS/Source/CMSIS_RTOS_V2/cmsis_os2.c ****   }
 5178              		.loc 1 1304 0
 5179 004c 0620     		movs	r0, #6
 5180              	.LVL537:
 5181 004e 4042     		rsbs	r0, r0, #0
 5182 0050 F1E7     		b	.L445
 5183              	.LVL538:
 5184              	.L450:
 5185 0052 0620     		movs	r0, #6
 5186              	.LVL539:
 5187 0054 4042     		rsbs	r0, r0, #0
 5188 0056 EEE7     		b	.L445
 5189              	.LVL540:
 5190              	.L451:
1307:Middlewares/Third_Party/FreeRTOS/Source/CMSIS_RTOS_V2/cmsis_os2.c ****   }
 5191              		.loc 1 1307 0
 5192 0058 0420     		movs	r0, #4
 5193              	.LVL541:
 5194 005a 4042     		rsbs	r0, r0, #0
 5195 005c EBE7     		b	.L445
 5196              	.LVL542:
 5197              	.L452:
1312:Middlewares/Third_Party/FreeRTOS/Source/CMSIS_RTOS_V2/cmsis_os2.c ****       }
 5198              		.loc 1 1312 0
 5199 005e 0320     		movs	r0, #3
 5200 0060 4042     		rsbs	r0, r0, #0
 5201 0062 E8E7     		b	.L445
 5202              	.L453:
1317:Middlewares/Third_Party/FreeRTOS/Source/CMSIS_RTOS_V2/cmsis_os2.c ****       }
 5203              		.loc 1 1317 0
 5204 0064 0320     		movs	r0, #3
 5205 0066 4042     		rsbs	r0, r0, #0
 5206              	.LVL543:
1322:Middlewares/Third_Party/FreeRTOS/Source/CMSIS_RTOS_V2/cmsis_os2.c **** }
 5207              		.loc 1 1322 0
 5208 0068 E5E7     		b	.L445
 5209              	.L455:
 5210 006a C046     		.align	2
 5211              	.L454:
 5212 006c 00000000 		.word	.LANCHOR0
 5213              		.cfi_endproc
 5214              	.LFE72:
 5216              		.section	.text.osMutexGetOwner,"ax",%progbits
 5217              		.align	1
 5218              		.global	osMutexGetOwner
 5219              		.syntax unified
 5220              		.code	16
 5221              		.thumb_func
 5222              		.fpu softvfp
 5224              	osMutexGetOwner:
 5225              	.LFB73:
1324:Middlewares/Third_Party/FreeRTOS/Source/CMSIS_RTOS_V2/cmsis_os2.c **** 
1325:Middlewares/Third_Party/FreeRTOS/Source/CMSIS_RTOS_V2/cmsis_os2.c **** osThreadId_t osMutexGetOwner (osMutexId_t mutex_id) {
 5226              		.loc 1 1325 0
 5227              		.cfi_startproc
ARM GAS  /tmp/ccJ2K96T.s 			page 130


 5228              		@ args = 0, pretend = 0, frame = 0
 5229              		@ frame_needed = 0, uses_anonymous_args = 0
 5230              	.LVL544:
 5231 0000 10B5     		push	{r4, lr}
 5232              	.LCFI58:
 5233              		.cfi_def_cfa_offset 8
 5234              		.cfi_offset 4, -8
 5235              		.cfi_offset 14, -4
1326:Middlewares/Third_Party/FreeRTOS/Source/CMSIS_RTOS_V2/cmsis_os2.c ****   SemaphoreHandle_t hMutex;
1327:Middlewares/Third_Party/FreeRTOS/Source/CMSIS_RTOS_V2/cmsis_os2.c ****   osThreadId_t owner;
1328:Middlewares/Third_Party/FreeRTOS/Source/CMSIS_RTOS_V2/cmsis_os2.c **** 
1329:Middlewares/Third_Party/FreeRTOS/Source/CMSIS_RTOS_V2/cmsis_os2.c ****   hMutex = (SemaphoreHandle_t)((uint32_t)mutex_id & ~1U);
 5236              		.loc 1 1329 0
 5237 0002 0123     		movs	r3, #1
 5238 0004 9843     		bics	r0, r3
 5239              	.LVL545:
 5240              	.LBB378:
 5241              	.LBB379:
 209:Drivers/CMSIS/Include/cmsis_gcc.h ****   return(result);
 5242              		.loc 2 209 0
 5243              		.syntax divided
 5244              	@ 209 "Drivers/CMSIS/Include/cmsis_gcc.h" 1
 5245 0006 EFF30583 		MRS r3, ipsr
 5246              	@ 0 "" 2
 5247              		.thumb
 5248              		.syntax unified
 5249              	.LBE379:
 5250              	.LBE378:
1330:Middlewares/Third_Party/FreeRTOS/Source/CMSIS_RTOS_V2/cmsis_os2.c **** 
1331:Middlewares/Third_Party/FreeRTOS/Source/CMSIS_RTOS_V2/cmsis_os2.c ****   if (IS_IRQ() || (hMutex == NULL)) {
 5251              		.loc 1 1331 0
 5252 000a 002B     		cmp	r3, #0
 5253 000c 0CD1     		bne	.L459
 5254              	.LBB380:
 5255              	.LBB381:
 5256              		.loc 2 386 0
 5257              		.syntax divided
 5258              	@ 386 "Drivers/CMSIS/Include/cmsis_gcc.h" 1
 5259 000e EFF31083 		MRS r3, primask
 5260              	@ 0 "" 2
 5261              		.thumb
 5262              		.syntax unified
 5263              	.LBE381:
 5264              	.LBE380:
 5265              		.loc 1 1331 0
 5266 0012 002B     		cmp	r3, #0
 5267 0014 03D0     		beq	.L458
 5268              		.loc 1 1331 0 is_stmt 0 discriminator 2
 5269 0016 074B     		ldr	r3, .L462
 5270 0018 1B68     		ldr	r3, [r3]
 5271 001a 022B     		cmp	r3, #2
 5272 001c 06D0     		beq	.L460
 5273              	.L458:
 5274              		.loc 1 1331 0 discriminator 4
 5275 001e 0028     		cmp	r0, #0
 5276 0020 06D0     		beq	.L461
1332:Middlewares/Third_Party/FreeRTOS/Source/CMSIS_RTOS_V2/cmsis_os2.c ****     owner = NULL;
ARM GAS  /tmp/ccJ2K96T.s 			page 131


1333:Middlewares/Third_Party/FreeRTOS/Source/CMSIS_RTOS_V2/cmsis_os2.c ****   } else {
1334:Middlewares/Third_Party/FreeRTOS/Source/CMSIS_RTOS_V2/cmsis_os2.c ****     owner = (osThreadId_t)xSemaphoreGetMutexHolder (hMutex);
 5277              		.loc 1 1334 0 is_stmt 1
 5278 0022 FFF7FEFF 		bl	xQueueGetMutexHolder
 5279              	.LVL546:
 5280              	.L456:
1335:Middlewares/Third_Party/FreeRTOS/Source/CMSIS_RTOS_V2/cmsis_os2.c ****   }
1336:Middlewares/Third_Party/FreeRTOS/Source/CMSIS_RTOS_V2/cmsis_os2.c **** 
1337:Middlewares/Third_Party/FreeRTOS/Source/CMSIS_RTOS_V2/cmsis_os2.c ****   return (owner);
1338:Middlewares/Third_Party/FreeRTOS/Source/CMSIS_RTOS_V2/cmsis_os2.c **** }
 5281              		.loc 1 1338 0
 5282              		@ sp needed
 5283 0026 10BD     		pop	{r4, pc}
 5284              	.LVL547:
 5285              	.L459:
1332:Middlewares/Third_Party/FreeRTOS/Source/CMSIS_RTOS_V2/cmsis_os2.c ****     owner = NULL;
 5286              		.loc 1 1332 0
 5287 0028 0020     		movs	r0, #0
 5288              	.LVL548:
 5289 002a FCE7     		b	.L456
 5290              	.LVL549:
 5291              	.L460:
 5292 002c 0020     		movs	r0, #0
 5293              	.LVL550:
 5294 002e FAE7     		b	.L456
 5295              	.LVL551:
 5296              	.L461:
 5297 0030 0020     		movs	r0, #0
 5298              	.LVL552:
1337:Middlewares/Third_Party/FreeRTOS/Source/CMSIS_RTOS_V2/cmsis_os2.c **** }
 5299              		.loc 1 1337 0
 5300 0032 F8E7     		b	.L456
 5301              	.L463:
 5302              		.align	2
 5303              	.L462:
 5304 0034 00000000 		.word	.LANCHOR0
 5305              		.cfi_endproc
 5306              	.LFE73:
 5308              		.section	.text.osMutexDelete,"ax",%progbits
 5309              		.align	1
 5310              		.global	osMutexDelete
 5311              		.syntax unified
 5312              		.code	16
 5313              		.thumb_func
 5314              		.fpu softvfp
 5316              	osMutexDelete:
 5317              	.LFB74:
1339:Middlewares/Third_Party/FreeRTOS/Source/CMSIS_RTOS_V2/cmsis_os2.c **** 
1340:Middlewares/Third_Party/FreeRTOS/Source/CMSIS_RTOS_V2/cmsis_os2.c **** osStatus_t osMutexDelete (osMutexId_t mutex_id) {
 5318              		.loc 1 1340 0
 5319              		.cfi_startproc
 5320              		@ args = 0, pretend = 0, frame = 0
 5321              		@ frame_needed = 0, uses_anonymous_args = 0
 5322              	.LVL553:
 5323 0000 10B5     		push	{r4, lr}
 5324              	.LCFI59:
 5325              		.cfi_def_cfa_offset 8
ARM GAS  /tmp/ccJ2K96T.s 			page 132


 5326              		.cfi_offset 4, -8
 5327              		.cfi_offset 14, -4
1341:Middlewares/Third_Party/FreeRTOS/Source/CMSIS_RTOS_V2/cmsis_os2.c ****   osStatus_t stat;
1342:Middlewares/Third_Party/FreeRTOS/Source/CMSIS_RTOS_V2/cmsis_os2.c **** #ifndef USE_FreeRTOS_HEAP_1
1343:Middlewares/Third_Party/FreeRTOS/Source/CMSIS_RTOS_V2/cmsis_os2.c ****   SemaphoreHandle_t hMutex;
1344:Middlewares/Third_Party/FreeRTOS/Source/CMSIS_RTOS_V2/cmsis_os2.c **** 
1345:Middlewares/Third_Party/FreeRTOS/Source/CMSIS_RTOS_V2/cmsis_os2.c ****   hMutex = (SemaphoreHandle_t)((uint32_t)mutex_id & ~1U);
 5328              		.loc 1 1345 0
 5329 0002 0123     		movs	r3, #1
 5330 0004 9843     		bics	r0, r3
 5331              	.LVL554:
 5332 0006 0400     		movs	r4, r0
 5333              	.LVL555:
 5334              	.LBB382:
 5335              	.LBB383:
 209:Drivers/CMSIS/Include/cmsis_gcc.h ****   return(result);
 5336              		.loc 2 209 0
 5337              		.syntax divided
 5338              	@ 209 "Drivers/CMSIS/Include/cmsis_gcc.h" 1
 5339 0008 EFF30583 		MRS r3, ipsr
 5340              	@ 0 "" 2
 5341              		.thumb
 5342              		.syntax unified
 5343              	.LBE383:
 5344              	.LBE382:
1346:Middlewares/Third_Party/FreeRTOS/Source/CMSIS_RTOS_V2/cmsis_os2.c **** 
1347:Middlewares/Third_Party/FreeRTOS/Source/CMSIS_RTOS_V2/cmsis_os2.c ****   if (IS_IRQ()) {
 5345              		.loc 1 1347 0
 5346 000c 002B     		cmp	r3, #0
 5347 000e 11D1     		bne	.L467
 5348              	.LBB384:
 5349              	.LBB385:
 5350              		.loc 2 386 0
 5351              		.syntax divided
 5352              	@ 386 "Drivers/CMSIS/Include/cmsis_gcc.h" 1
 5353 0010 EFF31083 		MRS r3, primask
 5354              	@ 0 "" 2
 5355              		.thumb
 5356              		.syntax unified
 5357              	.LBE385:
 5358              	.LBE384:
 5359              		.loc 1 1347 0
 5360 0014 002B     		cmp	r3, #0
 5361 0016 03D0     		beq	.L466
 5362              		.loc 1 1347 0 is_stmt 0 discriminator 2
 5363 0018 0B4B     		ldr	r3, .L470
 5364 001a 1B68     		ldr	r3, [r3]
 5365 001c 022B     		cmp	r3, #2
 5366 001e 0CD0     		beq	.L468
 5367              	.L466:
1348:Middlewares/Third_Party/FreeRTOS/Source/CMSIS_RTOS_V2/cmsis_os2.c ****     stat = osErrorISR;
1349:Middlewares/Third_Party/FreeRTOS/Source/CMSIS_RTOS_V2/cmsis_os2.c ****   }
1350:Middlewares/Third_Party/FreeRTOS/Source/CMSIS_RTOS_V2/cmsis_os2.c ****   else if (hMutex == NULL) {
 5368              		.loc 1 1350 0 is_stmt 1
 5369 0020 002C     		cmp	r4, #0
 5370 0022 0DD0     		beq	.L469
1351:Middlewares/Third_Party/FreeRTOS/Source/CMSIS_RTOS_V2/cmsis_os2.c ****     stat = osErrorParameter;
ARM GAS  /tmp/ccJ2K96T.s 			page 133


1352:Middlewares/Third_Party/FreeRTOS/Source/CMSIS_RTOS_V2/cmsis_os2.c ****   }
1353:Middlewares/Third_Party/FreeRTOS/Source/CMSIS_RTOS_V2/cmsis_os2.c ****   else {
1354:Middlewares/Third_Party/FreeRTOS/Source/CMSIS_RTOS_V2/cmsis_os2.c ****     #if (configQUEUE_REGISTRY_SIZE > 0)
1355:Middlewares/Third_Party/FreeRTOS/Source/CMSIS_RTOS_V2/cmsis_os2.c ****     vQueueUnregisterQueue (hMutex);
 5371              		.loc 1 1355 0
 5372 0024 2000     		movs	r0, r4
 5373              	.LVL556:
 5374 0026 FFF7FEFF 		bl	vQueueUnregisterQueue
 5375              	.LVL557:
1356:Middlewares/Third_Party/FreeRTOS/Source/CMSIS_RTOS_V2/cmsis_os2.c ****     #endif
1357:Middlewares/Third_Party/FreeRTOS/Source/CMSIS_RTOS_V2/cmsis_os2.c ****     stat = osOK;
1358:Middlewares/Third_Party/FreeRTOS/Source/CMSIS_RTOS_V2/cmsis_os2.c ****     vSemaphoreDelete (hMutex);
 5376              		.loc 1 1358 0
 5377 002a 2000     		movs	r0, r4
 5378 002c FFF7FEFF 		bl	vQueueDelete
 5379              	.LVL558:
1357:Middlewares/Third_Party/FreeRTOS/Source/CMSIS_RTOS_V2/cmsis_os2.c ****     vSemaphoreDelete (hMutex);
 5380              		.loc 1 1357 0
 5381 0030 0020     		movs	r0, #0
 5382              	.LVL559:
 5383              	.L464:
1359:Middlewares/Third_Party/FreeRTOS/Source/CMSIS_RTOS_V2/cmsis_os2.c ****   }
1360:Middlewares/Third_Party/FreeRTOS/Source/CMSIS_RTOS_V2/cmsis_os2.c **** #else
1361:Middlewares/Third_Party/FreeRTOS/Source/CMSIS_RTOS_V2/cmsis_os2.c ****   stat = osError;
1362:Middlewares/Third_Party/FreeRTOS/Source/CMSIS_RTOS_V2/cmsis_os2.c **** #endif
1363:Middlewares/Third_Party/FreeRTOS/Source/CMSIS_RTOS_V2/cmsis_os2.c **** 
1364:Middlewares/Third_Party/FreeRTOS/Source/CMSIS_RTOS_V2/cmsis_os2.c ****   return (stat);
1365:Middlewares/Third_Party/FreeRTOS/Source/CMSIS_RTOS_V2/cmsis_os2.c **** }
 5384              		.loc 1 1365 0
 5385              		@ sp needed
 5386              	.LVL560:
 5387 0032 10BD     		pop	{r4, pc}
 5388              	.LVL561:
 5389              	.L467:
1348:Middlewares/Third_Party/FreeRTOS/Source/CMSIS_RTOS_V2/cmsis_os2.c ****   }
 5390              		.loc 1 1348 0
 5391 0034 0620     		movs	r0, #6
 5392              	.LVL562:
 5393 0036 4042     		rsbs	r0, r0, #0
 5394 0038 FBE7     		b	.L464
 5395              	.LVL563:
 5396              	.L468:
 5397 003a 0620     		movs	r0, #6
 5398              	.LVL564:
 5399 003c 4042     		rsbs	r0, r0, #0
 5400 003e F8E7     		b	.L464
 5401              	.LVL565:
 5402              	.L469:
1351:Middlewares/Third_Party/FreeRTOS/Source/CMSIS_RTOS_V2/cmsis_os2.c ****   }
 5403              		.loc 1 1351 0
 5404 0040 0420     		movs	r0, #4
 5405              	.LVL566:
 5406 0042 4042     		rsbs	r0, r0, #0
 5407              	.LVL567:
1364:Middlewares/Third_Party/FreeRTOS/Source/CMSIS_RTOS_V2/cmsis_os2.c **** }
 5408              		.loc 1 1364 0
 5409 0044 F5E7     		b	.L464
ARM GAS  /tmp/ccJ2K96T.s 			page 134


 5410              	.L471:
 5411 0046 C046     		.align	2
 5412              	.L470:
 5413 0048 00000000 		.word	.LANCHOR0
 5414              		.cfi_endproc
 5415              	.LFE74:
 5417              		.section	.text.osSemaphoreNew,"ax",%progbits
 5418              		.align	1
 5419              		.global	osSemaphoreNew
 5420              		.syntax unified
 5421              		.code	16
 5422              		.thumb_func
 5423              		.fpu softvfp
 5425              	osSemaphoreNew:
 5426              	.LFB75:
1366:Middlewares/Third_Party/FreeRTOS/Source/CMSIS_RTOS_V2/cmsis_os2.c **** 
1367:Middlewares/Third_Party/FreeRTOS/Source/CMSIS_RTOS_V2/cmsis_os2.c **** /*---------------------------------------------------------------------------*/
1368:Middlewares/Third_Party/FreeRTOS/Source/CMSIS_RTOS_V2/cmsis_os2.c **** 
1369:Middlewares/Third_Party/FreeRTOS/Source/CMSIS_RTOS_V2/cmsis_os2.c **** osSemaphoreId_t osSemaphoreNew (uint32_t max_count, uint32_t initial_count, const osSemaphoreAttr_t
 5427              		.loc 1 1369 0
 5428              		.cfi_startproc
 5429              		@ args = 0, pretend = 0, frame = 0
 5430              		@ frame_needed = 0, uses_anonymous_args = 0
 5431              	.LVL568:
 5432 0000 70B5     		push	{r4, r5, r6, lr}
 5433              	.LCFI60:
 5434              		.cfi_def_cfa_offset 16
 5435              		.cfi_offset 4, -16
 5436              		.cfi_offset 5, -12
 5437              		.cfi_offset 6, -8
 5438              		.cfi_offset 14, -4
 5439 0002 82B0     		sub	sp, sp, #8
 5440              	.LCFI61:
 5441              		.cfi_def_cfa_offset 24
 5442 0004 0E00     		movs	r6, r1
 5443 0006 1400     		movs	r4, r2
 5444              	.LVL569:
 5445              	.LBB386:
 5446              	.LBB387:
 209:Drivers/CMSIS/Include/cmsis_gcc.h ****   return(result);
 5447              		.loc 2 209 0
 5448              		.syntax divided
 5449              	@ 209 "Drivers/CMSIS/Include/cmsis_gcc.h" 1
 5450 0008 EFF30583 		MRS r3, ipsr
 5451              	@ 0 "" 2
 5452              		.thumb
 5453              		.syntax unified
 5454              	.LBE387:
 5455              	.LBE386:
1370:Middlewares/Third_Party/FreeRTOS/Source/CMSIS_RTOS_V2/cmsis_os2.c ****   SemaphoreHandle_t hSemaphore;
1371:Middlewares/Third_Party/FreeRTOS/Source/CMSIS_RTOS_V2/cmsis_os2.c ****   int32_t mem;
1372:Middlewares/Third_Party/FreeRTOS/Source/CMSIS_RTOS_V2/cmsis_os2.c ****   #if (configQUEUE_REGISTRY_SIZE > 0)
1373:Middlewares/Third_Party/FreeRTOS/Source/CMSIS_RTOS_V2/cmsis_os2.c ****   const char *name;
1374:Middlewares/Third_Party/FreeRTOS/Source/CMSIS_RTOS_V2/cmsis_os2.c ****   #endif
1375:Middlewares/Third_Party/FreeRTOS/Source/CMSIS_RTOS_V2/cmsis_os2.c **** 
1376:Middlewares/Third_Party/FreeRTOS/Source/CMSIS_RTOS_V2/cmsis_os2.c ****   hSemaphore = NULL;
1377:Middlewares/Third_Party/FreeRTOS/Source/CMSIS_RTOS_V2/cmsis_os2.c **** 
ARM GAS  /tmp/ccJ2K96T.s 			page 135


1378:Middlewares/Third_Party/FreeRTOS/Source/CMSIS_RTOS_V2/cmsis_os2.c ****   if (!IS_IRQ() && (max_count > 0U) && (initial_count <= max_count)) {
 5456              		.loc 1 1378 0
 5457 000c 002B     		cmp	r3, #0
 5458 000e 59D1     		bne	.L483
 5459              	.LBB388:
 5460              	.LBB389:
 5461              		.loc 2 386 0
 5462              		.syntax divided
 5463              	@ 386 "Drivers/CMSIS/Include/cmsis_gcc.h" 1
 5464 0010 EFF31083 		MRS r3, primask
 5465              	@ 0 "" 2
 5466              		.thumb
 5467              		.syntax unified
 5468              	.LBE389:
 5469              	.LBE388:
 5470              		.loc 1 1378 0
 5471 0014 002B     		cmp	r3, #0
 5472 0016 03D0     		beq	.L474
 5473              		.loc 1 1378 0 is_stmt 0 discriminator 3
 5474 0018 304B     		ldr	r3, .L495
 5475 001a 1B68     		ldr	r3, [r3]
 5476 001c 022B     		cmp	r3, #2
 5477 001e 53D0     		beq	.L484
 5478              	.L474:
 5479              		.loc 1 1378 0 discriminator 4
 5480 0020 0028     		cmp	r0, #0
 5481 0022 53D0     		beq	.L485
 5482              		.loc 1 1378 0 discriminator 5
 5483 0024 B042     		cmp	r0, r6
 5484 0026 53D3     		bcc	.L486
 5485              	.LVL570:
1379:Middlewares/Third_Party/FreeRTOS/Source/CMSIS_RTOS_V2/cmsis_os2.c ****     mem = -1;
1380:Middlewares/Third_Party/FreeRTOS/Source/CMSIS_RTOS_V2/cmsis_os2.c **** 
1381:Middlewares/Third_Party/FreeRTOS/Source/CMSIS_RTOS_V2/cmsis_os2.c ****     if (attr != NULL) {
 5486              		.loc 1 1381 0 is_stmt 1
 5487 0028 002C     		cmp	r4, #0
 5488 002a 1DD0     		beq	.L487
1382:Middlewares/Third_Party/FreeRTOS/Source/CMSIS_RTOS_V2/cmsis_os2.c ****       if ((attr->cb_mem != NULL) && (attr->cb_size >= sizeof(StaticSemaphore_t))) {
 5489              		.loc 1 1382 0
 5490 002c A368     		ldr	r3, [r4, #8]
 5491 002e 002B     		cmp	r3, #0
 5492 0030 02D0     		beq	.L476
 5493              		.loc 1 1382 0 is_stmt 0 discriminator 1
 5494 0032 E268     		ldr	r2, [r4, #12]
 5495              	.LVL571:
 5496 0034 4F2A     		cmp	r2, #79
 5497 0036 19D8     		bhi	.L488
 5498              	.L476:
1383:Middlewares/Third_Party/FreeRTOS/Source/CMSIS_RTOS_V2/cmsis_os2.c ****         mem = 1;
1384:Middlewares/Third_Party/FreeRTOS/Source/CMSIS_RTOS_V2/cmsis_os2.c ****       }
1385:Middlewares/Third_Party/FreeRTOS/Source/CMSIS_RTOS_V2/cmsis_os2.c ****       else {
1386:Middlewares/Third_Party/FreeRTOS/Source/CMSIS_RTOS_V2/cmsis_os2.c ****         if ((attr->cb_mem == NULL) && (attr->cb_size == 0U)) {
 5499              		.loc 1 1386 0 is_stmt 1
 5500 0038 002B     		cmp	r3, #0
 5501 003a 4BD1     		bne	.L489
 5502              		.loc 1 1386 0 is_stmt 0 discriminator 1
 5503 003c E368     		ldr	r3, [r4, #12]
ARM GAS  /tmp/ccJ2K96T.s 			page 136


 5504 003e 002B     		cmp	r3, #0
 5505 0040 4AD1     		bne	.L490
 5506              	.L475:
1387:Middlewares/Third_Party/FreeRTOS/Source/CMSIS_RTOS_V2/cmsis_os2.c ****           mem = 0;
1388:Middlewares/Third_Party/FreeRTOS/Source/CMSIS_RTOS_V2/cmsis_os2.c ****         }
1389:Middlewares/Third_Party/FreeRTOS/Source/CMSIS_RTOS_V2/cmsis_os2.c ****       }
1390:Middlewares/Third_Party/FreeRTOS/Source/CMSIS_RTOS_V2/cmsis_os2.c ****     }
1391:Middlewares/Third_Party/FreeRTOS/Source/CMSIS_RTOS_V2/cmsis_os2.c ****     else {
1392:Middlewares/Third_Party/FreeRTOS/Source/CMSIS_RTOS_V2/cmsis_os2.c ****       mem = 0;
1393:Middlewares/Third_Party/FreeRTOS/Source/CMSIS_RTOS_V2/cmsis_os2.c ****     }
1394:Middlewares/Third_Party/FreeRTOS/Source/CMSIS_RTOS_V2/cmsis_os2.c **** 
1395:Middlewares/Third_Party/FreeRTOS/Source/CMSIS_RTOS_V2/cmsis_os2.c ****     if (mem != -1) {
1396:Middlewares/Third_Party/FreeRTOS/Source/CMSIS_RTOS_V2/cmsis_os2.c ****       if (max_count == 1U) {
 5507              		.loc 1 1396 0 is_stmt 1
 5508 0042 0128     		cmp	r0, #1
 5509 0044 14D0     		beq	.L492
1397:Middlewares/Third_Party/FreeRTOS/Source/CMSIS_RTOS_V2/cmsis_os2.c ****         if (mem == 1) {
1398:Middlewares/Third_Party/FreeRTOS/Source/CMSIS_RTOS_V2/cmsis_os2.c ****           hSemaphore = xSemaphoreCreateBinaryStatic ((StaticSemaphore_t *)attr->cb_mem);
1399:Middlewares/Third_Party/FreeRTOS/Source/CMSIS_RTOS_V2/cmsis_os2.c ****         }
1400:Middlewares/Third_Party/FreeRTOS/Source/CMSIS_RTOS_V2/cmsis_os2.c ****         else {
1401:Middlewares/Third_Party/FreeRTOS/Source/CMSIS_RTOS_V2/cmsis_os2.c ****           hSemaphore = xSemaphoreCreateBinary();
1402:Middlewares/Third_Party/FreeRTOS/Source/CMSIS_RTOS_V2/cmsis_os2.c ****         }
1403:Middlewares/Third_Party/FreeRTOS/Source/CMSIS_RTOS_V2/cmsis_os2.c **** 
1404:Middlewares/Third_Party/FreeRTOS/Source/CMSIS_RTOS_V2/cmsis_os2.c ****         if ((hSemaphore != NULL) && (initial_count != 0U)) {
1405:Middlewares/Third_Party/FreeRTOS/Source/CMSIS_RTOS_V2/cmsis_os2.c ****           if (xSemaphoreGive (hSemaphore) != pdPASS) {
1406:Middlewares/Third_Party/FreeRTOS/Source/CMSIS_RTOS_V2/cmsis_os2.c ****             vSemaphoreDelete (hSemaphore);
1407:Middlewares/Third_Party/FreeRTOS/Source/CMSIS_RTOS_V2/cmsis_os2.c ****             hSemaphore = NULL;
1408:Middlewares/Third_Party/FreeRTOS/Source/CMSIS_RTOS_V2/cmsis_os2.c ****           }
1409:Middlewares/Third_Party/FreeRTOS/Source/CMSIS_RTOS_V2/cmsis_os2.c ****         }
1410:Middlewares/Third_Party/FreeRTOS/Source/CMSIS_RTOS_V2/cmsis_os2.c ****       }
1411:Middlewares/Third_Party/FreeRTOS/Source/CMSIS_RTOS_V2/cmsis_os2.c ****       else {
1412:Middlewares/Third_Party/FreeRTOS/Source/CMSIS_RTOS_V2/cmsis_os2.c ****         if (mem == 1) {
 5510              		.loc 1 1412 0
 5511 0046 012B     		cmp	r3, #1
 5512 0048 34D0     		beq	.L493
1413:Middlewares/Third_Party/FreeRTOS/Source/CMSIS_RTOS_V2/cmsis_os2.c ****           hSemaphore = xSemaphoreCreateCountingStatic (max_count, initial_count, (StaticSemaphore_t
1414:Middlewares/Third_Party/FreeRTOS/Source/CMSIS_RTOS_V2/cmsis_os2.c ****         }
1415:Middlewares/Third_Party/FreeRTOS/Source/CMSIS_RTOS_V2/cmsis_os2.c ****         else {
1416:Middlewares/Third_Party/FreeRTOS/Source/CMSIS_RTOS_V2/cmsis_os2.c ****           hSemaphore = xSemaphoreCreateCounting (max_count, initial_count);
 5513              		.loc 1 1416 0
 5514 004a 3100     		movs	r1, r6
 5515              	.LVL572:
 5516 004c FFF7FEFF 		bl	xQueueCreateCountingSemaphore
 5517              	.LVL573:
 5518 0050 0500     		movs	r5, r0
 5519              	.LVL574:
 5520              	.L480:
1417:Middlewares/Third_Party/FreeRTOS/Source/CMSIS_RTOS_V2/cmsis_os2.c ****         }
1418:Middlewares/Third_Party/FreeRTOS/Source/CMSIS_RTOS_V2/cmsis_os2.c ****       }
1419:Middlewares/Third_Party/FreeRTOS/Source/CMSIS_RTOS_V2/cmsis_os2.c **** 
1420:Middlewares/Third_Party/FreeRTOS/Source/CMSIS_RTOS_V2/cmsis_os2.c ****       #if (configQUEUE_REGISTRY_SIZE > 0)
1421:Middlewares/Third_Party/FreeRTOS/Source/CMSIS_RTOS_V2/cmsis_os2.c ****       if (hSemaphore != NULL) {
 5521              		.loc 1 1421 0
 5522 0052 002D     		cmp	r5, #0
 5523 0054 05D0     		beq	.L472
1422:Middlewares/Third_Party/FreeRTOS/Source/CMSIS_RTOS_V2/cmsis_os2.c ****         if (attr != NULL) {
 5524              		.loc 1 1422 0
ARM GAS  /tmp/ccJ2K96T.s 			page 137


 5525 0056 002C     		cmp	r4, #0
 5526 0058 32D0     		beq	.L491
1423:Middlewares/Third_Party/FreeRTOS/Source/CMSIS_RTOS_V2/cmsis_os2.c ****           name = attr->name;
 5527              		.loc 1 1423 0
 5528 005a 2168     		ldr	r1, [r4]
 5529              	.LVL575:
 5530              	.L482:
1424:Middlewares/Third_Party/FreeRTOS/Source/CMSIS_RTOS_V2/cmsis_os2.c ****         } else {
1425:Middlewares/Third_Party/FreeRTOS/Source/CMSIS_RTOS_V2/cmsis_os2.c ****           name = NULL;
1426:Middlewares/Third_Party/FreeRTOS/Source/CMSIS_RTOS_V2/cmsis_os2.c ****         }
1427:Middlewares/Third_Party/FreeRTOS/Source/CMSIS_RTOS_V2/cmsis_os2.c ****         vQueueAddToRegistry (hSemaphore, name);
 5531              		.loc 1 1427 0
 5532 005c 2800     		movs	r0, r5
 5533 005e FFF7FEFF 		bl	vQueueAddToRegistry
 5534              	.LVL576:
 5535              	.L472:
1428:Middlewares/Third_Party/FreeRTOS/Source/CMSIS_RTOS_V2/cmsis_os2.c ****       }
1429:Middlewares/Third_Party/FreeRTOS/Source/CMSIS_RTOS_V2/cmsis_os2.c ****       #endif
1430:Middlewares/Third_Party/FreeRTOS/Source/CMSIS_RTOS_V2/cmsis_os2.c ****     }
1431:Middlewares/Third_Party/FreeRTOS/Source/CMSIS_RTOS_V2/cmsis_os2.c ****   }
1432:Middlewares/Third_Party/FreeRTOS/Source/CMSIS_RTOS_V2/cmsis_os2.c **** 
1433:Middlewares/Third_Party/FreeRTOS/Source/CMSIS_RTOS_V2/cmsis_os2.c ****   return ((osSemaphoreId_t)hSemaphore);
1434:Middlewares/Third_Party/FreeRTOS/Source/CMSIS_RTOS_V2/cmsis_os2.c **** }
 5536              		.loc 1 1434 0
 5537 0062 2800     		movs	r0, r5
 5538 0064 02B0     		add	sp, sp, #8
 5539              		@ sp needed
 5540              	.LVL577:
 5541              	.LVL578:
 5542 0066 70BD     		pop	{r4, r5, r6, pc}
 5543              	.LVL579:
 5544              	.L487:
1392:Middlewares/Third_Party/FreeRTOS/Source/CMSIS_RTOS_V2/cmsis_os2.c ****     }
 5545              		.loc 1 1392 0
 5546 0068 0023     		movs	r3, #0
 5547 006a EAE7     		b	.L475
 5548              	.LVL580:
 5549              	.L488:
1383:Middlewares/Third_Party/FreeRTOS/Source/CMSIS_RTOS_V2/cmsis_os2.c ****       }
 5550              		.loc 1 1383 0
 5551 006c 0123     		movs	r3, #1
 5552 006e E8E7     		b	.L475
 5553              	.L492:
1397:Middlewares/Third_Party/FreeRTOS/Source/CMSIS_RTOS_V2/cmsis_os2.c ****           hSemaphore = xSemaphoreCreateBinaryStatic ((StaticSemaphore_t *)attr->cb_mem);
 5554              		.loc 1 1397 0
 5555 0070 012B     		cmp	r3, #1
 5556 0072 16D0     		beq	.L494
1401:Middlewares/Third_Party/FreeRTOS/Source/CMSIS_RTOS_V2/cmsis_os2.c ****         }
 5557              		.loc 1 1401 0
 5558 0074 0322     		movs	r2, #3
 5559 0076 0021     		movs	r1, #0
 5560              	.LVL581:
 5561 0078 0120     		movs	r0, #1
 5562              	.LVL582:
 5563 007a FFF7FEFF 		bl	xQueueGenericCreate
 5564              	.LVL583:
 5565 007e 0500     		movs	r5, r0
ARM GAS  /tmp/ccJ2K96T.s 			page 138


 5566              	.LVL584:
 5567              	.L479:
1404:Middlewares/Third_Party/FreeRTOS/Source/CMSIS_RTOS_V2/cmsis_os2.c ****           if (xSemaphoreGive (hSemaphore) != pdPASS) {
 5568              		.loc 1 1404 0
 5569 0080 002D     		cmp	r5, #0
 5570 0082 E6D0     		beq	.L480
1404:Middlewares/Third_Party/FreeRTOS/Source/CMSIS_RTOS_V2/cmsis_os2.c ****           if (xSemaphoreGive (hSemaphore) != pdPASS) {
 5571              		.loc 1 1404 0 is_stmt 0 discriminator 1
 5572 0084 002E     		cmp	r6, #0
 5573 0086 E4D0     		beq	.L480
1405:Middlewares/Third_Party/FreeRTOS/Source/CMSIS_RTOS_V2/cmsis_os2.c ****             vSemaphoreDelete (hSemaphore);
 5574              		.loc 1 1405 0 is_stmt 1
 5575 0088 0023     		movs	r3, #0
 5576 008a 0022     		movs	r2, #0
 5577 008c 0021     		movs	r1, #0
 5578 008e 2800     		movs	r0, r5
 5579 0090 FFF7FEFF 		bl	xQueueGenericSend
 5580              	.LVL585:
 5581 0094 0128     		cmp	r0, #1
 5582 0096 DCD0     		beq	.L480
1406:Middlewares/Third_Party/FreeRTOS/Source/CMSIS_RTOS_V2/cmsis_os2.c ****             hSemaphore = NULL;
 5583              		.loc 1 1406 0
 5584 0098 2800     		movs	r0, r5
 5585 009a FFF7FEFF 		bl	vQueueDelete
 5586              	.LVL586:
1407:Middlewares/Third_Party/FreeRTOS/Source/CMSIS_RTOS_V2/cmsis_os2.c ****           }
 5587              		.loc 1 1407 0
 5588 009e 0025     		movs	r5, #0
 5589 00a0 DFE7     		b	.L472
 5590              	.LVL587:
 5591              	.L494:
1398:Middlewares/Third_Party/FreeRTOS/Source/CMSIS_RTOS_V2/cmsis_os2.c ****         }
 5592              		.loc 1 1398 0
 5593 00a2 0233     		adds	r3, r3, #2
 5594 00a4 0093     		str	r3, [sp]
 5595 00a6 A368     		ldr	r3, [r4, #8]
 5596 00a8 0022     		movs	r2, #0
 5597 00aa 0021     		movs	r1, #0
 5598              	.LVL588:
 5599 00ac FFF7FEFF 		bl	xQueueGenericCreateStatic
 5600              	.LVL589:
 5601 00b0 0500     		movs	r5, r0
 5602              	.LVL590:
 5603 00b2 E5E7     		b	.L479
 5604              	.LVL591:
 5605              	.L493:
1413:Middlewares/Third_Party/FreeRTOS/Source/CMSIS_RTOS_V2/cmsis_os2.c ****         }
 5606              		.loc 1 1413 0
 5607 00b4 A268     		ldr	r2, [r4, #8]
 5608 00b6 3100     		movs	r1, r6
 5609              	.LVL592:
 5610 00b8 FFF7FEFF 		bl	xQueueCreateCountingSemaphoreStatic
 5611              	.LVL593:
 5612 00bc 0500     		movs	r5, r0
 5613              	.LVL594:
 5614 00be C8E7     		b	.L480
 5615              	.LVL595:
ARM GAS  /tmp/ccJ2K96T.s 			page 139


 5616              	.L491:
1425:Middlewares/Third_Party/FreeRTOS/Source/CMSIS_RTOS_V2/cmsis_os2.c ****         }
 5617              		.loc 1 1425 0
 5618 00c0 0021     		movs	r1, #0
 5619 00c2 CBE7     		b	.L482
 5620              	.LVL596:
 5621              	.L483:
1376:Middlewares/Third_Party/FreeRTOS/Source/CMSIS_RTOS_V2/cmsis_os2.c **** 
 5622              		.loc 1 1376 0
 5623 00c4 0025     		movs	r5, #0
 5624 00c6 CCE7     		b	.L472
 5625              	.L484:
 5626 00c8 0025     		movs	r5, #0
 5627 00ca CAE7     		b	.L472
 5628              	.L485:
 5629 00cc 0025     		movs	r5, #0
 5630 00ce C8E7     		b	.L472
 5631              	.L486:
 5632 00d0 0025     		movs	r5, #0
 5633 00d2 C6E7     		b	.L472
 5634              	.LVL597:
 5635              	.L489:
 5636 00d4 0025     		movs	r5, #0
 5637 00d6 C4E7     		b	.L472
 5638              	.L490:
 5639 00d8 0025     		movs	r5, #0
1433:Middlewares/Third_Party/FreeRTOS/Source/CMSIS_RTOS_V2/cmsis_os2.c **** }
 5640              		.loc 1 1433 0
 5641 00da C2E7     		b	.L472
 5642              	.L496:
 5643              		.align	2
 5644              	.L495:
 5645 00dc 00000000 		.word	.LANCHOR0
 5646              		.cfi_endproc
 5647              	.LFE75:
 5649              		.section	.text.osSemaphoreAcquire,"ax",%progbits
 5650              		.align	1
 5651              		.global	osSemaphoreAcquire
 5652              		.syntax unified
 5653              		.code	16
 5654              		.thumb_func
 5655              		.fpu softvfp
 5657              	osSemaphoreAcquire:
 5658              	.LFB76:
1435:Middlewares/Third_Party/FreeRTOS/Source/CMSIS_RTOS_V2/cmsis_os2.c **** 
1436:Middlewares/Third_Party/FreeRTOS/Source/CMSIS_RTOS_V2/cmsis_os2.c **** osStatus_t osSemaphoreAcquire (osSemaphoreId_t semaphore_id, uint32_t timeout) {
 5659              		.loc 1 1436 0
 5660              		.cfi_startproc
 5661              		@ args = 0, pretend = 0, frame = 8
 5662              		@ frame_needed = 0, uses_anonymous_args = 0
 5663              	.LVL598:
 5664 0000 10B5     		push	{r4, lr}
 5665              	.LCFI62:
 5666              		.cfi_def_cfa_offset 8
 5667              		.cfi_offset 4, -8
 5668              		.cfi_offset 14, -4
 5669 0002 82B0     		sub	sp, sp, #8
ARM GAS  /tmp/ccJ2K96T.s 			page 140


 5670              	.LCFI63:
 5671              		.cfi_def_cfa_offset 16
 5672 0004 0C00     		movs	r4, r1
 5673              	.LVL599:
1437:Middlewares/Third_Party/FreeRTOS/Source/CMSIS_RTOS_V2/cmsis_os2.c ****   SemaphoreHandle_t hSemaphore = (SemaphoreHandle_t)semaphore_id;
1438:Middlewares/Third_Party/FreeRTOS/Source/CMSIS_RTOS_V2/cmsis_os2.c ****   osStatus_t stat;
1439:Middlewares/Third_Party/FreeRTOS/Source/CMSIS_RTOS_V2/cmsis_os2.c ****   BaseType_t yield;
1440:Middlewares/Third_Party/FreeRTOS/Source/CMSIS_RTOS_V2/cmsis_os2.c **** 
1441:Middlewares/Third_Party/FreeRTOS/Source/CMSIS_RTOS_V2/cmsis_os2.c ****   stat = osOK;
1442:Middlewares/Third_Party/FreeRTOS/Source/CMSIS_RTOS_V2/cmsis_os2.c **** 
1443:Middlewares/Third_Party/FreeRTOS/Source/CMSIS_RTOS_V2/cmsis_os2.c ****   if (hSemaphore == NULL) {
 5674              		.loc 1 1443 0
 5675 0006 0028     		cmp	r0, #0
 5676 0008 28D0     		beq	.L501
 5677              	.LBB390:
 5678              	.LBB391:
 209:Drivers/CMSIS/Include/cmsis_gcc.h ****   return(result);
 5679              		.loc 2 209 0
 5680              		.syntax divided
 5681              	@ 209 "Drivers/CMSIS/Include/cmsis_gcc.h" 1
 5682 000a EFF30583 		MRS r3, ipsr
 5683              	@ 0 "" 2
 5684              		.thumb
 5685              		.syntax unified
 5686              	.LBE391:
 5687              	.LBE390:
1444:Middlewares/Third_Party/FreeRTOS/Source/CMSIS_RTOS_V2/cmsis_os2.c ****     stat = osErrorParameter;
1445:Middlewares/Third_Party/FreeRTOS/Source/CMSIS_RTOS_V2/cmsis_os2.c ****   }
1446:Middlewares/Third_Party/FreeRTOS/Source/CMSIS_RTOS_V2/cmsis_os2.c ****   else if (IS_IRQ()) {
 5688              		.loc 1 1446 0
 5689 000e 002B     		cmp	r3, #0
 5690 0010 11D1     		bne	.L499
 5691              	.LBB392:
 5692              	.LBB393:
 5693              		.loc 2 386 0
 5694              		.syntax divided
 5695              	@ 386 "Drivers/CMSIS/Include/cmsis_gcc.h" 1
 5696 0012 EFF31083 		MRS r3, primask
 5697              	@ 0 "" 2
 5698              		.thumb
 5699              		.syntax unified
 5700              	.LBE393:
 5701              	.LBE392:
 5702              		.loc 1 1446 0
 5703 0016 002B     		cmp	r3, #0
 5704 0018 03D0     		beq	.L500
 5705              		.loc 1 1446 0 is_stmt 0 discriminator 2
 5706 001a 194B     		ldr	r3, .L507
 5707 001c 1B68     		ldr	r3, [r3]
 5708 001e 022B     		cmp	r3, #2
 5709 0020 09D0     		beq	.L499
 5710              	.L500:
1447:Middlewares/Third_Party/FreeRTOS/Source/CMSIS_RTOS_V2/cmsis_os2.c ****     if (timeout != 0U) {
1448:Middlewares/Third_Party/FreeRTOS/Source/CMSIS_RTOS_V2/cmsis_os2.c ****       stat = osErrorParameter;
1449:Middlewares/Third_Party/FreeRTOS/Source/CMSIS_RTOS_V2/cmsis_os2.c ****     }
1450:Middlewares/Third_Party/FreeRTOS/Source/CMSIS_RTOS_V2/cmsis_os2.c ****     else {
1451:Middlewares/Third_Party/FreeRTOS/Source/CMSIS_RTOS_V2/cmsis_os2.c ****       yield = pdFALSE;
ARM GAS  /tmp/ccJ2K96T.s 			page 141


1452:Middlewares/Third_Party/FreeRTOS/Source/CMSIS_RTOS_V2/cmsis_os2.c **** 
1453:Middlewares/Third_Party/FreeRTOS/Source/CMSIS_RTOS_V2/cmsis_os2.c ****       if (xSemaphoreTakeFromISR (hSemaphore, &yield) != pdPASS) {
1454:Middlewares/Third_Party/FreeRTOS/Source/CMSIS_RTOS_V2/cmsis_os2.c ****         stat = osErrorResource;
1455:Middlewares/Third_Party/FreeRTOS/Source/CMSIS_RTOS_V2/cmsis_os2.c ****       } else {
1456:Middlewares/Third_Party/FreeRTOS/Source/CMSIS_RTOS_V2/cmsis_os2.c ****         portYIELD_FROM_ISR (yield);
1457:Middlewares/Third_Party/FreeRTOS/Source/CMSIS_RTOS_V2/cmsis_os2.c ****       }
1458:Middlewares/Third_Party/FreeRTOS/Source/CMSIS_RTOS_V2/cmsis_os2.c ****     }
1459:Middlewares/Third_Party/FreeRTOS/Source/CMSIS_RTOS_V2/cmsis_os2.c ****   }
1460:Middlewares/Third_Party/FreeRTOS/Source/CMSIS_RTOS_V2/cmsis_os2.c ****   else {
1461:Middlewares/Third_Party/FreeRTOS/Source/CMSIS_RTOS_V2/cmsis_os2.c ****     if (xSemaphoreTake (hSemaphore, (TickType_t)timeout) != pdPASS) {
 5711              		.loc 1 1461 0 is_stmt 1
 5712 0022 2100     		movs	r1, r4
 5713              	.LVL600:
 5714 0024 FFF7FEFF 		bl	xQueueSemaphoreTake
 5715              	.LVL601:
 5716 0028 0128     		cmp	r0, #1
 5717 002a 23D0     		beq	.L505
1462:Middlewares/Third_Party/FreeRTOS/Source/CMSIS_RTOS_V2/cmsis_os2.c ****       if (timeout != 0U) {
 5718              		.loc 1 1462 0
 5719 002c 002C     		cmp	r4, #0
 5720 002e 23D0     		beq	.L506
1463:Middlewares/Third_Party/FreeRTOS/Source/CMSIS_RTOS_V2/cmsis_os2.c ****         stat = osErrorTimeout;
 5721              		.loc 1 1463 0
 5722 0030 0220     		movs	r0, #2
 5723 0032 4042     		rsbs	r0, r0, #0
 5724 0034 1CE0     		b	.L497
 5725              	.LVL602:
 5726              	.L499:
1447:Middlewares/Third_Party/FreeRTOS/Source/CMSIS_RTOS_V2/cmsis_os2.c ****     if (timeout != 0U) {
 5727              		.loc 1 1447 0
 5728 0036 002C     		cmp	r4, #0
 5729 0038 13D1     		bne	.L502
1451:Middlewares/Third_Party/FreeRTOS/Source/CMSIS_RTOS_V2/cmsis_os2.c **** 
 5730              		.loc 1 1451 0
 5731 003a 0023     		movs	r3, #0
 5732 003c 0193     		str	r3, [sp, #4]
1453:Middlewares/Third_Party/FreeRTOS/Source/CMSIS_RTOS_V2/cmsis_os2.c ****         stat = osErrorResource;
 5733              		.loc 1 1453 0
 5734 003e 01AA     		add	r2, sp, #4
 5735 0040 0021     		movs	r1, #0
 5736              	.LVL603:
 5737 0042 FFF7FEFF 		bl	xQueueReceiveFromISR
 5738              	.LVL604:
 5739 0046 0128     		cmp	r0, #1
 5740 0048 0ED1     		bne	.L503
1456:Middlewares/Third_Party/FreeRTOS/Source/CMSIS_RTOS_V2/cmsis_os2.c ****       }
 5741              		.loc 1 1456 0
 5742 004a 019B     		ldr	r3, [sp, #4]
 5743 004c 002B     		cmp	r3, #0
 5744 004e 0ED0     		beq	.L504
1456:Middlewares/Third_Party/FreeRTOS/Source/CMSIS_RTOS_V2/cmsis_os2.c ****       }
 5745              		.loc 1 1456 0 is_stmt 0 discriminator 1
 5746 0050 0C4B     		ldr	r3, .L507+4
 5747 0052 8022     		movs	r2, #128
 5748 0054 5205     		lsls	r2, r2, #21
 5749 0056 1A60     		str	r2, [r3]
1441:Middlewares/Third_Party/FreeRTOS/Source/CMSIS_RTOS_V2/cmsis_os2.c **** 
ARM GAS  /tmp/ccJ2K96T.s 			page 142


 5750              		.loc 1 1441 0 is_stmt 1 discriminator 1
 5751 0058 0020     		movs	r0, #0
 5752 005a 09E0     		b	.L497
 5753              	.LVL605:
 5754              	.L501:
1444:Middlewares/Third_Party/FreeRTOS/Source/CMSIS_RTOS_V2/cmsis_os2.c ****   }
 5755              		.loc 1 1444 0
 5756 005c 0420     		movs	r0, #4
 5757              	.LVL606:
 5758 005e 4042     		rsbs	r0, r0, #0
 5759 0060 06E0     		b	.L497
 5760              	.LVL607:
 5761              	.L502:
1448:Middlewares/Third_Party/FreeRTOS/Source/CMSIS_RTOS_V2/cmsis_os2.c ****     }
 5762              		.loc 1 1448 0
 5763 0062 0420     		movs	r0, #4
 5764              	.LVL608:
 5765 0064 4042     		rsbs	r0, r0, #0
 5766 0066 03E0     		b	.L497
 5767              	.LVL609:
 5768              	.L503:
1454:Middlewares/Third_Party/FreeRTOS/Source/CMSIS_RTOS_V2/cmsis_os2.c ****       } else {
 5769              		.loc 1 1454 0
 5770 0068 0320     		movs	r0, #3
 5771 006a 4042     		rsbs	r0, r0, #0
 5772 006c 00E0     		b	.L497
 5773              	.L504:
1441:Middlewares/Third_Party/FreeRTOS/Source/CMSIS_RTOS_V2/cmsis_os2.c **** 
 5774              		.loc 1 1441 0
 5775 006e 0020     		movs	r0, #0
 5776              	.LVL610:
 5777              	.L497:
1464:Middlewares/Third_Party/FreeRTOS/Source/CMSIS_RTOS_V2/cmsis_os2.c ****       } else {
1465:Middlewares/Third_Party/FreeRTOS/Source/CMSIS_RTOS_V2/cmsis_os2.c ****         stat = osErrorResource;
1466:Middlewares/Third_Party/FreeRTOS/Source/CMSIS_RTOS_V2/cmsis_os2.c ****       }
1467:Middlewares/Third_Party/FreeRTOS/Source/CMSIS_RTOS_V2/cmsis_os2.c ****     }
1468:Middlewares/Third_Party/FreeRTOS/Source/CMSIS_RTOS_V2/cmsis_os2.c ****   }
1469:Middlewares/Third_Party/FreeRTOS/Source/CMSIS_RTOS_V2/cmsis_os2.c **** 
1470:Middlewares/Third_Party/FreeRTOS/Source/CMSIS_RTOS_V2/cmsis_os2.c ****   return (stat);
1471:Middlewares/Third_Party/FreeRTOS/Source/CMSIS_RTOS_V2/cmsis_os2.c **** }
 5778              		.loc 1 1471 0
 5779 0070 02B0     		add	sp, sp, #8
 5780              		@ sp needed
 5781              	.LVL611:
 5782 0072 10BD     		pop	{r4, pc}
 5783              	.LVL612:
 5784              	.L505:
1441:Middlewares/Third_Party/FreeRTOS/Source/CMSIS_RTOS_V2/cmsis_os2.c **** 
 5785              		.loc 1 1441 0
 5786 0074 0020     		movs	r0, #0
 5787 0076 FBE7     		b	.L497
 5788              	.L506:
1465:Middlewares/Third_Party/FreeRTOS/Source/CMSIS_RTOS_V2/cmsis_os2.c ****       }
 5789              		.loc 1 1465 0
 5790 0078 0320     		movs	r0, #3
 5791 007a 4042     		rsbs	r0, r0, #0
 5792              	.LVL613:
ARM GAS  /tmp/ccJ2K96T.s 			page 143


1470:Middlewares/Third_Party/FreeRTOS/Source/CMSIS_RTOS_V2/cmsis_os2.c **** }
 5793              		.loc 1 1470 0
 5794 007c F8E7     		b	.L497
 5795              	.L508:
 5796 007e C046     		.align	2
 5797              	.L507:
 5798 0080 00000000 		.word	.LANCHOR0
 5799 0084 04ED00E0 		.word	-536810236
 5800              		.cfi_endproc
 5801              	.LFE76:
 5803              		.section	.text.osSemaphoreRelease,"ax",%progbits
 5804              		.align	1
 5805              		.global	osSemaphoreRelease
 5806              		.syntax unified
 5807              		.code	16
 5808              		.thumb_func
 5809              		.fpu softvfp
 5811              	osSemaphoreRelease:
 5812              	.LFB77:
1472:Middlewares/Third_Party/FreeRTOS/Source/CMSIS_RTOS_V2/cmsis_os2.c **** 
1473:Middlewares/Third_Party/FreeRTOS/Source/CMSIS_RTOS_V2/cmsis_os2.c **** osStatus_t osSemaphoreRelease (osSemaphoreId_t semaphore_id) {
 5813              		.loc 1 1473 0
 5814              		.cfi_startproc
 5815              		@ args = 0, pretend = 0, frame = 8
 5816              		@ frame_needed = 0, uses_anonymous_args = 0
 5817              	.LVL614:
 5818 0000 00B5     		push	{lr}
 5819              	.LCFI64:
 5820              		.cfi_def_cfa_offset 4
 5821              		.cfi_offset 14, -4
 5822 0002 83B0     		sub	sp, sp, #12
 5823              	.LCFI65:
 5824              		.cfi_def_cfa_offset 16
 5825              	.LVL615:
1474:Middlewares/Third_Party/FreeRTOS/Source/CMSIS_RTOS_V2/cmsis_os2.c ****   SemaphoreHandle_t hSemaphore = (SemaphoreHandle_t)semaphore_id;
1475:Middlewares/Third_Party/FreeRTOS/Source/CMSIS_RTOS_V2/cmsis_os2.c ****   osStatus_t stat;
1476:Middlewares/Third_Party/FreeRTOS/Source/CMSIS_RTOS_V2/cmsis_os2.c ****   BaseType_t yield;
1477:Middlewares/Third_Party/FreeRTOS/Source/CMSIS_RTOS_V2/cmsis_os2.c **** 
1478:Middlewares/Third_Party/FreeRTOS/Source/CMSIS_RTOS_V2/cmsis_os2.c ****   stat = osOK;
1479:Middlewares/Third_Party/FreeRTOS/Source/CMSIS_RTOS_V2/cmsis_os2.c **** 
1480:Middlewares/Third_Party/FreeRTOS/Source/CMSIS_RTOS_V2/cmsis_os2.c ****   if (hSemaphore == NULL) {
 5826              		.loc 1 1480 0
 5827 0004 0028     		cmp	r0, #0
 5828 0006 25D0     		beq	.L513
 5829              	.LBB394:
 5830              	.LBB395:
 209:Drivers/CMSIS/Include/cmsis_gcc.h ****   return(result);
 5831              		.loc 2 209 0
 5832              		.syntax divided
 5833              	@ 209 "Drivers/CMSIS/Include/cmsis_gcc.h" 1
 5834 0008 EFF30583 		MRS r3, ipsr
 5835              	@ 0 "" 2
 5836              		.thumb
 5837              		.syntax unified
 5838              	.LBE395:
 5839              	.LBE394:
1481:Middlewares/Third_Party/FreeRTOS/Source/CMSIS_RTOS_V2/cmsis_os2.c ****     stat = osErrorParameter;
ARM GAS  /tmp/ccJ2K96T.s 			page 144


1482:Middlewares/Third_Party/FreeRTOS/Source/CMSIS_RTOS_V2/cmsis_os2.c ****   }
1483:Middlewares/Third_Party/FreeRTOS/Source/CMSIS_RTOS_V2/cmsis_os2.c ****   else if (IS_IRQ()) {
 5840              		.loc 1 1483 0
 5841 000c 002B     		cmp	r3, #0
 5842 000e 11D1     		bne	.L511
 5843              	.LBB396:
 5844              	.LBB397:
 5845              		.loc 2 386 0
 5846              		.syntax divided
 5847              	@ 386 "Drivers/CMSIS/Include/cmsis_gcc.h" 1
 5848 0010 EFF31083 		MRS r3, primask
 5849              	@ 0 "" 2
 5850              		.thumb
 5851              		.syntax unified
 5852              	.LBE397:
 5853              	.LBE396:
 5854              		.loc 1 1483 0
 5855 0014 002B     		cmp	r3, #0
 5856 0016 03D0     		beq	.L512
 5857              		.loc 1 1483 0 is_stmt 0 discriminator 2
 5858 0018 144B     		ldr	r3, .L517
 5859 001a 1B68     		ldr	r3, [r3]
 5860 001c 022B     		cmp	r3, #2
 5861 001e 09D0     		beq	.L511
 5862              	.L512:
1484:Middlewares/Third_Party/FreeRTOS/Source/CMSIS_RTOS_V2/cmsis_os2.c ****     yield = pdFALSE;
1485:Middlewares/Third_Party/FreeRTOS/Source/CMSIS_RTOS_V2/cmsis_os2.c **** 
1486:Middlewares/Third_Party/FreeRTOS/Source/CMSIS_RTOS_V2/cmsis_os2.c ****     if (xSemaphoreGiveFromISR (hSemaphore, &yield) != pdTRUE) {
1487:Middlewares/Third_Party/FreeRTOS/Source/CMSIS_RTOS_V2/cmsis_os2.c ****       stat = osErrorResource;
1488:Middlewares/Third_Party/FreeRTOS/Source/CMSIS_RTOS_V2/cmsis_os2.c ****     } else {
1489:Middlewares/Third_Party/FreeRTOS/Source/CMSIS_RTOS_V2/cmsis_os2.c ****       portYIELD_FROM_ISR (yield);
1490:Middlewares/Third_Party/FreeRTOS/Source/CMSIS_RTOS_V2/cmsis_os2.c ****     }
1491:Middlewares/Third_Party/FreeRTOS/Source/CMSIS_RTOS_V2/cmsis_os2.c ****   }
1492:Middlewares/Third_Party/FreeRTOS/Source/CMSIS_RTOS_V2/cmsis_os2.c ****   else {
1493:Middlewares/Third_Party/FreeRTOS/Source/CMSIS_RTOS_V2/cmsis_os2.c ****     if (xSemaphoreGive (hSemaphore) != pdPASS) {
 5863              		.loc 1 1493 0 is_stmt 1
 5864 0020 0023     		movs	r3, #0
 5865 0022 0022     		movs	r2, #0
 5866 0024 0021     		movs	r1, #0
 5867 0026 FFF7FEFF 		bl	xQueueGenericSend
 5868              	.LVL616:
 5869 002a 0128     		cmp	r0, #1
 5870 002c 1AD1     		bne	.L516
1478:Middlewares/Third_Party/FreeRTOS/Source/CMSIS_RTOS_V2/cmsis_os2.c **** 
 5871              		.loc 1 1478 0
 5872 002e 0020     		movs	r0, #0
 5873              	.LVL617:
 5874              	.L509:
1494:Middlewares/Third_Party/FreeRTOS/Source/CMSIS_RTOS_V2/cmsis_os2.c ****       stat = osErrorResource;
1495:Middlewares/Third_Party/FreeRTOS/Source/CMSIS_RTOS_V2/cmsis_os2.c ****     }
1496:Middlewares/Third_Party/FreeRTOS/Source/CMSIS_RTOS_V2/cmsis_os2.c ****   }
1497:Middlewares/Third_Party/FreeRTOS/Source/CMSIS_RTOS_V2/cmsis_os2.c **** 
1498:Middlewares/Third_Party/FreeRTOS/Source/CMSIS_RTOS_V2/cmsis_os2.c ****   return (stat);
1499:Middlewares/Third_Party/FreeRTOS/Source/CMSIS_RTOS_V2/cmsis_os2.c **** }
 5875              		.loc 1 1499 0
 5876 0030 03B0     		add	sp, sp, #12
 5877              		@ sp needed
ARM GAS  /tmp/ccJ2K96T.s 			page 145


 5878 0032 00BD     		pop	{pc}
 5879              	.LVL618:
 5880              	.L511:
1484:Middlewares/Third_Party/FreeRTOS/Source/CMSIS_RTOS_V2/cmsis_os2.c **** 
 5881              		.loc 1 1484 0
 5882 0034 0023     		movs	r3, #0
 5883 0036 0193     		str	r3, [sp, #4]
1486:Middlewares/Third_Party/FreeRTOS/Source/CMSIS_RTOS_V2/cmsis_os2.c ****       stat = osErrorResource;
 5884              		.loc 1 1486 0
 5885 0038 01A9     		add	r1, sp, #4
 5886 003a FFF7FEFF 		bl	xQueueGiveFromISR
 5887              	.LVL619:
 5888 003e 0128     		cmp	r0, #1
 5889 0040 0BD1     		bne	.L514
1489:Middlewares/Third_Party/FreeRTOS/Source/CMSIS_RTOS_V2/cmsis_os2.c ****     }
 5890              		.loc 1 1489 0
 5891 0042 019B     		ldr	r3, [sp, #4]
 5892 0044 002B     		cmp	r3, #0
 5893 0046 0BD0     		beq	.L515
1489:Middlewares/Third_Party/FreeRTOS/Source/CMSIS_RTOS_V2/cmsis_os2.c ****     }
 5894              		.loc 1 1489 0 is_stmt 0 discriminator 1
 5895 0048 094B     		ldr	r3, .L517+4
 5896 004a 8022     		movs	r2, #128
 5897 004c 5205     		lsls	r2, r2, #21
 5898 004e 1A60     		str	r2, [r3]
1478:Middlewares/Third_Party/FreeRTOS/Source/CMSIS_RTOS_V2/cmsis_os2.c **** 
 5899              		.loc 1 1478 0 is_stmt 1 discriminator 1
 5900 0050 0020     		movs	r0, #0
 5901 0052 EDE7     		b	.L509
 5902              	.LVL620:
 5903              	.L513:
1481:Middlewares/Third_Party/FreeRTOS/Source/CMSIS_RTOS_V2/cmsis_os2.c ****   }
 5904              		.loc 1 1481 0
 5905 0054 0420     		movs	r0, #4
 5906              	.LVL621:
 5907 0056 4042     		rsbs	r0, r0, #0
 5908 0058 EAE7     		b	.L509
 5909              	.L514:
1487:Middlewares/Third_Party/FreeRTOS/Source/CMSIS_RTOS_V2/cmsis_os2.c ****     } else {
 5910              		.loc 1 1487 0
 5911 005a 0320     		movs	r0, #3
 5912 005c 4042     		rsbs	r0, r0, #0
 5913 005e E7E7     		b	.L509
 5914              	.L515:
1478:Middlewares/Third_Party/FreeRTOS/Source/CMSIS_RTOS_V2/cmsis_os2.c **** 
 5915              		.loc 1 1478 0
 5916 0060 0020     		movs	r0, #0
 5917 0062 E5E7     		b	.L509
 5918              	.L516:
1494:Middlewares/Third_Party/FreeRTOS/Source/CMSIS_RTOS_V2/cmsis_os2.c ****     }
 5919              		.loc 1 1494 0
 5920 0064 0320     		movs	r0, #3
 5921 0066 4042     		rsbs	r0, r0, #0
 5922              	.LVL622:
1498:Middlewares/Third_Party/FreeRTOS/Source/CMSIS_RTOS_V2/cmsis_os2.c **** }
 5923              		.loc 1 1498 0
 5924 0068 E2E7     		b	.L509
ARM GAS  /tmp/ccJ2K96T.s 			page 146


 5925              	.L518:
 5926 006a C046     		.align	2
 5927              	.L517:
 5928 006c 00000000 		.word	.LANCHOR0
 5929 0070 04ED00E0 		.word	-536810236
 5930              		.cfi_endproc
 5931              	.LFE77:
 5933              		.section	.text.osSemaphoreGetCount,"ax",%progbits
 5934              		.align	1
 5935              		.global	osSemaphoreGetCount
 5936              		.syntax unified
 5937              		.code	16
 5938              		.thumb_func
 5939              		.fpu softvfp
 5941              	osSemaphoreGetCount:
 5942              	.LFB78:
1500:Middlewares/Third_Party/FreeRTOS/Source/CMSIS_RTOS_V2/cmsis_os2.c **** 
1501:Middlewares/Third_Party/FreeRTOS/Source/CMSIS_RTOS_V2/cmsis_os2.c **** uint32_t osSemaphoreGetCount (osSemaphoreId_t semaphore_id) {
 5943              		.loc 1 1501 0
 5944              		.cfi_startproc
 5945              		@ args = 0, pretend = 0, frame = 0
 5946              		@ frame_needed = 0, uses_anonymous_args = 0
 5947              	.LVL623:
 5948 0000 10B5     		push	{r4, lr}
 5949              	.LCFI66:
 5950              		.cfi_def_cfa_offset 8
 5951              		.cfi_offset 4, -8
 5952              		.cfi_offset 14, -4
 5953              	.LVL624:
1502:Middlewares/Third_Party/FreeRTOS/Source/CMSIS_RTOS_V2/cmsis_os2.c ****   SemaphoreHandle_t hSemaphore = (SemaphoreHandle_t)semaphore_id;
1503:Middlewares/Third_Party/FreeRTOS/Source/CMSIS_RTOS_V2/cmsis_os2.c ****   uint32_t count;
1504:Middlewares/Third_Party/FreeRTOS/Source/CMSIS_RTOS_V2/cmsis_os2.c **** 
1505:Middlewares/Third_Party/FreeRTOS/Source/CMSIS_RTOS_V2/cmsis_os2.c ****   if (hSemaphore == NULL) {
 5954              		.loc 1 1505 0
 5955 0002 0028     		cmp	r0, #0
 5956 0004 11D0     		beq	.L523
 5957              	.LBB398:
 5958              	.LBB399:
 209:Drivers/CMSIS/Include/cmsis_gcc.h ****   return(result);
 5959              		.loc 2 209 0
 5960              		.syntax divided
 5961              	@ 209 "Drivers/CMSIS/Include/cmsis_gcc.h" 1
 5962 0006 EFF30583 		MRS r3, ipsr
 5963              	@ 0 "" 2
 5964              		.thumb
 5965              		.syntax unified
 5966              	.LBE399:
 5967              	.LBE398:
1506:Middlewares/Third_Party/FreeRTOS/Source/CMSIS_RTOS_V2/cmsis_os2.c ****     count = 0U;
1507:Middlewares/Third_Party/FreeRTOS/Source/CMSIS_RTOS_V2/cmsis_os2.c ****   }
1508:Middlewares/Third_Party/FreeRTOS/Source/CMSIS_RTOS_V2/cmsis_os2.c ****   else if (IS_IRQ()) {
 5968              		.loc 1 1508 0
 5969 000a 002B     		cmp	r3, #0
 5970 000c 0AD1     		bne	.L521
 5971              	.LBB400:
 5972              	.LBB401:
 5973              		.loc 2 386 0
ARM GAS  /tmp/ccJ2K96T.s 			page 147


 5974              		.syntax divided
 5975              	@ 386 "Drivers/CMSIS/Include/cmsis_gcc.h" 1
 5976 000e EFF31083 		MRS r3, primask
 5977              	@ 0 "" 2
 5978              		.thumb
 5979              		.syntax unified
 5980              	.LBE401:
 5981              	.LBE400:
 5982              		.loc 1 1508 0
 5983 0012 002B     		cmp	r3, #0
 5984 0014 03D0     		beq	.L522
 5985              		.loc 1 1508 0 is_stmt 0 discriminator 2
 5986 0016 064B     		ldr	r3, .L524
 5987 0018 1B68     		ldr	r3, [r3]
 5988 001a 022B     		cmp	r3, #2
 5989 001c 02D0     		beq	.L521
 5990              	.L522:
1509:Middlewares/Third_Party/FreeRTOS/Source/CMSIS_RTOS_V2/cmsis_os2.c ****     count = uxQueueMessagesWaitingFromISR (hSemaphore);
1510:Middlewares/Third_Party/FreeRTOS/Source/CMSIS_RTOS_V2/cmsis_os2.c ****   } else {
1511:Middlewares/Third_Party/FreeRTOS/Source/CMSIS_RTOS_V2/cmsis_os2.c ****     count = (uint32_t)uxSemaphoreGetCount (hSemaphore);
 5991              		.loc 1 1511 0 is_stmt 1
 5992 001e FFF7FEFF 		bl	uxQueueMessagesWaiting
 5993              	.LVL625:
 5994              	.L519:
1512:Middlewares/Third_Party/FreeRTOS/Source/CMSIS_RTOS_V2/cmsis_os2.c ****   }
1513:Middlewares/Third_Party/FreeRTOS/Source/CMSIS_RTOS_V2/cmsis_os2.c **** 
1514:Middlewares/Third_Party/FreeRTOS/Source/CMSIS_RTOS_V2/cmsis_os2.c ****   return (count);
1515:Middlewares/Third_Party/FreeRTOS/Source/CMSIS_RTOS_V2/cmsis_os2.c **** }
 5995              		.loc 1 1515 0
 5996              		@ sp needed
 5997 0022 10BD     		pop	{r4, pc}
 5998              	.LVL626:
 5999              	.L521:
1509:Middlewares/Third_Party/FreeRTOS/Source/CMSIS_RTOS_V2/cmsis_os2.c ****     count = uxQueueMessagesWaitingFromISR (hSemaphore);
 6000              		.loc 1 1509 0
 6001 0024 FFF7FEFF 		bl	uxQueueMessagesWaitingFromISR
 6002              	.LVL627:
 6003 0028 FBE7     		b	.L519
 6004              	.LVL628:
 6005              	.L523:
1506:Middlewares/Third_Party/FreeRTOS/Source/CMSIS_RTOS_V2/cmsis_os2.c ****   }
 6006              		.loc 1 1506 0
 6007 002a 0020     		movs	r0, #0
 6008              	.LVL629:
1514:Middlewares/Third_Party/FreeRTOS/Source/CMSIS_RTOS_V2/cmsis_os2.c **** }
 6009              		.loc 1 1514 0
 6010 002c F9E7     		b	.L519
 6011              	.L525:
 6012 002e C046     		.align	2
 6013              	.L524:
 6014 0030 00000000 		.word	.LANCHOR0
 6015              		.cfi_endproc
 6016              	.LFE78:
 6018              		.section	.text.osSemaphoreDelete,"ax",%progbits
 6019              		.align	1
 6020              		.global	osSemaphoreDelete
 6021              		.syntax unified
ARM GAS  /tmp/ccJ2K96T.s 			page 148


 6022              		.code	16
 6023              		.thumb_func
 6024              		.fpu softvfp
 6026              	osSemaphoreDelete:
 6027              	.LFB79:
1516:Middlewares/Third_Party/FreeRTOS/Source/CMSIS_RTOS_V2/cmsis_os2.c **** 
1517:Middlewares/Third_Party/FreeRTOS/Source/CMSIS_RTOS_V2/cmsis_os2.c **** osStatus_t osSemaphoreDelete (osSemaphoreId_t semaphore_id) {
 6028              		.loc 1 1517 0
 6029              		.cfi_startproc
 6030              		@ args = 0, pretend = 0, frame = 0
 6031              		@ frame_needed = 0, uses_anonymous_args = 0
 6032              	.LVL630:
 6033 0000 10B5     		push	{r4, lr}
 6034              	.LCFI67:
 6035              		.cfi_def_cfa_offset 8
 6036              		.cfi_offset 4, -8
 6037              		.cfi_offset 14, -4
 6038 0002 0400     		movs	r4, r0
 6039              	.LVL631:
 6040              	.LBB402:
 6041              	.LBB403:
 209:Drivers/CMSIS/Include/cmsis_gcc.h ****   return(result);
 6042              		.loc 2 209 0
 6043              		.syntax divided
 6044              	@ 209 "Drivers/CMSIS/Include/cmsis_gcc.h" 1
 6045 0004 EFF30583 		MRS r3, ipsr
 6046              	@ 0 "" 2
 6047              		.thumb
 6048              		.syntax unified
 6049              	.LBE403:
 6050              	.LBE402:
1518:Middlewares/Third_Party/FreeRTOS/Source/CMSIS_RTOS_V2/cmsis_os2.c ****   SemaphoreHandle_t hSemaphore = (SemaphoreHandle_t)semaphore_id;
1519:Middlewares/Third_Party/FreeRTOS/Source/CMSIS_RTOS_V2/cmsis_os2.c ****   osStatus_t stat;
1520:Middlewares/Third_Party/FreeRTOS/Source/CMSIS_RTOS_V2/cmsis_os2.c **** 
1521:Middlewares/Third_Party/FreeRTOS/Source/CMSIS_RTOS_V2/cmsis_os2.c **** #ifndef USE_FreeRTOS_HEAP_1
1522:Middlewares/Third_Party/FreeRTOS/Source/CMSIS_RTOS_V2/cmsis_os2.c ****   if (IS_IRQ()) {
 6051              		.loc 1 1522 0
 6052 0008 002B     		cmp	r3, #0
 6053 000a 11D1     		bne	.L529
 6054              	.LBB404:
 6055              	.LBB405:
 6056              		.loc 2 386 0
 6057              		.syntax divided
 6058              	@ 386 "Drivers/CMSIS/Include/cmsis_gcc.h" 1
 6059 000c EFF31083 		MRS r3, primask
 6060              	@ 0 "" 2
 6061              		.thumb
 6062              		.syntax unified
 6063              	.LBE405:
 6064              	.LBE404:
 6065              		.loc 1 1522 0
 6066 0010 002B     		cmp	r3, #0
 6067 0012 03D0     		beq	.L528
 6068              		.loc 1 1522 0 is_stmt 0 discriminator 2
 6069 0014 0B4B     		ldr	r3, .L532
 6070 0016 1B68     		ldr	r3, [r3]
 6071 0018 022B     		cmp	r3, #2
ARM GAS  /tmp/ccJ2K96T.s 			page 149


 6072 001a 0CD0     		beq	.L530
 6073              	.L528:
1523:Middlewares/Third_Party/FreeRTOS/Source/CMSIS_RTOS_V2/cmsis_os2.c ****     stat = osErrorISR;
1524:Middlewares/Third_Party/FreeRTOS/Source/CMSIS_RTOS_V2/cmsis_os2.c ****   }
1525:Middlewares/Third_Party/FreeRTOS/Source/CMSIS_RTOS_V2/cmsis_os2.c ****   else if (hSemaphore == NULL) {
 6074              		.loc 1 1525 0 is_stmt 1
 6075 001c 002C     		cmp	r4, #0
 6076 001e 0DD0     		beq	.L531
1526:Middlewares/Third_Party/FreeRTOS/Source/CMSIS_RTOS_V2/cmsis_os2.c ****     stat = osErrorParameter;
1527:Middlewares/Third_Party/FreeRTOS/Source/CMSIS_RTOS_V2/cmsis_os2.c ****   }
1528:Middlewares/Third_Party/FreeRTOS/Source/CMSIS_RTOS_V2/cmsis_os2.c ****   else {
1529:Middlewares/Third_Party/FreeRTOS/Source/CMSIS_RTOS_V2/cmsis_os2.c ****     #if (configQUEUE_REGISTRY_SIZE > 0)
1530:Middlewares/Third_Party/FreeRTOS/Source/CMSIS_RTOS_V2/cmsis_os2.c ****     vQueueUnregisterQueue (hSemaphore);
 6077              		.loc 1 1530 0
 6078 0020 2000     		movs	r0, r4
 6079              	.LVL632:
 6080 0022 FFF7FEFF 		bl	vQueueUnregisterQueue
 6081              	.LVL633:
1531:Middlewares/Third_Party/FreeRTOS/Source/CMSIS_RTOS_V2/cmsis_os2.c ****     #endif
1532:Middlewares/Third_Party/FreeRTOS/Source/CMSIS_RTOS_V2/cmsis_os2.c **** 
1533:Middlewares/Third_Party/FreeRTOS/Source/CMSIS_RTOS_V2/cmsis_os2.c ****     stat = osOK;
1534:Middlewares/Third_Party/FreeRTOS/Source/CMSIS_RTOS_V2/cmsis_os2.c ****     vSemaphoreDelete (hSemaphore);
 6082              		.loc 1 1534 0
 6083 0026 2000     		movs	r0, r4
 6084 0028 FFF7FEFF 		bl	vQueueDelete
 6085              	.LVL634:
1533:Middlewares/Third_Party/FreeRTOS/Source/CMSIS_RTOS_V2/cmsis_os2.c ****     vSemaphoreDelete (hSemaphore);
 6086              		.loc 1 1533 0
 6087 002c 0020     		movs	r0, #0
 6088              	.LVL635:
 6089              	.L526:
1535:Middlewares/Third_Party/FreeRTOS/Source/CMSIS_RTOS_V2/cmsis_os2.c ****   }
1536:Middlewares/Third_Party/FreeRTOS/Source/CMSIS_RTOS_V2/cmsis_os2.c **** #else
1537:Middlewares/Third_Party/FreeRTOS/Source/CMSIS_RTOS_V2/cmsis_os2.c ****   stat = osError;
1538:Middlewares/Third_Party/FreeRTOS/Source/CMSIS_RTOS_V2/cmsis_os2.c **** #endif
1539:Middlewares/Third_Party/FreeRTOS/Source/CMSIS_RTOS_V2/cmsis_os2.c **** 
1540:Middlewares/Third_Party/FreeRTOS/Source/CMSIS_RTOS_V2/cmsis_os2.c ****   return (stat);
1541:Middlewares/Third_Party/FreeRTOS/Source/CMSIS_RTOS_V2/cmsis_os2.c **** }
 6090              		.loc 1 1541 0
 6091              		@ sp needed
 6092              	.LVL636:
 6093 002e 10BD     		pop	{r4, pc}
 6094              	.LVL637:
 6095              	.L529:
1523:Middlewares/Third_Party/FreeRTOS/Source/CMSIS_RTOS_V2/cmsis_os2.c ****   }
 6096              		.loc 1 1523 0
 6097 0030 0620     		movs	r0, #6
 6098              	.LVL638:
 6099 0032 4042     		rsbs	r0, r0, #0
 6100 0034 FBE7     		b	.L526
 6101              	.LVL639:
 6102              	.L530:
 6103 0036 0620     		movs	r0, #6
 6104              	.LVL640:
 6105 0038 4042     		rsbs	r0, r0, #0
 6106 003a F8E7     		b	.L526
 6107              	.LVL641:
ARM GAS  /tmp/ccJ2K96T.s 			page 150


 6108              	.L531:
1526:Middlewares/Third_Party/FreeRTOS/Source/CMSIS_RTOS_V2/cmsis_os2.c ****   }
 6109              		.loc 1 1526 0
 6110 003c 0420     		movs	r0, #4
 6111              	.LVL642:
 6112 003e 4042     		rsbs	r0, r0, #0
 6113              	.LVL643:
1540:Middlewares/Third_Party/FreeRTOS/Source/CMSIS_RTOS_V2/cmsis_os2.c **** }
 6114              		.loc 1 1540 0
 6115 0040 F5E7     		b	.L526
 6116              	.L533:
 6117 0042 C046     		.align	2
 6118              	.L532:
 6119 0044 00000000 		.word	.LANCHOR0
 6120              		.cfi_endproc
 6121              	.LFE79:
 6123              		.section	.text.osMessageQueueNew,"ax",%progbits
 6124              		.align	1
 6125              		.global	osMessageQueueNew
 6126              		.syntax unified
 6127              		.code	16
 6128              		.thumb_func
 6129              		.fpu softvfp
 6131              	osMessageQueueNew:
 6132              	.LFB80:
1542:Middlewares/Third_Party/FreeRTOS/Source/CMSIS_RTOS_V2/cmsis_os2.c **** 
1543:Middlewares/Third_Party/FreeRTOS/Source/CMSIS_RTOS_V2/cmsis_os2.c **** /*---------------------------------------------------------------------------*/
1544:Middlewares/Third_Party/FreeRTOS/Source/CMSIS_RTOS_V2/cmsis_os2.c **** 
1545:Middlewares/Third_Party/FreeRTOS/Source/CMSIS_RTOS_V2/cmsis_os2.c **** osMessageQueueId_t osMessageQueueNew (uint32_t msg_count, uint32_t msg_size, const osMessageQueueAt
 6133              		.loc 1 1545 0
 6134              		.cfi_startproc
 6135              		@ args = 0, pretend = 0, frame = 0
 6136              		@ frame_needed = 0, uses_anonymous_args = 0
 6137              	.LVL644:
 6138 0000 70B5     		push	{r4, r5, r6, lr}
 6139              	.LCFI68:
 6140              		.cfi_def_cfa_offset 16
 6141              		.cfi_offset 4, -16
 6142              		.cfi_offset 5, -12
 6143              		.cfi_offset 6, -8
 6144              		.cfi_offset 14, -4
 6145 0002 82B0     		sub	sp, sp, #8
 6146              	.LCFI69:
 6147              		.cfi_def_cfa_offset 24
 6148 0004 1400     		movs	r4, r2
 6149              	.LVL645:
 6150              	.LBB406:
 6151              	.LBB407:
 209:Drivers/CMSIS/Include/cmsis_gcc.h ****   return(result);
 6152              		.loc 2 209 0
 6153              		.syntax divided
 6154              	@ 209 "Drivers/CMSIS/Include/cmsis_gcc.h" 1
 6155 0006 EFF30583 		MRS r3, ipsr
 6156              	@ 0 "" 2
 6157              		.thumb
 6158              		.syntax unified
 6159              	.LBE407:
ARM GAS  /tmp/ccJ2K96T.s 			page 151


 6160              	.LBE406:
1546:Middlewares/Third_Party/FreeRTOS/Source/CMSIS_RTOS_V2/cmsis_os2.c ****   QueueHandle_t hQueue;
1547:Middlewares/Third_Party/FreeRTOS/Source/CMSIS_RTOS_V2/cmsis_os2.c ****   int32_t mem;
1548:Middlewares/Third_Party/FreeRTOS/Source/CMSIS_RTOS_V2/cmsis_os2.c ****   #if (configQUEUE_REGISTRY_SIZE > 0)
1549:Middlewares/Third_Party/FreeRTOS/Source/CMSIS_RTOS_V2/cmsis_os2.c ****   const char *name;
1550:Middlewares/Third_Party/FreeRTOS/Source/CMSIS_RTOS_V2/cmsis_os2.c ****   #endif
1551:Middlewares/Third_Party/FreeRTOS/Source/CMSIS_RTOS_V2/cmsis_os2.c **** 
1552:Middlewares/Third_Party/FreeRTOS/Source/CMSIS_RTOS_V2/cmsis_os2.c ****   hQueue = NULL;
1553:Middlewares/Third_Party/FreeRTOS/Source/CMSIS_RTOS_V2/cmsis_os2.c **** 
1554:Middlewares/Third_Party/FreeRTOS/Source/CMSIS_RTOS_V2/cmsis_os2.c ****   if (!IS_IRQ() && (msg_count > 0U) && (msg_size > 0U)) {
 6161              		.loc 1 1554 0
 6162 000a 002B     		cmp	r3, #0
 6163 000c 4ED1     		bne	.L542
 6164              	.LBB408:
 6165              	.LBB409:
 6166              		.loc 2 386 0
 6167              		.syntax divided
 6168              	@ 386 "Drivers/CMSIS/Include/cmsis_gcc.h" 1
 6169 000e EFF31083 		MRS r3, primask
 6170              	@ 0 "" 2
 6171              		.thumb
 6172              		.syntax unified
 6173              	.LBE409:
 6174              	.LBE408:
 6175              		.loc 1 1554 0
 6176 0012 002B     		cmp	r3, #0
 6177 0014 03D0     		beq	.L536
 6178              		.loc 1 1554 0 is_stmt 0 discriminator 3
 6179 0016 2A4B     		ldr	r3, .L555
 6180 0018 1B68     		ldr	r3, [r3]
 6181 001a 022B     		cmp	r3, #2
 6182 001c 48D0     		beq	.L543
 6183              	.L536:
 6184              		.loc 1 1554 0 discriminator 4
 6185 001e 0028     		cmp	r0, #0
 6186 0020 48D0     		beq	.L544
 6187              		.loc 1 1554 0 discriminator 5
 6188 0022 0029     		cmp	r1, #0
 6189 0024 48D0     		beq	.L545
 6190              	.LVL646:
1555:Middlewares/Third_Party/FreeRTOS/Source/CMSIS_RTOS_V2/cmsis_os2.c ****     mem = -1;
1556:Middlewares/Third_Party/FreeRTOS/Source/CMSIS_RTOS_V2/cmsis_os2.c **** 
1557:Middlewares/Third_Party/FreeRTOS/Source/CMSIS_RTOS_V2/cmsis_os2.c ****     if (attr != NULL) {
 6191              		.loc 1 1557 0 is_stmt 1
 6192 0026 002C     		cmp	r4, #0
 6193 0028 37D0     		beq	.L546
1558:Middlewares/Third_Party/FreeRTOS/Source/CMSIS_RTOS_V2/cmsis_os2.c ****       if ((attr->cb_mem != NULL) && (attr->cb_size >= sizeof(StaticQueue_t)) &&
 6194              		.loc 1 1558 0
 6195 002a A368     		ldr	r3, [r4, #8]
 6196 002c 002B     		cmp	r3, #0
 6197 002e 0AD0     		beq	.L538
 6198              		.loc 1 1558 0 is_stmt 0 discriminator 1
 6199 0030 E268     		ldr	r2, [r4, #12]
 6200              	.LVL647:
 6201 0032 4F2A     		cmp	r2, #79
 6202 0034 07D9     		bls	.L538
1559:Middlewares/Third_Party/FreeRTOS/Source/CMSIS_RTOS_V2/cmsis_os2.c ****           (attr->mq_mem != NULL) && (attr->mq_size >= (msg_count * msg_size))) {
ARM GAS  /tmp/ccJ2K96T.s 			page 152


 6203              		.loc 1 1559 0 is_stmt 1 discriminator 2
 6204 0036 2269     		ldr	r2, [r4, #16]
1558:Middlewares/Third_Party/FreeRTOS/Source/CMSIS_RTOS_V2/cmsis_os2.c ****       if ((attr->cb_mem != NULL) && (attr->cb_size >= sizeof(StaticQueue_t)) &&
 6205              		.loc 1 1558 0 discriminator 2
 6206 0038 002A     		cmp	r2, #0
 6207 003a 04D0     		beq	.L538
 6208              		.loc 1 1559 0
 6209 003c 0D00     		movs	r5, r1
 6210 003e 4543     		muls	r5, r0
 6211 0040 6669     		ldr	r6, [r4, #20]
 6212 0042 AE42     		cmp	r6, r5
 6213 0044 23D2     		bcs	.L539
 6214              	.L538:
1560:Middlewares/Third_Party/FreeRTOS/Source/CMSIS_RTOS_V2/cmsis_os2.c ****         mem = 1;
1561:Middlewares/Third_Party/FreeRTOS/Source/CMSIS_RTOS_V2/cmsis_os2.c ****       }
1562:Middlewares/Third_Party/FreeRTOS/Source/CMSIS_RTOS_V2/cmsis_os2.c ****       else {
1563:Middlewares/Third_Party/FreeRTOS/Source/CMSIS_RTOS_V2/cmsis_os2.c ****         if ((attr->cb_mem == NULL) && (attr->cb_size == 0U) &&
 6215              		.loc 1 1563 0
 6216 0046 002B     		cmp	r3, #0
 6217 0048 12D0     		beq	.L553
1555:Middlewares/Third_Party/FreeRTOS/Source/CMSIS_RTOS_V2/cmsis_os2.c **** 
 6218              		.loc 1 1555 0
 6219 004a 0123     		movs	r3, #1
 6220 004c 5B42     		rsbs	r3, r3, #0
 6221              	.L537:
1564:Middlewares/Third_Party/FreeRTOS/Source/CMSIS_RTOS_V2/cmsis_os2.c ****             (attr->mq_mem == NULL) && (attr->mq_size == 0U)) {
1565:Middlewares/Third_Party/FreeRTOS/Source/CMSIS_RTOS_V2/cmsis_os2.c ****           mem = 0;
1566:Middlewares/Third_Party/FreeRTOS/Source/CMSIS_RTOS_V2/cmsis_os2.c ****         }
1567:Middlewares/Third_Party/FreeRTOS/Source/CMSIS_RTOS_V2/cmsis_os2.c ****       }
1568:Middlewares/Third_Party/FreeRTOS/Source/CMSIS_RTOS_V2/cmsis_os2.c ****     }
1569:Middlewares/Third_Party/FreeRTOS/Source/CMSIS_RTOS_V2/cmsis_os2.c ****     else {
1570:Middlewares/Third_Party/FreeRTOS/Source/CMSIS_RTOS_V2/cmsis_os2.c ****       mem = 0;
1571:Middlewares/Third_Party/FreeRTOS/Source/CMSIS_RTOS_V2/cmsis_os2.c ****     }
1572:Middlewares/Third_Party/FreeRTOS/Source/CMSIS_RTOS_V2/cmsis_os2.c **** 
1573:Middlewares/Third_Party/FreeRTOS/Source/CMSIS_RTOS_V2/cmsis_os2.c ****     if (mem == 1) {
1574:Middlewares/Third_Party/FreeRTOS/Source/CMSIS_RTOS_V2/cmsis_os2.c ****       hQueue = xQueueCreateStatic (msg_count, msg_size, attr->mq_mem, attr->cb_mem);
1575:Middlewares/Third_Party/FreeRTOS/Source/CMSIS_RTOS_V2/cmsis_os2.c ****     }
1576:Middlewares/Third_Party/FreeRTOS/Source/CMSIS_RTOS_V2/cmsis_os2.c ****     else {
1577:Middlewares/Third_Party/FreeRTOS/Source/CMSIS_RTOS_V2/cmsis_os2.c ****       if (mem == 0) {
 6222              		.loc 1 1577 0
 6223 004e 002B     		cmp	r3, #0
 6224 0050 34D1     		bne	.L551
1578:Middlewares/Third_Party/FreeRTOS/Source/CMSIS_RTOS_V2/cmsis_os2.c ****         hQueue = xQueueCreate (msg_count, msg_size);
 6225              		.loc 1 1578 0
 6226 0052 0022     		movs	r2, #0
 6227 0054 FFF7FEFF 		bl	xQueueGenericCreate
 6228              	.LVL648:
 6229 0058 0500     		movs	r5, r0
 6230              	.LVL649:
 6231              	.L540:
1579:Middlewares/Third_Party/FreeRTOS/Source/CMSIS_RTOS_V2/cmsis_os2.c ****       }
1580:Middlewares/Third_Party/FreeRTOS/Source/CMSIS_RTOS_V2/cmsis_os2.c ****     }
1581:Middlewares/Third_Party/FreeRTOS/Source/CMSIS_RTOS_V2/cmsis_os2.c **** 
1582:Middlewares/Third_Party/FreeRTOS/Source/CMSIS_RTOS_V2/cmsis_os2.c ****     #if (configQUEUE_REGISTRY_SIZE > 0)
1583:Middlewares/Third_Party/FreeRTOS/Source/CMSIS_RTOS_V2/cmsis_os2.c ****     if (hQueue != NULL) {
 6232              		.loc 1 1583 0
 6233 005a 002D     		cmp	r5, #0
ARM GAS  /tmp/ccJ2K96T.s 			page 153


 6234 005c 05D0     		beq	.L534
1584:Middlewares/Third_Party/FreeRTOS/Source/CMSIS_RTOS_V2/cmsis_os2.c ****       if (attr != NULL) {
 6235              		.loc 1 1584 0
 6236 005e 002C     		cmp	r4, #0
 6237 0060 22D0     		beq	.L552
1585:Middlewares/Third_Party/FreeRTOS/Source/CMSIS_RTOS_V2/cmsis_os2.c ****         name = attr->name;
 6238              		.loc 1 1585 0
 6239 0062 2168     		ldr	r1, [r4]
 6240              	.LVL650:
 6241              	.L541:
1586:Middlewares/Third_Party/FreeRTOS/Source/CMSIS_RTOS_V2/cmsis_os2.c ****       } else {
1587:Middlewares/Third_Party/FreeRTOS/Source/CMSIS_RTOS_V2/cmsis_os2.c ****         name = NULL;
1588:Middlewares/Third_Party/FreeRTOS/Source/CMSIS_RTOS_V2/cmsis_os2.c ****       }
1589:Middlewares/Third_Party/FreeRTOS/Source/CMSIS_RTOS_V2/cmsis_os2.c ****       vQueueAddToRegistry (hQueue, name);
 6242              		.loc 1 1589 0
 6243 0064 2800     		movs	r0, r5
 6244              	.LVL651:
 6245 0066 FFF7FEFF 		bl	vQueueAddToRegistry
 6246              	.LVL652:
 6247              	.L534:
1590:Middlewares/Third_Party/FreeRTOS/Source/CMSIS_RTOS_V2/cmsis_os2.c ****     }
1591:Middlewares/Third_Party/FreeRTOS/Source/CMSIS_RTOS_V2/cmsis_os2.c ****     #endif
1592:Middlewares/Third_Party/FreeRTOS/Source/CMSIS_RTOS_V2/cmsis_os2.c **** 
1593:Middlewares/Third_Party/FreeRTOS/Source/CMSIS_RTOS_V2/cmsis_os2.c ****   }
1594:Middlewares/Third_Party/FreeRTOS/Source/CMSIS_RTOS_V2/cmsis_os2.c **** 
1595:Middlewares/Third_Party/FreeRTOS/Source/CMSIS_RTOS_V2/cmsis_os2.c ****   return ((osMessageQueueId_t)hQueue);
1596:Middlewares/Third_Party/FreeRTOS/Source/CMSIS_RTOS_V2/cmsis_os2.c **** }
 6248              		.loc 1 1596 0
 6249 006a 2800     		movs	r0, r5
 6250 006c 02B0     		add	sp, sp, #8
 6251              		@ sp needed
 6252              	.LVL653:
 6253 006e 70BD     		pop	{r4, r5, r6, pc}
 6254              	.LVL654:
 6255              	.L553:
1563:Middlewares/Third_Party/FreeRTOS/Source/CMSIS_RTOS_V2/cmsis_os2.c ****             (attr->mq_mem == NULL) && (attr->mq_size == 0U)) {
 6256              		.loc 1 1563 0 discriminator 1
 6257 0070 E368     		ldr	r3, [r4, #12]
 6258 0072 002B     		cmp	r3, #0
 6259 0074 13D1     		bne	.L548
1563:Middlewares/Third_Party/FreeRTOS/Source/CMSIS_RTOS_V2/cmsis_os2.c ****             (attr->mq_mem == NULL) && (attr->mq_size == 0U)) {
 6260              		.loc 1 1563 0 is_stmt 0 discriminator 2
 6261 0076 2369     		ldr	r3, [r4, #16]
 6262 0078 002B     		cmp	r3, #0
 6263 007a 02D0     		beq	.L554
1555:Middlewares/Third_Party/FreeRTOS/Source/CMSIS_RTOS_V2/cmsis_os2.c **** 
 6264              		.loc 1 1555 0 is_stmt 1
 6265 007c 0123     		movs	r3, #1
 6266 007e 5B42     		rsbs	r3, r3, #0
 6267 0080 E5E7     		b	.L537
 6268              	.L554:
1564:Middlewares/Third_Party/FreeRTOS/Source/CMSIS_RTOS_V2/cmsis_os2.c ****           mem = 0;
 6269              		.loc 1 1564 0
 6270 0082 6369     		ldr	r3, [r4, #20]
 6271 0084 002B     		cmp	r3, #0
 6272 0086 0DD0     		beq	.L550
1555:Middlewares/Third_Party/FreeRTOS/Source/CMSIS_RTOS_V2/cmsis_os2.c **** 
ARM GAS  /tmp/ccJ2K96T.s 			page 154


 6273              		.loc 1 1555 0
 6274 0088 0123     		movs	r3, #1
 6275 008a 5B42     		rsbs	r3, r3, #0
 6276 008c DFE7     		b	.L537
 6277              	.L539:
 6278              	.LVL655:
1574:Middlewares/Third_Party/FreeRTOS/Source/CMSIS_RTOS_V2/cmsis_os2.c ****     }
 6279              		.loc 1 1574 0
 6280 008e 0025     		movs	r5, #0
 6281 0090 0095     		str	r5, [sp]
 6282 0092 FFF7FEFF 		bl	xQueueGenericCreateStatic
 6283              	.LVL656:
 6284 0096 0500     		movs	r5, r0
 6285              	.LVL657:
 6286 0098 DFE7     		b	.L540
 6287              	.LVL658:
 6288              	.L546:
1570:Middlewares/Third_Party/FreeRTOS/Source/CMSIS_RTOS_V2/cmsis_os2.c ****     }
 6289              		.loc 1 1570 0
 6290 009a 0023     		movs	r3, #0
 6291 009c D7E7     		b	.L537
 6292              	.LVL659:
 6293              	.L548:
1555:Middlewares/Third_Party/FreeRTOS/Source/CMSIS_RTOS_V2/cmsis_os2.c **** 
 6294              		.loc 1 1555 0
 6295 009e 0123     		movs	r3, #1
 6296 00a0 5B42     		rsbs	r3, r3, #0
 6297 00a2 D4E7     		b	.L537
 6298              	.L550:
1565:Middlewares/Third_Party/FreeRTOS/Source/CMSIS_RTOS_V2/cmsis_os2.c ****         }
 6299              		.loc 1 1565 0
 6300 00a4 0023     		movs	r3, #0
 6301 00a6 D2E7     		b	.L537
 6302              	.LVL660:
 6303              	.L552:
1587:Middlewares/Third_Party/FreeRTOS/Source/CMSIS_RTOS_V2/cmsis_os2.c ****       }
 6304              		.loc 1 1587 0
 6305 00a8 0021     		movs	r1, #0
 6306 00aa DBE7     		b	.L541
 6307              	.LVL661:
 6308              	.L542:
1552:Middlewares/Third_Party/FreeRTOS/Source/CMSIS_RTOS_V2/cmsis_os2.c **** 
 6309              		.loc 1 1552 0
 6310 00ac 0025     		movs	r5, #0
 6311 00ae DCE7     		b	.L534
 6312              	.L543:
 6313 00b0 0025     		movs	r5, #0
 6314 00b2 DAE7     		b	.L534
 6315              	.L544:
 6316 00b4 0025     		movs	r5, #0
 6317 00b6 D8E7     		b	.L534
 6318              	.L545:
 6319 00b8 0025     		movs	r5, #0
 6320 00ba D6E7     		b	.L534
 6321              	.LVL662:
 6322              	.L551:
 6323 00bc 0025     		movs	r5, #0
ARM GAS  /tmp/ccJ2K96T.s 			page 155


1595:Middlewares/Third_Party/FreeRTOS/Source/CMSIS_RTOS_V2/cmsis_os2.c **** }
 6324              		.loc 1 1595 0
 6325 00be D4E7     		b	.L534
 6326              	.L556:
 6327              		.align	2
 6328              	.L555:
 6329 00c0 00000000 		.word	.LANCHOR0
 6330              		.cfi_endproc
 6331              	.LFE80:
 6333              		.section	.text.osMessageQueuePut,"ax",%progbits
 6334              		.align	1
 6335              		.global	osMessageQueuePut
 6336              		.syntax unified
 6337              		.code	16
 6338              		.thumb_func
 6339              		.fpu softvfp
 6341              	osMessageQueuePut:
 6342              	.LFB81:
1597:Middlewares/Third_Party/FreeRTOS/Source/CMSIS_RTOS_V2/cmsis_os2.c **** 
1598:Middlewares/Third_Party/FreeRTOS/Source/CMSIS_RTOS_V2/cmsis_os2.c **** osStatus_t osMessageQueuePut (osMessageQueueId_t mq_id, const void *msg_ptr, uint8_t msg_prio, uint
 6343              		.loc 1 1598 0
 6344              		.cfi_startproc
 6345              		@ args = 0, pretend = 0, frame = 8
 6346              		@ frame_needed = 0, uses_anonymous_args = 0
 6347              	.LVL663:
 6348 0000 10B5     		push	{r4, lr}
 6349              	.LCFI70:
 6350              		.cfi_def_cfa_offset 8
 6351              		.cfi_offset 4, -8
 6352              		.cfi_offset 14, -4
 6353 0002 82B0     		sub	sp, sp, #8
 6354              	.LCFI71:
 6355              		.cfi_def_cfa_offset 16
 6356 0004 1C00     		movs	r4, r3
 6357              	.LVL664:
 6358              	.LBB410:
 6359              	.LBB411:
 209:Drivers/CMSIS/Include/cmsis_gcc.h ****   return(result);
 6360              		.loc 2 209 0
 6361              		.syntax divided
 6362              	@ 209 "Drivers/CMSIS/Include/cmsis_gcc.h" 1
 6363 0006 EFF30583 		MRS r3, ipsr
 6364              	@ 0 "" 2
 6365              	.LVL665:
 6366              		.thumb
 6367              		.syntax unified
 6368              	.LBE411:
 6369              	.LBE410:
1599:Middlewares/Third_Party/FreeRTOS/Source/CMSIS_RTOS_V2/cmsis_os2.c ****   QueueHandle_t hQueue = (QueueHandle_t)mq_id;
1600:Middlewares/Third_Party/FreeRTOS/Source/CMSIS_RTOS_V2/cmsis_os2.c ****   osStatus_t stat;
1601:Middlewares/Third_Party/FreeRTOS/Source/CMSIS_RTOS_V2/cmsis_os2.c ****   BaseType_t yield;
1602:Middlewares/Third_Party/FreeRTOS/Source/CMSIS_RTOS_V2/cmsis_os2.c **** 
1603:Middlewares/Third_Party/FreeRTOS/Source/CMSIS_RTOS_V2/cmsis_os2.c ****   (void)msg_prio; /* Message priority is ignored */
1604:Middlewares/Third_Party/FreeRTOS/Source/CMSIS_RTOS_V2/cmsis_os2.c **** 
1605:Middlewares/Third_Party/FreeRTOS/Source/CMSIS_RTOS_V2/cmsis_os2.c ****   stat = osOK;
1606:Middlewares/Third_Party/FreeRTOS/Source/CMSIS_RTOS_V2/cmsis_os2.c **** 
1607:Middlewares/Third_Party/FreeRTOS/Source/CMSIS_RTOS_V2/cmsis_os2.c ****   if (IS_IRQ()) {
ARM GAS  /tmp/ccJ2K96T.s 			page 156


 6370              		.loc 1 1607 0
 6371 000a 002B     		cmp	r3, #0
 6372 000c 16D1     		bne	.L558
 6373              	.LBB412:
 6374              	.LBB413:
 6375              		.loc 2 386 0
 6376              		.syntax divided
 6377              	@ 386 "Drivers/CMSIS/Include/cmsis_gcc.h" 1
 6378 000e EFF31083 		MRS r3, primask
 6379              	@ 0 "" 2
 6380              		.thumb
 6381              		.syntax unified
 6382              	.LBE413:
 6383              	.LBE412:
 6384              		.loc 1 1607 0
 6385 0012 002B     		cmp	r3, #0
 6386 0014 03D0     		beq	.L559
 6387              		.loc 1 1607 0 is_stmt 0 discriminator 2
 6388 0016 214B     		ldr	r3, .L570
 6389 0018 1B68     		ldr	r3, [r3]
 6390 001a 022B     		cmp	r3, #2
 6391 001c 0ED0     		beq	.L558
 6392              	.L559:
1608:Middlewares/Third_Party/FreeRTOS/Source/CMSIS_RTOS_V2/cmsis_os2.c ****     if ((hQueue == NULL) || (msg_ptr == NULL) || (timeout != 0U)) {
1609:Middlewares/Third_Party/FreeRTOS/Source/CMSIS_RTOS_V2/cmsis_os2.c ****       stat = osErrorParameter;
1610:Middlewares/Third_Party/FreeRTOS/Source/CMSIS_RTOS_V2/cmsis_os2.c ****     }
1611:Middlewares/Third_Party/FreeRTOS/Source/CMSIS_RTOS_V2/cmsis_os2.c ****     else {
1612:Middlewares/Third_Party/FreeRTOS/Source/CMSIS_RTOS_V2/cmsis_os2.c ****       yield = pdFALSE;
1613:Middlewares/Third_Party/FreeRTOS/Source/CMSIS_RTOS_V2/cmsis_os2.c **** 
1614:Middlewares/Third_Party/FreeRTOS/Source/CMSIS_RTOS_V2/cmsis_os2.c ****       if (xQueueSendToBackFromISR (hQueue, msg_ptr, &yield) != pdTRUE) {
1615:Middlewares/Third_Party/FreeRTOS/Source/CMSIS_RTOS_V2/cmsis_os2.c ****         stat = osErrorResource;
1616:Middlewares/Third_Party/FreeRTOS/Source/CMSIS_RTOS_V2/cmsis_os2.c ****       } else {
1617:Middlewares/Third_Party/FreeRTOS/Source/CMSIS_RTOS_V2/cmsis_os2.c ****         portYIELD_FROM_ISR (yield);
1618:Middlewares/Third_Party/FreeRTOS/Source/CMSIS_RTOS_V2/cmsis_os2.c ****       }
1619:Middlewares/Third_Party/FreeRTOS/Source/CMSIS_RTOS_V2/cmsis_os2.c ****     }
1620:Middlewares/Third_Party/FreeRTOS/Source/CMSIS_RTOS_V2/cmsis_os2.c ****   }
1621:Middlewares/Third_Party/FreeRTOS/Source/CMSIS_RTOS_V2/cmsis_os2.c ****   else {
1622:Middlewares/Third_Party/FreeRTOS/Source/CMSIS_RTOS_V2/cmsis_os2.c ****     if ((hQueue == NULL) || (msg_ptr == NULL)) {
 6393              		.loc 1 1622 0 is_stmt 1
 6394 001e 0028     		cmp	r0, #0
 6395 0020 31D0     		beq	.L566
 6396              		.loc 1 1622 0 is_stmt 0 discriminator 1
 6397 0022 0029     		cmp	r1, #0
 6398 0024 32D0     		beq	.L567
1623:Middlewares/Third_Party/FreeRTOS/Source/CMSIS_RTOS_V2/cmsis_os2.c ****       stat = osErrorParameter;
1624:Middlewares/Third_Party/FreeRTOS/Source/CMSIS_RTOS_V2/cmsis_os2.c ****     }
1625:Middlewares/Third_Party/FreeRTOS/Source/CMSIS_RTOS_V2/cmsis_os2.c ****     else {
1626:Middlewares/Third_Party/FreeRTOS/Source/CMSIS_RTOS_V2/cmsis_os2.c ****       if (xQueueSendToBack (hQueue, msg_ptr, (TickType_t)timeout) != pdPASS) {
 6399              		.loc 1 1626 0 is_stmt 1
 6400 0026 0023     		movs	r3, #0
 6401 0028 2200     		movs	r2, r4
 6402              	.LVL666:
 6403 002a FFF7FEFF 		bl	xQueueGenericSend
 6404              	.LVL667:
 6405 002e 0128     		cmp	r0, #1
 6406 0030 2FD0     		beq	.L568
1627:Middlewares/Third_Party/FreeRTOS/Source/CMSIS_RTOS_V2/cmsis_os2.c ****         if (timeout != 0U) {
ARM GAS  /tmp/ccJ2K96T.s 			page 157


 6407              		.loc 1 1627 0
 6408 0032 002C     		cmp	r4, #0
 6409 0034 2FD0     		beq	.L569
1628:Middlewares/Third_Party/FreeRTOS/Source/CMSIS_RTOS_V2/cmsis_os2.c ****           stat = osErrorTimeout;
 6410              		.loc 1 1628 0
 6411 0036 0220     		movs	r0, #2
 6412 0038 4042     		rsbs	r0, r0, #0
 6413 003a 14E0     		b	.L557
 6414              	.LVL668:
 6415              	.L558:
1608:Middlewares/Third_Party/FreeRTOS/Source/CMSIS_RTOS_V2/cmsis_os2.c ****       stat = osErrorParameter;
 6416              		.loc 1 1608 0
 6417 003c 0028     		cmp	r0, #0
 6418 003e 14D0     		beq	.L561
1608:Middlewares/Third_Party/FreeRTOS/Source/CMSIS_RTOS_V2/cmsis_os2.c ****       stat = osErrorParameter;
 6419              		.loc 1 1608 0 is_stmt 0 discriminator 1
 6420 0040 0029     		cmp	r1, #0
 6421 0042 15D0     		beq	.L562
1608:Middlewares/Third_Party/FreeRTOS/Source/CMSIS_RTOS_V2/cmsis_os2.c ****       stat = osErrorParameter;
 6422              		.loc 1 1608 0 discriminator 2
 6423 0044 002C     		cmp	r4, #0
 6424 0046 16D1     		bne	.L563
1612:Middlewares/Third_Party/FreeRTOS/Source/CMSIS_RTOS_V2/cmsis_os2.c **** 
 6425              		.loc 1 1612 0 is_stmt 1
 6426 0048 0023     		movs	r3, #0
 6427 004a 0193     		str	r3, [sp, #4]
1614:Middlewares/Third_Party/FreeRTOS/Source/CMSIS_RTOS_V2/cmsis_os2.c ****         stat = osErrorResource;
 6428              		.loc 1 1614 0
 6429 004c 01AA     		add	r2, sp, #4
 6430              	.LVL669:
 6431 004e FFF7FEFF 		bl	xQueueGenericSendFromISR
 6432              	.LVL670:
 6433 0052 0128     		cmp	r0, #1
 6434 0054 12D1     		bne	.L564
1617:Middlewares/Third_Party/FreeRTOS/Source/CMSIS_RTOS_V2/cmsis_os2.c ****       }
 6435              		.loc 1 1617 0
 6436 0056 019B     		ldr	r3, [sp, #4]
 6437 0058 002B     		cmp	r3, #0
 6438 005a 12D0     		beq	.L565
1617:Middlewares/Third_Party/FreeRTOS/Source/CMSIS_RTOS_V2/cmsis_os2.c ****       }
 6439              		.loc 1 1617 0 is_stmt 0 discriminator 1
 6440 005c 104B     		ldr	r3, .L570+4
 6441 005e 8022     		movs	r2, #128
 6442 0060 5205     		lsls	r2, r2, #21
 6443 0062 1A60     		str	r2, [r3]
1605:Middlewares/Third_Party/FreeRTOS/Source/CMSIS_RTOS_V2/cmsis_os2.c **** 
 6444              		.loc 1 1605 0 is_stmt 1 discriminator 1
 6445 0064 0020     		movs	r0, #0
 6446              	.LVL671:
 6447              	.L557:
1629:Middlewares/Third_Party/FreeRTOS/Source/CMSIS_RTOS_V2/cmsis_os2.c ****         } else {
1630:Middlewares/Third_Party/FreeRTOS/Source/CMSIS_RTOS_V2/cmsis_os2.c ****           stat = osErrorResource;
1631:Middlewares/Third_Party/FreeRTOS/Source/CMSIS_RTOS_V2/cmsis_os2.c ****         }
1632:Middlewares/Third_Party/FreeRTOS/Source/CMSIS_RTOS_V2/cmsis_os2.c ****       }
1633:Middlewares/Third_Party/FreeRTOS/Source/CMSIS_RTOS_V2/cmsis_os2.c ****     }
1634:Middlewares/Third_Party/FreeRTOS/Source/CMSIS_RTOS_V2/cmsis_os2.c ****   }
1635:Middlewares/Third_Party/FreeRTOS/Source/CMSIS_RTOS_V2/cmsis_os2.c **** 
ARM GAS  /tmp/ccJ2K96T.s 			page 158


1636:Middlewares/Third_Party/FreeRTOS/Source/CMSIS_RTOS_V2/cmsis_os2.c ****   return (stat);
1637:Middlewares/Third_Party/FreeRTOS/Source/CMSIS_RTOS_V2/cmsis_os2.c **** }
 6448              		.loc 1 1637 0
 6449 0066 02B0     		add	sp, sp, #8
 6450              		@ sp needed
 6451              	.LVL672:
 6452 0068 10BD     		pop	{r4, pc}
 6453              	.LVL673:
 6454              	.L561:
1609:Middlewares/Third_Party/FreeRTOS/Source/CMSIS_RTOS_V2/cmsis_os2.c ****     }
 6455              		.loc 1 1609 0
 6456 006a 0420     		movs	r0, #4
 6457              	.LVL674:
 6458 006c 4042     		rsbs	r0, r0, #0
 6459 006e FAE7     		b	.L557
 6460              	.LVL675:
 6461              	.L562:
 6462 0070 0420     		movs	r0, #4
 6463              	.LVL676:
 6464 0072 4042     		rsbs	r0, r0, #0
 6465 0074 F7E7     		b	.L557
 6466              	.LVL677:
 6467              	.L563:
 6468 0076 0420     		movs	r0, #4
 6469              	.LVL678:
 6470 0078 4042     		rsbs	r0, r0, #0
 6471 007a F4E7     		b	.L557
 6472              	.LVL679:
 6473              	.L564:
1615:Middlewares/Third_Party/FreeRTOS/Source/CMSIS_RTOS_V2/cmsis_os2.c ****       } else {
 6474              		.loc 1 1615 0
 6475 007c 0320     		movs	r0, #3
 6476 007e 4042     		rsbs	r0, r0, #0
 6477 0080 F1E7     		b	.L557
 6478              	.L565:
1605:Middlewares/Third_Party/FreeRTOS/Source/CMSIS_RTOS_V2/cmsis_os2.c **** 
 6479              		.loc 1 1605 0
 6480 0082 0020     		movs	r0, #0
 6481 0084 EFE7     		b	.L557
 6482              	.LVL680:
 6483              	.L566:
1623:Middlewares/Third_Party/FreeRTOS/Source/CMSIS_RTOS_V2/cmsis_os2.c ****     }
 6484              		.loc 1 1623 0
 6485 0086 0420     		movs	r0, #4
 6486              	.LVL681:
 6487 0088 4042     		rsbs	r0, r0, #0
 6488 008a ECE7     		b	.L557
 6489              	.LVL682:
 6490              	.L567:
 6491 008c 0420     		movs	r0, #4
 6492              	.LVL683:
 6493 008e 4042     		rsbs	r0, r0, #0
 6494 0090 E9E7     		b	.L557
 6495              	.LVL684:
 6496              	.L568:
1605:Middlewares/Third_Party/FreeRTOS/Source/CMSIS_RTOS_V2/cmsis_os2.c **** 
 6497              		.loc 1 1605 0
ARM GAS  /tmp/ccJ2K96T.s 			page 159


 6498 0092 0020     		movs	r0, #0
 6499 0094 E7E7     		b	.L557
 6500              	.L569:
1630:Middlewares/Third_Party/FreeRTOS/Source/CMSIS_RTOS_V2/cmsis_os2.c ****         }
 6501              		.loc 1 1630 0
 6502 0096 0320     		movs	r0, #3
 6503 0098 4042     		rsbs	r0, r0, #0
 6504              	.LVL685:
1636:Middlewares/Third_Party/FreeRTOS/Source/CMSIS_RTOS_V2/cmsis_os2.c **** }
 6505              		.loc 1 1636 0
 6506 009a E4E7     		b	.L557
 6507              	.L571:
 6508              		.align	2
 6509              	.L570:
 6510 009c 00000000 		.word	.LANCHOR0
 6511 00a0 04ED00E0 		.word	-536810236
 6512              		.cfi_endproc
 6513              	.LFE81:
 6515              		.section	.text.osMessageQueueGet,"ax",%progbits
 6516              		.align	1
 6517              		.global	osMessageQueueGet
 6518              		.syntax unified
 6519              		.code	16
 6520              		.thumb_func
 6521              		.fpu softvfp
 6523              	osMessageQueueGet:
 6524              	.LFB82:
1638:Middlewares/Third_Party/FreeRTOS/Source/CMSIS_RTOS_V2/cmsis_os2.c **** 
1639:Middlewares/Third_Party/FreeRTOS/Source/CMSIS_RTOS_V2/cmsis_os2.c **** osStatus_t osMessageQueueGet (osMessageQueueId_t mq_id, void *msg_ptr, uint8_t *msg_prio, uint32_t 
 6525              		.loc 1 1639 0
 6526              		.cfi_startproc
 6527              		@ args = 0, pretend = 0, frame = 8
 6528              		@ frame_needed = 0, uses_anonymous_args = 0
 6529              	.LVL686:
 6530 0000 10B5     		push	{r4, lr}
 6531              	.LCFI72:
 6532              		.cfi_def_cfa_offset 8
 6533              		.cfi_offset 4, -8
 6534              		.cfi_offset 14, -4
 6535 0002 82B0     		sub	sp, sp, #8
 6536              	.LCFI73:
 6537              		.cfi_def_cfa_offset 16
 6538 0004 1C00     		movs	r4, r3
 6539              	.LVL687:
 6540              	.LBB414:
 6541              	.LBB415:
 209:Drivers/CMSIS/Include/cmsis_gcc.h ****   return(result);
 6542              		.loc 2 209 0
 6543              		.syntax divided
 6544              	@ 209 "Drivers/CMSIS/Include/cmsis_gcc.h" 1
 6545 0006 EFF30583 		MRS r3, ipsr
 6546              	@ 0 "" 2
 6547              	.LVL688:
 6548              		.thumb
 6549              		.syntax unified
 6550              	.LBE415:
 6551              	.LBE414:
ARM GAS  /tmp/ccJ2K96T.s 			page 160


1640:Middlewares/Third_Party/FreeRTOS/Source/CMSIS_RTOS_V2/cmsis_os2.c ****   QueueHandle_t hQueue = (QueueHandle_t)mq_id;
1641:Middlewares/Third_Party/FreeRTOS/Source/CMSIS_RTOS_V2/cmsis_os2.c ****   osStatus_t stat;
1642:Middlewares/Third_Party/FreeRTOS/Source/CMSIS_RTOS_V2/cmsis_os2.c ****   BaseType_t yield;
1643:Middlewares/Third_Party/FreeRTOS/Source/CMSIS_RTOS_V2/cmsis_os2.c **** 
1644:Middlewares/Third_Party/FreeRTOS/Source/CMSIS_RTOS_V2/cmsis_os2.c ****   (void)msg_prio; /* Message priority is ignored */
1645:Middlewares/Third_Party/FreeRTOS/Source/CMSIS_RTOS_V2/cmsis_os2.c **** 
1646:Middlewares/Third_Party/FreeRTOS/Source/CMSIS_RTOS_V2/cmsis_os2.c ****   stat = osOK;
1647:Middlewares/Third_Party/FreeRTOS/Source/CMSIS_RTOS_V2/cmsis_os2.c **** 
1648:Middlewares/Third_Party/FreeRTOS/Source/CMSIS_RTOS_V2/cmsis_os2.c ****   if (IS_IRQ()) {
 6552              		.loc 1 1648 0
 6553 000a 002B     		cmp	r3, #0
 6554 000c 15D1     		bne	.L573
 6555              	.LBB416:
 6556              	.LBB417:
 6557              		.loc 2 386 0
 6558              		.syntax divided
 6559              	@ 386 "Drivers/CMSIS/Include/cmsis_gcc.h" 1
 6560 000e EFF31083 		MRS r3, primask
 6561              	@ 0 "" 2
 6562              		.thumb
 6563              		.syntax unified
 6564              	.LBE417:
 6565              	.LBE416:
 6566              		.loc 1 1648 0
 6567 0012 002B     		cmp	r3, #0
 6568 0014 03D0     		beq	.L574
 6569              		.loc 1 1648 0 is_stmt 0 discriminator 2
 6570 0016 214B     		ldr	r3, .L585
 6571 0018 1B68     		ldr	r3, [r3]
 6572 001a 022B     		cmp	r3, #2
 6573 001c 0DD0     		beq	.L573
 6574              	.L574:
1649:Middlewares/Third_Party/FreeRTOS/Source/CMSIS_RTOS_V2/cmsis_os2.c ****     if ((hQueue == NULL) || (msg_ptr == NULL) || (timeout != 0U)) {
1650:Middlewares/Third_Party/FreeRTOS/Source/CMSIS_RTOS_V2/cmsis_os2.c ****       stat = osErrorParameter;
1651:Middlewares/Third_Party/FreeRTOS/Source/CMSIS_RTOS_V2/cmsis_os2.c ****     }
1652:Middlewares/Third_Party/FreeRTOS/Source/CMSIS_RTOS_V2/cmsis_os2.c ****     else {
1653:Middlewares/Third_Party/FreeRTOS/Source/CMSIS_RTOS_V2/cmsis_os2.c ****       yield = pdFALSE;
1654:Middlewares/Third_Party/FreeRTOS/Source/CMSIS_RTOS_V2/cmsis_os2.c **** 
1655:Middlewares/Third_Party/FreeRTOS/Source/CMSIS_RTOS_V2/cmsis_os2.c ****       if (xQueueReceiveFromISR (hQueue, msg_ptr, &yield) != pdPASS) {
1656:Middlewares/Third_Party/FreeRTOS/Source/CMSIS_RTOS_V2/cmsis_os2.c ****         stat = osErrorResource;
1657:Middlewares/Third_Party/FreeRTOS/Source/CMSIS_RTOS_V2/cmsis_os2.c ****       } else {
1658:Middlewares/Third_Party/FreeRTOS/Source/CMSIS_RTOS_V2/cmsis_os2.c ****         portYIELD_FROM_ISR (yield);
1659:Middlewares/Third_Party/FreeRTOS/Source/CMSIS_RTOS_V2/cmsis_os2.c ****       }
1660:Middlewares/Third_Party/FreeRTOS/Source/CMSIS_RTOS_V2/cmsis_os2.c ****     }
1661:Middlewares/Third_Party/FreeRTOS/Source/CMSIS_RTOS_V2/cmsis_os2.c ****   }
1662:Middlewares/Third_Party/FreeRTOS/Source/CMSIS_RTOS_V2/cmsis_os2.c ****   else {
1663:Middlewares/Third_Party/FreeRTOS/Source/CMSIS_RTOS_V2/cmsis_os2.c ****     if ((hQueue == NULL) || (msg_ptr == NULL)) {
 6575              		.loc 1 1663 0 is_stmt 1
 6576 001e 0028     		cmp	r0, #0
 6577 0020 30D0     		beq	.L581
 6578              		.loc 1 1663 0 is_stmt 0 discriminator 1
 6579 0022 0029     		cmp	r1, #0
 6580 0024 31D0     		beq	.L582
1664:Middlewares/Third_Party/FreeRTOS/Source/CMSIS_RTOS_V2/cmsis_os2.c ****       stat = osErrorParameter;
1665:Middlewares/Third_Party/FreeRTOS/Source/CMSIS_RTOS_V2/cmsis_os2.c ****     }
1666:Middlewares/Third_Party/FreeRTOS/Source/CMSIS_RTOS_V2/cmsis_os2.c ****     else {
1667:Middlewares/Third_Party/FreeRTOS/Source/CMSIS_RTOS_V2/cmsis_os2.c ****       if (xQueueReceive (hQueue, msg_ptr, (TickType_t)timeout) != pdPASS) {
ARM GAS  /tmp/ccJ2K96T.s 			page 161


 6581              		.loc 1 1667 0 is_stmt 1
 6582 0026 2200     		movs	r2, r4
 6583              	.LVL689:
 6584 0028 FFF7FEFF 		bl	xQueueReceive
 6585              	.LVL690:
 6586 002c 0128     		cmp	r0, #1
 6587 002e 2FD0     		beq	.L583
1668:Middlewares/Third_Party/FreeRTOS/Source/CMSIS_RTOS_V2/cmsis_os2.c ****         if (timeout != 0U) {
 6588              		.loc 1 1668 0
 6589 0030 002C     		cmp	r4, #0
 6590 0032 2FD0     		beq	.L584
1669:Middlewares/Third_Party/FreeRTOS/Source/CMSIS_RTOS_V2/cmsis_os2.c ****           stat = osErrorTimeout;
 6591              		.loc 1 1669 0
 6592 0034 0220     		movs	r0, #2
 6593 0036 4042     		rsbs	r0, r0, #0
 6594 0038 14E0     		b	.L572
 6595              	.LVL691:
 6596              	.L573:
1649:Middlewares/Third_Party/FreeRTOS/Source/CMSIS_RTOS_V2/cmsis_os2.c ****       stat = osErrorParameter;
 6597              		.loc 1 1649 0
 6598 003a 0028     		cmp	r0, #0
 6599 003c 14D0     		beq	.L576
1649:Middlewares/Third_Party/FreeRTOS/Source/CMSIS_RTOS_V2/cmsis_os2.c ****       stat = osErrorParameter;
 6600              		.loc 1 1649 0 is_stmt 0 discriminator 1
 6601 003e 0029     		cmp	r1, #0
 6602 0040 15D0     		beq	.L577
1649:Middlewares/Third_Party/FreeRTOS/Source/CMSIS_RTOS_V2/cmsis_os2.c ****       stat = osErrorParameter;
 6603              		.loc 1 1649 0 discriminator 2
 6604 0042 002C     		cmp	r4, #0
 6605 0044 16D1     		bne	.L578
1653:Middlewares/Third_Party/FreeRTOS/Source/CMSIS_RTOS_V2/cmsis_os2.c **** 
 6606              		.loc 1 1653 0 is_stmt 1
 6607 0046 0023     		movs	r3, #0
 6608 0048 0193     		str	r3, [sp, #4]
1655:Middlewares/Third_Party/FreeRTOS/Source/CMSIS_RTOS_V2/cmsis_os2.c ****         stat = osErrorResource;
 6609              		.loc 1 1655 0
 6610 004a 01AA     		add	r2, sp, #4
 6611              	.LVL692:
 6612 004c FFF7FEFF 		bl	xQueueReceiveFromISR
 6613              	.LVL693:
 6614 0050 0128     		cmp	r0, #1
 6615 0052 12D1     		bne	.L579
1658:Middlewares/Third_Party/FreeRTOS/Source/CMSIS_RTOS_V2/cmsis_os2.c ****       }
 6616              		.loc 1 1658 0
 6617 0054 019B     		ldr	r3, [sp, #4]
 6618 0056 002B     		cmp	r3, #0
 6619 0058 12D0     		beq	.L580
1658:Middlewares/Third_Party/FreeRTOS/Source/CMSIS_RTOS_V2/cmsis_os2.c ****       }
 6620              		.loc 1 1658 0 is_stmt 0 discriminator 1
 6621 005a 114B     		ldr	r3, .L585+4
 6622 005c 8022     		movs	r2, #128
 6623 005e 5205     		lsls	r2, r2, #21
 6624 0060 1A60     		str	r2, [r3]
1646:Middlewares/Third_Party/FreeRTOS/Source/CMSIS_RTOS_V2/cmsis_os2.c **** 
 6625              		.loc 1 1646 0 is_stmt 1 discriminator 1
 6626 0062 0020     		movs	r0, #0
 6627              	.LVL694:
ARM GAS  /tmp/ccJ2K96T.s 			page 162


 6628              	.L572:
1670:Middlewares/Third_Party/FreeRTOS/Source/CMSIS_RTOS_V2/cmsis_os2.c ****         } else {
1671:Middlewares/Third_Party/FreeRTOS/Source/CMSIS_RTOS_V2/cmsis_os2.c ****           stat = osErrorResource;
1672:Middlewares/Third_Party/FreeRTOS/Source/CMSIS_RTOS_V2/cmsis_os2.c ****         }
1673:Middlewares/Third_Party/FreeRTOS/Source/CMSIS_RTOS_V2/cmsis_os2.c ****       }
1674:Middlewares/Third_Party/FreeRTOS/Source/CMSIS_RTOS_V2/cmsis_os2.c ****     }
1675:Middlewares/Third_Party/FreeRTOS/Source/CMSIS_RTOS_V2/cmsis_os2.c ****   }
1676:Middlewares/Third_Party/FreeRTOS/Source/CMSIS_RTOS_V2/cmsis_os2.c **** 
1677:Middlewares/Third_Party/FreeRTOS/Source/CMSIS_RTOS_V2/cmsis_os2.c ****   return (stat);
1678:Middlewares/Third_Party/FreeRTOS/Source/CMSIS_RTOS_V2/cmsis_os2.c **** }
 6629              		.loc 1 1678 0
 6630 0064 02B0     		add	sp, sp, #8
 6631              		@ sp needed
 6632              	.LVL695:
 6633 0066 10BD     		pop	{r4, pc}
 6634              	.LVL696:
 6635              	.L576:
1650:Middlewares/Third_Party/FreeRTOS/Source/CMSIS_RTOS_V2/cmsis_os2.c ****     }
 6636              		.loc 1 1650 0
 6637 0068 0420     		movs	r0, #4
 6638              	.LVL697:
 6639 006a 4042     		rsbs	r0, r0, #0
 6640 006c FAE7     		b	.L572
 6641              	.LVL698:
 6642              	.L577:
 6643 006e 0420     		movs	r0, #4
 6644              	.LVL699:
 6645 0070 4042     		rsbs	r0, r0, #0
 6646 0072 F7E7     		b	.L572
 6647              	.LVL700:
 6648              	.L578:
 6649 0074 0420     		movs	r0, #4
 6650              	.LVL701:
 6651 0076 4042     		rsbs	r0, r0, #0
 6652 0078 F4E7     		b	.L572
 6653              	.LVL702:
 6654              	.L579:
1656:Middlewares/Third_Party/FreeRTOS/Source/CMSIS_RTOS_V2/cmsis_os2.c ****       } else {
 6655              		.loc 1 1656 0
 6656 007a 0320     		movs	r0, #3
 6657 007c 4042     		rsbs	r0, r0, #0
 6658 007e F1E7     		b	.L572
 6659              	.L580:
1646:Middlewares/Third_Party/FreeRTOS/Source/CMSIS_RTOS_V2/cmsis_os2.c **** 
 6660              		.loc 1 1646 0
 6661 0080 0020     		movs	r0, #0
 6662 0082 EFE7     		b	.L572
 6663              	.LVL703:
 6664              	.L581:
1664:Middlewares/Third_Party/FreeRTOS/Source/CMSIS_RTOS_V2/cmsis_os2.c ****     }
 6665              		.loc 1 1664 0
 6666 0084 0420     		movs	r0, #4
 6667              	.LVL704:
 6668 0086 4042     		rsbs	r0, r0, #0
 6669 0088 ECE7     		b	.L572
 6670              	.LVL705:
 6671              	.L582:
ARM GAS  /tmp/ccJ2K96T.s 			page 163


 6672 008a 0420     		movs	r0, #4
 6673              	.LVL706:
 6674 008c 4042     		rsbs	r0, r0, #0
 6675 008e E9E7     		b	.L572
 6676              	.LVL707:
 6677              	.L583:
1646:Middlewares/Third_Party/FreeRTOS/Source/CMSIS_RTOS_V2/cmsis_os2.c **** 
 6678              		.loc 1 1646 0
 6679 0090 0020     		movs	r0, #0
 6680 0092 E7E7     		b	.L572
 6681              	.L584:
1671:Middlewares/Third_Party/FreeRTOS/Source/CMSIS_RTOS_V2/cmsis_os2.c ****         }
 6682              		.loc 1 1671 0
 6683 0094 0320     		movs	r0, #3
 6684 0096 4042     		rsbs	r0, r0, #0
 6685              	.LVL708:
1677:Middlewares/Third_Party/FreeRTOS/Source/CMSIS_RTOS_V2/cmsis_os2.c **** }
 6686              		.loc 1 1677 0
 6687 0098 E4E7     		b	.L572
 6688              	.L586:
 6689 009a C046     		.align	2
 6690              	.L585:
 6691 009c 00000000 		.word	.LANCHOR0
 6692 00a0 04ED00E0 		.word	-536810236
 6693              		.cfi_endproc
 6694              	.LFE82:
 6696              		.section	.text.osMessageQueueGetCapacity,"ax",%progbits
 6697              		.align	1
 6698              		.global	osMessageQueueGetCapacity
 6699              		.syntax unified
 6700              		.code	16
 6701              		.thumb_func
 6702              		.fpu softvfp
 6704              	osMessageQueueGetCapacity:
 6705              	.LFB83:
1679:Middlewares/Third_Party/FreeRTOS/Source/CMSIS_RTOS_V2/cmsis_os2.c **** 
1680:Middlewares/Third_Party/FreeRTOS/Source/CMSIS_RTOS_V2/cmsis_os2.c **** uint32_t osMessageQueueGetCapacity (osMessageQueueId_t mq_id) {
 6706              		.loc 1 1680 0
 6707              		.cfi_startproc
 6708              		@ args = 0, pretend = 0, frame = 0
 6709              		@ frame_needed = 0, uses_anonymous_args = 0
 6710              		@ link register save eliminated.
 6711              	.LVL709:
1681:Middlewares/Third_Party/FreeRTOS/Source/CMSIS_RTOS_V2/cmsis_os2.c ****   StaticQueue_t *mq = (StaticQueue_t *)mq_id;
1682:Middlewares/Third_Party/FreeRTOS/Source/CMSIS_RTOS_V2/cmsis_os2.c ****   uint32_t capacity;
1683:Middlewares/Third_Party/FreeRTOS/Source/CMSIS_RTOS_V2/cmsis_os2.c **** 
1684:Middlewares/Third_Party/FreeRTOS/Source/CMSIS_RTOS_V2/cmsis_os2.c ****   if (mq == NULL) {
 6712              		.loc 1 1684 0
 6713 0000 0028     		cmp	r0, #0
 6714 0002 01D0     		beq	.L589
1685:Middlewares/Third_Party/FreeRTOS/Source/CMSIS_RTOS_V2/cmsis_os2.c ****     capacity = 0U;
1686:Middlewares/Third_Party/FreeRTOS/Source/CMSIS_RTOS_V2/cmsis_os2.c ****   } else {
1687:Middlewares/Third_Party/FreeRTOS/Source/CMSIS_RTOS_V2/cmsis_os2.c ****     /* capacity = pxQueue->uxLength */
1688:Middlewares/Third_Party/FreeRTOS/Source/CMSIS_RTOS_V2/cmsis_os2.c ****     capacity = mq->uxDummy4[1];
 6715              		.loc 1 1688 0
 6716 0004 C06B     		ldr	r0, [r0, #60]
 6717              	.LVL710:
ARM GAS  /tmp/ccJ2K96T.s 			page 164


 6718              	.L587:
1689:Middlewares/Third_Party/FreeRTOS/Source/CMSIS_RTOS_V2/cmsis_os2.c ****   }
1690:Middlewares/Third_Party/FreeRTOS/Source/CMSIS_RTOS_V2/cmsis_os2.c **** 
1691:Middlewares/Third_Party/FreeRTOS/Source/CMSIS_RTOS_V2/cmsis_os2.c ****   return (capacity);
1692:Middlewares/Third_Party/FreeRTOS/Source/CMSIS_RTOS_V2/cmsis_os2.c **** }
 6719              		.loc 1 1692 0
 6720              		@ sp needed
 6721 0006 7047     		bx	lr
 6722              	.LVL711:
 6723              	.L589:
1685:Middlewares/Third_Party/FreeRTOS/Source/CMSIS_RTOS_V2/cmsis_os2.c ****     capacity = 0U;
 6724              		.loc 1 1685 0
 6725 0008 0020     		movs	r0, #0
 6726              	.LVL712:
1691:Middlewares/Third_Party/FreeRTOS/Source/CMSIS_RTOS_V2/cmsis_os2.c **** }
 6727              		.loc 1 1691 0
 6728 000a FCE7     		b	.L587
 6729              		.cfi_endproc
 6730              	.LFE83:
 6732              		.section	.text.osMessageQueueGetMsgSize,"ax",%progbits
 6733              		.align	1
 6734              		.global	osMessageQueueGetMsgSize
 6735              		.syntax unified
 6736              		.code	16
 6737              		.thumb_func
 6738              		.fpu softvfp
 6740              	osMessageQueueGetMsgSize:
 6741              	.LFB84:
1693:Middlewares/Third_Party/FreeRTOS/Source/CMSIS_RTOS_V2/cmsis_os2.c **** 
1694:Middlewares/Third_Party/FreeRTOS/Source/CMSIS_RTOS_V2/cmsis_os2.c **** uint32_t osMessageQueueGetMsgSize (osMessageQueueId_t mq_id) {
 6742              		.loc 1 1694 0
 6743              		.cfi_startproc
 6744              		@ args = 0, pretend = 0, frame = 0
 6745              		@ frame_needed = 0, uses_anonymous_args = 0
 6746              		@ link register save eliminated.
 6747              	.LVL713:
1695:Middlewares/Third_Party/FreeRTOS/Source/CMSIS_RTOS_V2/cmsis_os2.c ****   StaticQueue_t *mq = (StaticQueue_t *)mq_id;
1696:Middlewares/Third_Party/FreeRTOS/Source/CMSIS_RTOS_V2/cmsis_os2.c ****   uint32_t size;
1697:Middlewares/Third_Party/FreeRTOS/Source/CMSIS_RTOS_V2/cmsis_os2.c **** 
1698:Middlewares/Third_Party/FreeRTOS/Source/CMSIS_RTOS_V2/cmsis_os2.c ****   if (mq == NULL) {
 6748              		.loc 1 1698 0
 6749 0000 0028     		cmp	r0, #0
 6750 0002 01D0     		beq	.L592
1699:Middlewares/Third_Party/FreeRTOS/Source/CMSIS_RTOS_V2/cmsis_os2.c ****     size = 0U;
1700:Middlewares/Third_Party/FreeRTOS/Source/CMSIS_RTOS_V2/cmsis_os2.c ****   } else {
1701:Middlewares/Third_Party/FreeRTOS/Source/CMSIS_RTOS_V2/cmsis_os2.c ****     /* size = pxQueue->uxItemSize */
1702:Middlewares/Third_Party/FreeRTOS/Source/CMSIS_RTOS_V2/cmsis_os2.c ****     size = mq->uxDummy4[2];
 6751              		.loc 1 1702 0
 6752 0004 006C     		ldr	r0, [r0, #64]
 6753              	.LVL714:
 6754              	.L590:
1703:Middlewares/Third_Party/FreeRTOS/Source/CMSIS_RTOS_V2/cmsis_os2.c ****   }
1704:Middlewares/Third_Party/FreeRTOS/Source/CMSIS_RTOS_V2/cmsis_os2.c **** 
1705:Middlewares/Third_Party/FreeRTOS/Source/CMSIS_RTOS_V2/cmsis_os2.c ****   return (size);
1706:Middlewares/Third_Party/FreeRTOS/Source/CMSIS_RTOS_V2/cmsis_os2.c **** }
 6755              		.loc 1 1706 0
 6756              		@ sp needed
ARM GAS  /tmp/ccJ2K96T.s 			page 165


 6757 0006 7047     		bx	lr
 6758              	.LVL715:
 6759              	.L592:
1699:Middlewares/Third_Party/FreeRTOS/Source/CMSIS_RTOS_V2/cmsis_os2.c ****     size = 0U;
 6760              		.loc 1 1699 0
 6761 0008 0020     		movs	r0, #0
 6762              	.LVL716:
1705:Middlewares/Third_Party/FreeRTOS/Source/CMSIS_RTOS_V2/cmsis_os2.c **** }
 6763              		.loc 1 1705 0
 6764 000a FCE7     		b	.L590
 6765              		.cfi_endproc
 6766              	.LFE84:
 6768              		.section	.text.osMessageQueueGetCount,"ax",%progbits
 6769              		.align	1
 6770              		.global	osMessageQueueGetCount
 6771              		.syntax unified
 6772              		.code	16
 6773              		.thumb_func
 6774              		.fpu softvfp
 6776              	osMessageQueueGetCount:
 6777              	.LFB85:
1707:Middlewares/Third_Party/FreeRTOS/Source/CMSIS_RTOS_V2/cmsis_os2.c **** 
1708:Middlewares/Third_Party/FreeRTOS/Source/CMSIS_RTOS_V2/cmsis_os2.c **** uint32_t osMessageQueueGetCount (osMessageQueueId_t mq_id) {
 6778              		.loc 1 1708 0
 6779              		.cfi_startproc
 6780              		@ args = 0, pretend = 0, frame = 0
 6781              		@ frame_needed = 0, uses_anonymous_args = 0
 6782              	.LVL717:
 6783 0000 10B5     		push	{r4, lr}
 6784              	.LCFI74:
 6785              		.cfi_def_cfa_offset 8
 6786              		.cfi_offset 4, -8
 6787              		.cfi_offset 14, -4
 6788              	.LVL718:
1709:Middlewares/Third_Party/FreeRTOS/Source/CMSIS_RTOS_V2/cmsis_os2.c ****   QueueHandle_t hQueue = (QueueHandle_t)mq_id;
1710:Middlewares/Third_Party/FreeRTOS/Source/CMSIS_RTOS_V2/cmsis_os2.c ****   UBaseType_t count;
1711:Middlewares/Third_Party/FreeRTOS/Source/CMSIS_RTOS_V2/cmsis_os2.c **** 
1712:Middlewares/Third_Party/FreeRTOS/Source/CMSIS_RTOS_V2/cmsis_os2.c ****   if (hQueue == NULL) {
 6789              		.loc 1 1712 0
 6790 0002 0028     		cmp	r0, #0
 6791 0004 11D0     		beq	.L597
 6792              	.LBB418:
 6793              	.LBB419:
 209:Drivers/CMSIS/Include/cmsis_gcc.h ****   return(result);
 6794              		.loc 2 209 0
 6795              		.syntax divided
 6796              	@ 209 "Drivers/CMSIS/Include/cmsis_gcc.h" 1
 6797 0006 EFF30583 		MRS r3, ipsr
 6798              	@ 0 "" 2
 6799              		.thumb
 6800              		.syntax unified
 6801              	.LBE419:
 6802              	.LBE418:
1713:Middlewares/Third_Party/FreeRTOS/Source/CMSIS_RTOS_V2/cmsis_os2.c ****     count = 0U;
1714:Middlewares/Third_Party/FreeRTOS/Source/CMSIS_RTOS_V2/cmsis_os2.c ****   }
1715:Middlewares/Third_Party/FreeRTOS/Source/CMSIS_RTOS_V2/cmsis_os2.c ****   else if (IS_IRQ()) {
 6803              		.loc 1 1715 0
ARM GAS  /tmp/ccJ2K96T.s 			page 166


 6804 000a 002B     		cmp	r3, #0
 6805 000c 0AD1     		bne	.L595
 6806              	.LBB420:
 6807              	.LBB421:
 6808              		.loc 2 386 0
 6809              		.syntax divided
 6810              	@ 386 "Drivers/CMSIS/Include/cmsis_gcc.h" 1
 6811 000e EFF31083 		MRS r3, primask
 6812              	@ 0 "" 2
 6813              		.thumb
 6814              		.syntax unified
 6815              	.LBE421:
 6816              	.LBE420:
 6817              		.loc 1 1715 0
 6818 0012 002B     		cmp	r3, #0
 6819 0014 03D0     		beq	.L596
 6820              		.loc 1 1715 0 is_stmt 0 discriminator 2
 6821 0016 064B     		ldr	r3, .L598
 6822 0018 1B68     		ldr	r3, [r3]
 6823 001a 022B     		cmp	r3, #2
 6824 001c 02D0     		beq	.L595
 6825              	.L596:
1716:Middlewares/Third_Party/FreeRTOS/Source/CMSIS_RTOS_V2/cmsis_os2.c ****     count = uxQueueMessagesWaitingFromISR (hQueue);
1717:Middlewares/Third_Party/FreeRTOS/Source/CMSIS_RTOS_V2/cmsis_os2.c ****   }
1718:Middlewares/Third_Party/FreeRTOS/Source/CMSIS_RTOS_V2/cmsis_os2.c ****   else {
1719:Middlewares/Third_Party/FreeRTOS/Source/CMSIS_RTOS_V2/cmsis_os2.c ****     count = uxQueueMessagesWaiting (hQueue);
 6826              		.loc 1 1719 0 is_stmt 1
 6827 001e FFF7FEFF 		bl	uxQueueMessagesWaiting
 6828              	.LVL719:
 6829              	.L593:
1720:Middlewares/Third_Party/FreeRTOS/Source/CMSIS_RTOS_V2/cmsis_os2.c ****   }
1721:Middlewares/Third_Party/FreeRTOS/Source/CMSIS_RTOS_V2/cmsis_os2.c **** 
1722:Middlewares/Third_Party/FreeRTOS/Source/CMSIS_RTOS_V2/cmsis_os2.c ****   return ((uint32_t)count);
1723:Middlewares/Third_Party/FreeRTOS/Source/CMSIS_RTOS_V2/cmsis_os2.c **** }
 6830              		.loc 1 1723 0
 6831              		@ sp needed
 6832 0022 10BD     		pop	{r4, pc}
 6833              	.LVL720:
 6834              	.L595:
1716:Middlewares/Third_Party/FreeRTOS/Source/CMSIS_RTOS_V2/cmsis_os2.c ****     count = uxQueueMessagesWaitingFromISR (hQueue);
 6835              		.loc 1 1716 0
 6836 0024 FFF7FEFF 		bl	uxQueueMessagesWaitingFromISR
 6837              	.LVL721:
 6838 0028 FBE7     		b	.L593
 6839              	.LVL722:
 6840              	.L597:
1713:Middlewares/Third_Party/FreeRTOS/Source/CMSIS_RTOS_V2/cmsis_os2.c ****   }
 6841              		.loc 1 1713 0
 6842 002a 0020     		movs	r0, #0
 6843              	.LVL723:
1722:Middlewares/Third_Party/FreeRTOS/Source/CMSIS_RTOS_V2/cmsis_os2.c **** }
 6844              		.loc 1 1722 0
 6845 002c F9E7     		b	.L593
 6846              	.L599:
 6847 002e C046     		.align	2
 6848              	.L598:
 6849 0030 00000000 		.word	.LANCHOR0
ARM GAS  /tmp/ccJ2K96T.s 			page 167


 6850              		.cfi_endproc
 6851              	.LFE85:
 6853              		.section	.text.osMessageQueueGetSpace,"ax",%progbits
 6854              		.align	1
 6855              		.global	osMessageQueueGetSpace
 6856              		.syntax unified
 6857              		.code	16
 6858              		.thumb_func
 6859              		.fpu softvfp
 6861              	osMessageQueueGetSpace:
 6862              	.LFB86:
1724:Middlewares/Third_Party/FreeRTOS/Source/CMSIS_RTOS_V2/cmsis_os2.c **** 
1725:Middlewares/Third_Party/FreeRTOS/Source/CMSIS_RTOS_V2/cmsis_os2.c **** uint32_t osMessageQueueGetSpace (osMessageQueueId_t mq_id) {
 6863              		.loc 1 1725 0
 6864              		.cfi_startproc
 6865              		@ args = 0, pretend = 0, frame = 0
 6866              		@ frame_needed = 0, uses_anonymous_args = 0
 6867              	.LVL724:
 6868 0000 10B5     		push	{r4, lr}
 6869              	.LCFI75:
 6870              		.cfi_def_cfa_offset 8
 6871              		.cfi_offset 4, -8
 6872              		.cfi_offset 14, -4
 6873 0002 041E     		subs	r4, r0, #0
 6874              	.LVL725:
1726:Middlewares/Third_Party/FreeRTOS/Source/CMSIS_RTOS_V2/cmsis_os2.c ****   StaticQueue_t *mq = (StaticQueue_t *)mq_id;
1727:Middlewares/Third_Party/FreeRTOS/Source/CMSIS_RTOS_V2/cmsis_os2.c ****   uint32_t space;
1728:Middlewares/Third_Party/FreeRTOS/Source/CMSIS_RTOS_V2/cmsis_os2.c ****   uint32_t isrm;
1729:Middlewares/Third_Party/FreeRTOS/Source/CMSIS_RTOS_V2/cmsis_os2.c **** 
1730:Middlewares/Third_Party/FreeRTOS/Source/CMSIS_RTOS_V2/cmsis_os2.c ****   if (mq == NULL) {
 6875              		.loc 1 1730 0
 6876 0004 19D0     		beq	.L604
 6877              	.LBB422:
 6878              	.LBB423:
 209:Drivers/CMSIS/Include/cmsis_gcc.h ****   return(result);
 6879              		.loc 2 209 0
 6880              		.syntax divided
 6881              	@ 209 "Drivers/CMSIS/Include/cmsis_gcc.h" 1
 6882 0006 EFF30583 		MRS r3, ipsr
 6883              	@ 0 "" 2
 6884              		.thumb
 6885              		.syntax unified
 6886              	.LBE423:
 6887              	.LBE422:
1731:Middlewares/Third_Party/FreeRTOS/Source/CMSIS_RTOS_V2/cmsis_os2.c ****     space = 0U;
1732:Middlewares/Third_Party/FreeRTOS/Source/CMSIS_RTOS_V2/cmsis_os2.c ****   }
1733:Middlewares/Third_Party/FreeRTOS/Source/CMSIS_RTOS_V2/cmsis_os2.c ****   else if (IS_IRQ()) {
 6888              		.loc 1 1733 0
 6889 000a 002B     		cmp	r3, #0
 6890 000c 0DD1     		bne	.L602
 6891              	.LBB424:
 6892              	.LBB425:
 6893              		.loc 2 386 0
 6894              		.syntax divided
 6895              	@ 386 "Drivers/CMSIS/Include/cmsis_gcc.h" 1
 6896 000e EFF31083 		MRS r3, primask
 6897              	@ 0 "" 2
ARM GAS  /tmp/ccJ2K96T.s 			page 168


 6898              		.thumb
 6899              		.syntax unified
 6900              	.LBE425:
 6901              	.LBE424:
 6902              		.loc 1 1733 0
 6903 0012 002B     		cmp	r3, #0
 6904 0014 03D0     		beq	.L603
 6905              		.loc 1 1733 0 is_stmt 0 discriminator 2
 6906 0016 0A4B     		ldr	r3, .L605
 6907 0018 1B68     		ldr	r3, [r3]
 6908 001a 022B     		cmp	r3, #2
 6909 001c 05D0     		beq	.L602
 6910              	.L603:
1734:Middlewares/Third_Party/FreeRTOS/Source/CMSIS_RTOS_V2/cmsis_os2.c ****     isrm = taskENTER_CRITICAL_FROM_ISR();
1735:Middlewares/Third_Party/FreeRTOS/Source/CMSIS_RTOS_V2/cmsis_os2.c **** 
1736:Middlewares/Third_Party/FreeRTOS/Source/CMSIS_RTOS_V2/cmsis_os2.c ****     /* space = pxQueue->uxLength - pxQueue->uxMessagesWaiting; */
1737:Middlewares/Third_Party/FreeRTOS/Source/CMSIS_RTOS_V2/cmsis_os2.c ****     space = mq->uxDummy4[1] - mq->uxDummy4[0];
1738:Middlewares/Third_Party/FreeRTOS/Source/CMSIS_RTOS_V2/cmsis_os2.c **** 
1739:Middlewares/Third_Party/FreeRTOS/Source/CMSIS_RTOS_V2/cmsis_os2.c ****     taskEXIT_CRITICAL_FROM_ISR(isrm);
1740:Middlewares/Third_Party/FreeRTOS/Source/CMSIS_RTOS_V2/cmsis_os2.c ****   }
1741:Middlewares/Third_Party/FreeRTOS/Source/CMSIS_RTOS_V2/cmsis_os2.c ****   else {
1742:Middlewares/Third_Party/FreeRTOS/Source/CMSIS_RTOS_V2/cmsis_os2.c ****     space = (uint32_t)uxQueueSpacesAvailable ((QueueHandle_t)mq);
 6911              		.loc 1 1742 0 is_stmt 1
 6912 001e 2000     		movs	r0, r4
 6913              	.LVL726:
 6914 0020 FFF7FEFF 		bl	uxQueueSpacesAvailable
 6915              	.LVL727:
 6916 0024 0400     		movs	r4, r0
 6917              	.LVL728:
 6918              	.L600:
1743:Middlewares/Third_Party/FreeRTOS/Source/CMSIS_RTOS_V2/cmsis_os2.c ****   }
1744:Middlewares/Third_Party/FreeRTOS/Source/CMSIS_RTOS_V2/cmsis_os2.c **** 
1745:Middlewares/Third_Party/FreeRTOS/Source/CMSIS_RTOS_V2/cmsis_os2.c ****   return (space);
1746:Middlewares/Third_Party/FreeRTOS/Source/CMSIS_RTOS_V2/cmsis_os2.c **** }
 6919              		.loc 1 1746 0
 6920 0026 2000     		movs	r0, r4
 6921              		@ sp needed
 6922 0028 10BD     		pop	{r4, pc}
 6923              	.LVL729:
 6924              	.L602:
1734:Middlewares/Third_Party/FreeRTOS/Source/CMSIS_RTOS_V2/cmsis_os2.c ****     isrm = taskENTER_CRITICAL_FROM_ISR();
 6925              		.loc 1 1734 0
 6926 002a FFF7FEFF 		bl	ulSetInterruptMaskFromISR
 6927              	.LVL730:
1737:Middlewares/Third_Party/FreeRTOS/Source/CMSIS_RTOS_V2/cmsis_os2.c **** 
 6928              		.loc 1 1737 0
 6929 002e E36B     		ldr	r3, [r4, #60]
 6930 0030 A46B     		ldr	r4, [r4, #56]
 6931              	.LVL731:
 6932 0032 1C1B     		subs	r4, r3, r4
 6933              	.LVL732:
1739:Middlewares/Third_Party/FreeRTOS/Source/CMSIS_RTOS_V2/cmsis_os2.c ****   }
 6934              		.loc 1 1739 0
 6935 0034 FFF7FEFF 		bl	vClearInterruptMaskFromISR
 6936              	.LVL733:
 6937 0038 F5E7     		b	.L600
 6938              	.LVL734:
ARM GAS  /tmp/ccJ2K96T.s 			page 169


 6939              	.L604:
1731:Middlewares/Third_Party/FreeRTOS/Source/CMSIS_RTOS_V2/cmsis_os2.c ****   }
 6940              		.loc 1 1731 0
 6941 003a 0024     		movs	r4, #0
 6942              	.LVL735:
1745:Middlewares/Third_Party/FreeRTOS/Source/CMSIS_RTOS_V2/cmsis_os2.c **** }
 6943              		.loc 1 1745 0
 6944 003c F3E7     		b	.L600
 6945              	.L606:
 6946 003e C046     		.align	2
 6947              	.L605:
 6948 0040 00000000 		.word	.LANCHOR0
 6949              		.cfi_endproc
 6950              	.LFE86:
 6952              		.section	.text.osMessageQueueReset,"ax",%progbits
 6953              		.align	1
 6954              		.global	osMessageQueueReset
 6955              		.syntax unified
 6956              		.code	16
 6957              		.thumb_func
 6958              		.fpu softvfp
 6960              	osMessageQueueReset:
 6961              	.LFB87:
1747:Middlewares/Third_Party/FreeRTOS/Source/CMSIS_RTOS_V2/cmsis_os2.c **** 
1748:Middlewares/Third_Party/FreeRTOS/Source/CMSIS_RTOS_V2/cmsis_os2.c **** osStatus_t osMessageQueueReset (osMessageQueueId_t mq_id) {
 6962              		.loc 1 1748 0
 6963              		.cfi_startproc
 6964              		@ args = 0, pretend = 0, frame = 0
 6965              		@ frame_needed = 0, uses_anonymous_args = 0
 6966              	.LVL736:
 6967 0000 10B5     		push	{r4, lr}
 6968              	.LCFI76:
 6969              		.cfi_def_cfa_offset 8
 6970              		.cfi_offset 4, -8
 6971              		.cfi_offset 14, -4
 6972              	.LVL737:
 6973              	.LBB426:
 6974              	.LBB427:
 209:Drivers/CMSIS/Include/cmsis_gcc.h ****   return(result);
 6975              		.loc 2 209 0
 6976              		.syntax divided
 6977              	@ 209 "Drivers/CMSIS/Include/cmsis_gcc.h" 1
 6978 0002 EFF30583 		MRS r3, ipsr
 6979              	@ 0 "" 2
 6980              		.thumb
 6981              		.syntax unified
 6982              	.LBE427:
 6983              	.LBE426:
1749:Middlewares/Third_Party/FreeRTOS/Source/CMSIS_RTOS_V2/cmsis_os2.c ****   QueueHandle_t hQueue = (QueueHandle_t)mq_id;
1750:Middlewares/Third_Party/FreeRTOS/Source/CMSIS_RTOS_V2/cmsis_os2.c ****   osStatus_t stat;
1751:Middlewares/Third_Party/FreeRTOS/Source/CMSIS_RTOS_V2/cmsis_os2.c **** 
1752:Middlewares/Third_Party/FreeRTOS/Source/CMSIS_RTOS_V2/cmsis_os2.c ****   if (IS_IRQ()) {
 6984              		.loc 1 1752 0
 6985 0006 002B     		cmp	r3, #0
 6986 0008 0ED1     		bne	.L610
 6987              	.LBB428:
 6988              	.LBB429:
ARM GAS  /tmp/ccJ2K96T.s 			page 170


 6989              		.loc 2 386 0
 6990              		.syntax divided
 6991              	@ 386 "Drivers/CMSIS/Include/cmsis_gcc.h" 1
 6992 000a EFF31083 		MRS r3, primask
 6993              	@ 0 "" 2
 6994              		.thumb
 6995              		.syntax unified
 6996              	.LBE429:
 6997              	.LBE428:
 6998              		.loc 1 1752 0
 6999 000e 002B     		cmp	r3, #0
 7000 0010 03D0     		beq	.L609
 7001              		.loc 1 1752 0 is_stmt 0 discriminator 2
 7002 0012 0A4B     		ldr	r3, .L613
 7003 0014 1B68     		ldr	r3, [r3]
 7004 0016 022B     		cmp	r3, #2
 7005 0018 09D0     		beq	.L611
 7006              	.L609:
1753:Middlewares/Third_Party/FreeRTOS/Source/CMSIS_RTOS_V2/cmsis_os2.c ****     stat = osErrorISR;
1754:Middlewares/Third_Party/FreeRTOS/Source/CMSIS_RTOS_V2/cmsis_os2.c ****   }
1755:Middlewares/Third_Party/FreeRTOS/Source/CMSIS_RTOS_V2/cmsis_os2.c ****   else if (hQueue == NULL) {
 7007              		.loc 1 1755 0 is_stmt 1
 7008 001a 0028     		cmp	r0, #0
 7009 001c 0AD0     		beq	.L612
 7010              	.LVL738:
1756:Middlewares/Third_Party/FreeRTOS/Source/CMSIS_RTOS_V2/cmsis_os2.c ****     stat = osErrorParameter;
1757:Middlewares/Third_Party/FreeRTOS/Source/CMSIS_RTOS_V2/cmsis_os2.c ****   }
1758:Middlewares/Third_Party/FreeRTOS/Source/CMSIS_RTOS_V2/cmsis_os2.c ****   else {
1759:Middlewares/Third_Party/FreeRTOS/Source/CMSIS_RTOS_V2/cmsis_os2.c ****     stat = osOK;
1760:Middlewares/Third_Party/FreeRTOS/Source/CMSIS_RTOS_V2/cmsis_os2.c ****     (void)xQueueReset (hQueue);
 7011              		.loc 1 1760 0
 7012 001e 0021     		movs	r1, #0
 7013 0020 FFF7FEFF 		bl	xQueueGenericReset
 7014              	.LVL739:
1759:Middlewares/Third_Party/FreeRTOS/Source/CMSIS_RTOS_V2/cmsis_os2.c ****     (void)xQueueReset (hQueue);
 7015              		.loc 1 1759 0
 7016 0024 0020     		movs	r0, #0
 7017              	.LVL740:
 7018              	.L607:
1761:Middlewares/Third_Party/FreeRTOS/Source/CMSIS_RTOS_V2/cmsis_os2.c ****   }
1762:Middlewares/Third_Party/FreeRTOS/Source/CMSIS_RTOS_V2/cmsis_os2.c **** 
1763:Middlewares/Third_Party/FreeRTOS/Source/CMSIS_RTOS_V2/cmsis_os2.c ****   return (stat);
1764:Middlewares/Third_Party/FreeRTOS/Source/CMSIS_RTOS_V2/cmsis_os2.c **** }
 7019              		.loc 1 1764 0
 7020              		@ sp needed
 7021 0026 10BD     		pop	{r4, pc}
 7022              	.LVL741:
 7023              	.L610:
1753:Middlewares/Third_Party/FreeRTOS/Source/CMSIS_RTOS_V2/cmsis_os2.c ****   }
 7024              		.loc 1 1753 0
 7025 0028 0620     		movs	r0, #6
 7026              	.LVL742:
 7027 002a 4042     		rsbs	r0, r0, #0
 7028 002c FBE7     		b	.L607
 7029              	.LVL743:
 7030              	.L611:
 7031 002e 0620     		movs	r0, #6
ARM GAS  /tmp/ccJ2K96T.s 			page 171


 7032              	.LVL744:
 7033 0030 4042     		rsbs	r0, r0, #0
 7034 0032 F8E7     		b	.L607
 7035              	.LVL745:
 7036              	.L612:
1756:Middlewares/Third_Party/FreeRTOS/Source/CMSIS_RTOS_V2/cmsis_os2.c ****   }
 7037              		.loc 1 1756 0
 7038 0034 0420     		movs	r0, #4
 7039              	.LVL746:
 7040 0036 4042     		rsbs	r0, r0, #0
 7041              	.LVL747:
1763:Middlewares/Third_Party/FreeRTOS/Source/CMSIS_RTOS_V2/cmsis_os2.c **** }
 7042              		.loc 1 1763 0
 7043 0038 F5E7     		b	.L607
 7044              	.L614:
 7045 003a C046     		.align	2
 7046              	.L613:
 7047 003c 00000000 		.word	.LANCHOR0
 7048              		.cfi_endproc
 7049              	.LFE87:
 7051              		.section	.text.osMessageQueueDelete,"ax",%progbits
 7052              		.align	1
 7053              		.global	osMessageQueueDelete
 7054              		.syntax unified
 7055              		.code	16
 7056              		.thumb_func
 7057              		.fpu softvfp
 7059              	osMessageQueueDelete:
 7060              	.LFB88:
1765:Middlewares/Third_Party/FreeRTOS/Source/CMSIS_RTOS_V2/cmsis_os2.c **** 
1766:Middlewares/Third_Party/FreeRTOS/Source/CMSIS_RTOS_V2/cmsis_os2.c **** osStatus_t osMessageQueueDelete (osMessageQueueId_t mq_id) {
 7061              		.loc 1 1766 0
 7062              		.cfi_startproc
 7063              		@ args = 0, pretend = 0, frame = 0
 7064              		@ frame_needed = 0, uses_anonymous_args = 0
 7065              	.LVL748:
 7066 0000 10B5     		push	{r4, lr}
 7067              	.LCFI77:
 7068              		.cfi_def_cfa_offset 8
 7069              		.cfi_offset 4, -8
 7070              		.cfi_offset 14, -4
 7071 0002 0400     		movs	r4, r0
 7072              	.LVL749:
 7073              	.LBB430:
 7074              	.LBB431:
 209:Drivers/CMSIS/Include/cmsis_gcc.h ****   return(result);
 7075              		.loc 2 209 0
 7076              		.syntax divided
 7077              	@ 209 "Drivers/CMSIS/Include/cmsis_gcc.h" 1
 7078 0004 EFF30583 		MRS r3, ipsr
 7079              	@ 0 "" 2
 7080              		.thumb
 7081              		.syntax unified
 7082              	.LBE431:
 7083              	.LBE430:
1767:Middlewares/Third_Party/FreeRTOS/Source/CMSIS_RTOS_V2/cmsis_os2.c ****   QueueHandle_t hQueue = (QueueHandle_t)mq_id;
1768:Middlewares/Third_Party/FreeRTOS/Source/CMSIS_RTOS_V2/cmsis_os2.c ****   osStatus_t stat;
ARM GAS  /tmp/ccJ2K96T.s 			page 172


1769:Middlewares/Third_Party/FreeRTOS/Source/CMSIS_RTOS_V2/cmsis_os2.c **** 
1770:Middlewares/Third_Party/FreeRTOS/Source/CMSIS_RTOS_V2/cmsis_os2.c **** #ifndef USE_FreeRTOS_HEAP_1
1771:Middlewares/Third_Party/FreeRTOS/Source/CMSIS_RTOS_V2/cmsis_os2.c ****   if (IS_IRQ()) {
 7084              		.loc 1 1771 0
 7085 0008 002B     		cmp	r3, #0
 7086 000a 11D1     		bne	.L618
 7087              	.LBB432:
 7088              	.LBB433:
 7089              		.loc 2 386 0
 7090              		.syntax divided
 7091              	@ 386 "Drivers/CMSIS/Include/cmsis_gcc.h" 1
 7092 000c EFF31083 		MRS r3, primask
 7093              	@ 0 "" 2
 7094              		.thumb
 7095              		.syntax unified
 7096              	.LBE433:
 7097              	.LBE432:
 7098              		.loc 1 1771 0
 7099 0010 002B     		cmp	r3, #0
 7100 0012 03D0     		beq	.L617
 7101              		.loc 1 1771 0 is_stmt 0 discriminator 2
 7102 0014 0B4B     		ldr	r3, .L621
 7103 0016 1B68     		ldr	r3, [r3]
 7104 0018 022B     		cmp	r3, #2
 7105 001a 0CD0     		beq	.L619
 7106              	.L617:
1772:Middlewares/Third_Party/FreeRTOS/Source/CMSIS_RTOS_V2/cmsis_os2.c ****     stat = osErrorISR;
1773:Middlewares/Third_Party/FreeRTOS/Source/CMSIS_RTOS_V2/cmsis_os2.c ****   }
1774:Middlewares/Third_Party/FreeRTOS/Source/CMSIS_RTOS_V2/cmsis_os2.c ****   else if (hQueue == NULL) {
 7107              		.loc 1 1774 0 is_stmt 1
 7108 001c 002C     		cmp	r4, #0
 7109 001e 0DD0     		beq	.L620
1775:Middlewares/Third_Party/FreeRTOS/Source/CMSIS_RTOS_V2/cmsis_os2.c ****     stat = osErrorParameter;
1776:Middlewares/Third_Party/FreeRTOS/Source/CMSIS_RTOS_V2/cmsis_os2.c ****   }
1777:Middlewares/Third_Party/FreeRTOS/Source/CMSIS_RTOS_V2/cmsis_os2.c ****   else {
1778:Middlewares/Third_Party/FreeRTOS/Source/CMSIS_RTOS_V2/cmsis_os2.c ****     #if (configQUEUE_REGISTRY_SIZE > 0)
1779:Middlewares/Third_Party/FreeRTOS/Source/CMSIS_RTOS_V2/cmsis_os2.c ****     vQueueUnregisterQueue (hQueue);
 7110              		.loc 1 1779 0
 7111 0020 2000     		movs	r0, r4
 7112              	.LVL750:
 7113 0022 FFF7FEFF 		bl	vQueueUnregisterQueue
 7114              	.LVL751:
1780:Middlewares/Third_Party/FreeRTOS/Source/CMSIS_RTOS_V2/cmsis_os2.c ****     #endif
1781:Middlewares/Third_Party/FreeRTOS/Source/CMSIS_RTOS_V2/cmsis_os2.c **** 
1782:Middlewares/Third_Party/FreeRTOS/Source/CMSIS_RTOS_V2/cmsis_os2.c ****     stat = osOK;
1783:Middlewares/Third_Party/FreeRTOS/Source/CMSIS_RTOS_V2/cmsis_os2.c ****     vQueueDelete (hQueue);
 7115              		.loc 1 1783 0
 7116 0026 2000     		movs	r0, r4
 7117 0028 FFF7FEFF 		bl	vQueueDelete
 7118              	.LVL752:
1782:Middlewares/Third_Party/FreeRTOS/Source/CMSIS_RTOS_V2/cmsis_os2.c ****     vQueueDelete (hQueue);
 7119              		.loc 1 1782 0
 7120 002c 0020     		movs	r0, #0
 7121              	.LVL753:
 7122              	.L615:
1784:Middlewares/Third_Party/FreeRTOS/Source/CMSIS_RTOS_V2/cmsis_os2.c ****   }
1785:Middlewares/Third_Party/FreeRTOS/Source/CMSIS_RTOS_V2/cmsis_os2.c **** #else
ARM GAS  /tmp/ccJ2K96T.s 			page 173


1786:Middlewares/Third_Party/FreeRTOS/Source/CMSIS_RTOS_V2/cmsis_os2.c ****   stat = osError;
1787:Middlewares/Third_Party/FreeRTOS/Source/CMSIS_RTOS_V2/cmsis_os2.c **** #endif
1788:Middlewares/Third_Party/FreeRTOS/Source/CMSIS_RTOS_V2/cmsis_os2.c **** 
1789:Middlewares/Third_Party/FreeRTOS/Source/CMSIS_RTOS_V2/cmsis_os2.c ****   return (stat);
1790:Middlewares/Third_Party/FreeRTOS/Source/CMSIS_RTOS_V2/cmsis_os2.c **** }
 7123              		.loc 1 1790 0
 7124              		@ sp needed
 7125              	.LVL754:
 7126 002e 10BD     		pop	{r4, pc}
 7127              	.LVL755:
 7128              	.L618:
1772:Middlewares/Third_Party/FreeRTOS/Source/CMSIS_RTOS_V2/cmsis_os2.c ****   }
 7129              		.loc 1 1772 0
 7130 0030 0620     		movs	r0, #6
 7131              	.LVL756:
 7132 0032 4042     		rsbs	r0, r0, #0
 7133 0034 FBE7     		b	.L615
 7134              	.LVL757:
 7135              	.L619:
 7136 0036 0620     		movs	r0, #6
 7137              	.LVL758:
 7138 0038 4042     		rsbs	r0, r0, #0
 7139 003a F8E7     		b	.L615
 7140              	.LVL759:
 7141              	.L620:
1775:Middlewares/Third_Party/FreeRTOS/Source/CMSIS_RTOS_V2/cmsis_os2.c ****   }
 7142              		.loc 1 1775 0
 7143 003c 0420     		movs	r0, #4
 7144              	.LVL760:
 7145 003e 4042     		rsbs	r0, r0, #0
 7146              	.LVL761:
1789:Middlewares/Third_Party/FreeRTOS/Source/CMSIS_RTOS_V2/cmsis_os2.c **** }
 7147              		.loc 1 1789 0
 7148 0040 F5E7     		b	.L615
 7149              	.L622:
 7150 0042 C046     		.align	2
 7151              	.L621:
 7152 0044 00000000 		.word	.LANCHOR0
 7153              		.cfi_endproc
 7154              	.LFE88:
 7156              		.section	.text.vApplicationGetIdleTaskMemory,"ax",%progbits
 7157              		.align	1
 7158              		.global	vApplicationGetIdleTaskMemory
 7159              		.syntax unified
 7160              		.code	16
 7161              		.thumb_func
 7162              		.fpu softvfp
 7164              	vApplicationGetIdleTaskMemory:
 7165              	.LFB89:
1791:Middlewares/Third_Party/FreeRTOS/Source/CMSIS_RTOS_V2/cmsis_os2.c **** 
1792:Middlewares/Third_Party/FreeRTOS/Source/CMSIS_RTOS_V2/cmsis_os2.c **** /*---------------------------------------------------------------------------*/
1793:Middlewares/Third_Party/FreeRTOS/Source/CMSIS_RTOS_V2/cmsis_os2.c **** 
1794:Middlewares/Third_Party/FreeRTOS/Source/CMSIS_RTOS_V2/cmsis_os2.c **** /* Callback function prototypes */
1795:Middlewares/Third_Party/FreeRTOS/Source/CMSIS_RTOS_V2/cmsis_os2.c **** extern void vApplicationIdleHook (void);
1796:Middlewares/Third_Party/FreeRTOS/Source/CMSIS_RTOS_V2/cmsis_os2.c **** extern void vApplicationTickHook (void);
1797:Middlewares/Third_Party/FreeRTOS/Source/CMSIS_RTOS_V2/cmsis_os2.c **** extern void vApplicationMallocFailedHook (void);
1798:Middlewares/Third_Party/FreeRTOS/Source/CMSIS_RTOS_V2/cmsis_os2.c **** extern void vApplicationDaemonTaskStartupHook (void);
ARM GAS  /tmp/ccJ2K96T.s 			page 174


1799:Middlewares/Third_Party/FreeRTOS/Source/CMSIS_RTOS_V2/cmsis_os2.c **** extern void vApplicationStackOverflowHook (TaskHandle_t xTask, signed char *pcTaskName);
1800:Middlewares/Third_Party/FreeRTOS/Source/CMSIS_RTOS_V2/cmsis_os2.c **** 
1801:Middlewares/Third_Party/FreeRTOS/Source/CMSIS_RTOS_V2/cmsis_os2.c **** /**
1802:Middlewares/Third_Party/FreeRTOS/Source/CMSIS_RTOS_V2/cmsis_os2.c ****   Dummy implementation of the callback function vApplicationIdleHook().
1803:Middlewares/Third_Party/FreeRTOS/Source/CMSIS_RTOS_V2/cmsis_os2.c **** */
1804:Middlewares/Third_Party/FreeRTOS/Source/CMSIS_RTOS_V2/cmsis_os2.c **** #if (configUSE_IDLE_HOOK == 1)
1805:Middlewares/Third_Party/FreeRTOS/Source/CMSIS_RTOS_V2/cmsis_os2.c **** __WEAK void vApplicationIdleHook (void){}
1806:Middlewares/Third_Party/FreeRTOS/Source/CMSIS_RTOS_V2/cmsis_os2.c **** #endif
1807:Middlewares/Third_Party/FreeRTOS/Source/CMSIS_RTOS_V2/cmsis_os2.c **** 
1808:Middlewares/Third_Party/FreeRTOS/Source/CMSIS_RTOS_V2/cmsis_os2.c **** /**
1809:Middlewares/Third_Party/FreeRTOS/Source/CMSIS_RTOS_V2/cmsis_os2.c ****   Dummy implementation of the callback function vApplicationTickHook().
1810:Middlewares/Third_Party/FreeRTOS/Source/CMSIS_RTOS_V2/cmsis_os2.c **** */
1811:Middlewares/Third_Party/FreeRTOS/Source/CMSIS_RTOS_V2/cmsis_os2.c **** #if (configUSE_TICK_HOOK == 1)
1812:Middlewares/Third_Party/FreeRTOS/Source/CMSIS_RTOS_V2/cmsis_os2.c ****  __WEAK void vApplicationTickHook (void){}
1813:Middlewares/Third_Party/FreeRTOS/Source/CMSIS_RTOS_V2/cmsis_os2.c **** #endif
1814:Middlewares/Third_Party/FreeRTOS/Source/CMSIS_RTOS_V2/cmsis_os2.c **** 
1815:Middlewares/Third_Party/FreeRTOS/Source/CMSIS_RTOS_V2/cmsis_os2.c **** /**
1816:Middlewares/Third_Party/FreeRTOS/Source/CMSIS_RTOS_V2/cmsis_os2.c ****   Dummy implementation of the callback function vApplicationMallocFailedHook().
1817:Middlewares/Third_Party/FreeRTOS/Source/CMSIS_RTOS_V2/cmsis_os2.c **** */
1818:Middlewares/Third_Party/FreeRTOS/Source/CMSIS_RTOS_V2/cmsis_os2.c **** #if (configUSE_MALLOC_FAILED_HOOK == 1)
1819:Middlewares/Third_Party/FreeRTOS/Source/CMSIS_RTOS_V2/cmsis_os2.c **** __WEAK void vApplicationMallocFailedHook (void){}
1820:Middlewares/Third_Party/FreeRTOS/Source/CMSIS_RTOS_V2/cmsis_os2.c **** #endif
1821:Middlewares/Third_Party/FreeRTOS/Source/CMSIS_RTOS_V2/cmsis_os2.c **** 
1822:Middlewares/Third_Party/FreeRTOS/Source/CMSIS_RTOS_V2/cmsis_os2.c **** /**
1823:Middlewares/Third_Party/FreeRTOS/Source/CMSIS_RTOS_V2/cmsis_os2.c ****   Dummy implementation of the callback function vApplicationDaemonTaskStartupHook().
1824:Middlewares/Third_Party/FreeRTOS/Source/CMSIS_RTOS_V2/cmsis_os2.c **** */
1825:Middlewares/Third_Party/FreeRTOS/Source/CMSIS_RTOS_V2/cmsis_os2.c **** #if (configUSE_DAEMON_TASK_STARTUP_HOOK == 1)
1826:Middlewares/Third_Party/FreeRTOS/Source/CMSIS_RTOS_V2/cmsis_os2.c **** __WEAK void vApplicationDaemonTaskStartupHook (void){}
1827:Middlewares/Third_Party/FreeRTOS/Source/CMSIS_RTOS_V2/cmsis_os2.c **** #endif
1828:Middlewares/Third_Party/FreeRTOS/Source/CMSIS_RTOS_V2/cmsis_os2.c **** 
1829:Middlewares/Third_Party/FreeRTOS/Source/CMSIS_RTOS_V2/cmsis_os2.c **** /**
1830:Middlewares/Third_Party/FreeRTOS/Source/CMSIS_RTOS_V2/cmsis_os2.c ****   Dummy implementation of the callback function vApplicationStackOverflowHook().
1831:Middlewares/Third_Party/FreeRTOS/Source/CMSIS_RTOS_V2/cmsis_os2.c **** */
1832:Middlewares/Third_Party/FreeRTOS/Source/CMSIS_RTOS_V2/cmsis_os2.c **** #if (configCHECK_FOR_STACK_OVERFLOW > 0)
1833:Middlewares/Third_Party/FreeRTOS/Source/CMSIS_RTOS_V2/cmsis_os2.c **** __WEAK void vApplicationStackOverflowHook (TaskHandle_t xTask, signed char *pcTaskName) {
1834:Middlewares/Third_Party/FreeRTOS/Source/CMSIS_RTOS_V2/cmsis_os2.c ****   (void)xTask;
1835:Middlewares/Third_Party/FreeRTOS/Source/CMSIS_RTOS_V2/cmsis_os2.c ****   (void)pcTaskName;
1836:Middlewares/Third_Party/FreeRTOS/Source/CMSIS_RTOS_V2/cmsis_os2.c **** }
1837:Middlewares/Third_Party/FreeRTOS/Source/CMSIS_RTOS_V2/cmsis_os2.c **** #endif
1838:Middlewares/Third_Party/FreeRTOS/Source/CMSIS_RTOS_V2/cmsis_os2.c **** 
1839:Middlewares/Third_Party/FreeRTOS/Source/CMSIS_RTOS_V2/cmsis_os2.c **** /*---------------------------------------------------------------------------*/
1840:Middlewares/Third_Party/FreeRTOS/Source/CMSIS_RTOS_V2/cmsis_os2.c **** 
1841:Middlewares/Third_Party/FreeRTOS/Source/CMSIS_RTOS_V2/cmsis_os2.c **** /* External Idle and Timer task static memory allocation functions */
1842:Middlewares/Third_Party/FreeRTOS/Source/CMSIS_RTOS_V2/cmsis_os2.c **** extern void vApplicationGetIdleTaskMemory  (StaticTask_t **ppxIdleTaskTCBBuffer,  StackType_t **ppx
1843:Middlewares/Third_Party/FreeRTOS/Source/CMSIS_RTOS_V2/cmsis_os2.c **** extern void vApplicationGetTimerTaskMemory (StaticTask_t **ppxTimerTaskTCBBuffer, StackType_t **ppx
1844:Middlewares/Third_Party/FreeRTOS/Source/CMSIS_RTOS_V2/cmsis_os2.c **** 
1845:Middlewares/Third_Party/FreeRTOS/Source/CMSIS_RTOS_V2/cmsis_os2.c **** /* Idle task control block and stack */
1846:Middlewares/Third_Party/FreeRTOS/Source/CMSIS_RTOS_V2/cmsis_os2.c **** static StaticTask_t Idle_TCB;
1847:Middlewares/Third_Party/FreeRTOS/Source/CMSIS_RTOS_V2/cmsis_os2.c **** static StackType_t  Idle_Stack[configMINIMAL_STACK_SIZE];
1848:Middlewares/Third_Party/FreeRTOS/Source/CMSIS_RTOS_V2/cmsis_os2.c **** 
1849:Middlewares/Third_Party/FreeRTOS/Source/CMSIS_RTOS_V2/cmsis_os2.c **** /* Timer task control block and stack */
1850:Middlewares/Third_Party/FreeRTOS/Source/CMSIS_RTOS_V2/cmsis_os2.c **** static StaticTask_t Timer_TCB;
1851:Middlewares/Third_Party/FreeRTOS/Source/CMSIS_RTOS_V2/cmsis_os2.c **** static StackType_t  Timer_Stack[configTIMER_TASK_STACK_DEPTH];
1852:Middlewares/Third_Party/FreeRTOS/Source/CMSIS_RTOS_V2/cmsis_os2.c **** 
1853:Middlewares/Third_Party/FreeRTOS/Source/CMSIS_RTOS_V2/cmsis_os2.c **** /*
1854:Middlewares/Third_Party/FreeRTOS/Source/CMSIS_RTOS_V2/cmsis_os2.c ****   vApplicationGetIdleTaskMemory gets called when configSUPPORT_STATIC_ALLOCATION
1855:Middlewares/Third_Party/FreeRTOS/Source/CMSIS_RTOS_V2/cmsis_os2.c ****   equals to 1 and is required for static memory allocation support.
ARM GAS  /tmp/ccJ2K96T.s 			page 175


1856:Middlewares/Third_Party/FreeRTOS/Source/CMSIS_RTOS_V2/cmsis_os2.c **** */
1857:Middlewares/Third_Party/FreeRTOS/Source/CMSIS_RTOS_V2/cmsis_os2.c **** void vApplicationGetIdleTaskMemory (StaticTask_t **ppxIdleTaskTCBBuffer, StackType_t **ppxIdleTaskS
 7166              		.loc 1 1857 0
 7167              		.cfi_startproc
 7168              		@ args = 0, pretend = 0, frame = 0
 7169              		@ frame_needed = 0, uses_anonymous_args = 0
 7170              		@ link register save eliminated.
 7171              	.LVL762:
1858:Middlewares/Third_Party/FreeRTOS/Source/CMSIS_RTOS_V2/cmsis_os2.c ****   *ppxIdleTaskTCBBuffer   = &Idle_TCB;
 7172              		.loc 1 1858 0
 7173 0000 034B     		ldr	r3, .L624
 7174 0002 0360     		str	r3, [r0]
1859:Middlewares/Third_Party/FreeRTOS/Source/CMSIS_RTOS_V2/cmsis_os2.c ****   *ppxIdleTaskStackBuffer = &Idle_Stack[0];
 7175              		.loc 1 1859 0
 7176 0004 034B     		ldr	r3, .L624+4
 7177 0006 0B60     		str	r3, [r1]
1860:Middlewares/Third_Party/FreeRTOS/Source/CMSIS_RTOS_V2/cmsis_os2.c ****   *pulIdleTaskStackSize   = (uint32_t)configMINIMAL_STACK_SIZE;
 7178              		.loc 1 1860 0
 7179 0008 8023     		movs	r3, #128
 7180 000a 1360     		str	r3, [r2]
1861:Middlewares/Third_Party/FreeRTOS/Source/CMSIS_RTOS_V2/cmsis_os2.c **** }
 7181              		.loc 1 1861 0
 7182              		@ sp needed
 7183 000c 7047     		bx	lr
 7184              	.L625:
 7185 000e C046     		.align	2
 7186              	.L624:
 7187 0010 00000000 		.word	.LANCHOR1
 7188 0014 00000000 		.word	Idle_Stack
 7189              		.cfi_endproc
 7190              	.LFE89:
 7192              		.section	.text.vApplicationGetTimerTaskMemory,"ax",%progbits
 7193              		.align	1
 7194              		.global	vApplicationGetTimerTaskMemory
 7195              		.syntax unified
 7196              		.code	16
 7197              		.thumb_func
 7198              		.fpu softvfp
 7200              	vApplicationGetTimerTaskMemory:
 7201              	.LFB90:
1862:Middlewares/Third_Party/FreeRTOS/Source/CMSIS_RTOS_V2/cmsis_os2.c **** 
1863:Middlewares/Third_Party/FreeRTOS/Source/CMSIS_RTOS_V2/cmsis_os2.c **** /*
1864:Middlewares/Third_Party/FreeRTOS/Source/CMSIS_RTOS_V2/cmsis_os2.c ****   vApplicationGetTimerTaskMemory gets called when configSUPPORT_STATIC_ALLOCATION
1865:Middlewares/Third_Party/FreeRTOS/Source/CMSIS_RTOS_V2/cmsis_os2.c ****   equals to 1 and is required for static memory allocation support.
1866:Middlewares/Third_Party/FreeRTOS/Source/CMSIS_RTOS_V2/cmsis_os2.c **** */
1867:Middlewares/Third_Party/FreeRTOS/Source/CMSIS_RTOS_V2/cmsis_os2.c **** void vApplicationGetTimerTaskMemory (StaticTask_t **ppxTimerTaskTCBBuffer, StackType_t **ppxTimerTa
 7202              		.loc 1 1867 0
 7203              		.cfi_startproc
 7204              		@ args = 0, pretend = 0, frame = 0
 7205              		@ frame_needed = 0, uses_anonymous_args = 0
 7206              		@ link register save eliminated.
 7207              	.LVL763:
1868:Middlewares/Third_Party/FreeRTOS/Source/CMSIS_RTOS_V2/cmsis_os2.c ****   *ppxTimerTaskTCBBuffer   = &Timer_TCB;
 7208              		.loc 1 1868 0
 7209 0000 034B     		ldr	r3, .L627
 7210 0002 0360     		str	r3, [r0]
1869:Middlewares/Third_Party/FreeRTOS/Source/CMSIS_RTOS_V2/cmsis_os2.c ****   *ppxTimerTaskStackBuffer = &Timer_Stack[0];
ARM GAS  /tmp/ccJ2K96T.s 			page 176


 7211              		.loc 1 1869 0
 7212 0004 034B     		ldr	r3, .L627+4
 7213 0006 0B60     		str	r3, [r1]
1870:Middlewares/Third_Party/FreeRTOS/Source/CMSIS_RTOS_V2/cmsis_os2.c ****   *pulTimerTaskStackSize   = (uint32_t)configTIMER_TASK_STACK_DEPTH;
 7214              		.loc 1 1870 0
 7215 0008 8023     		movs	r3, #128
 7216 000a 5B00     		lsls	r3, r3, #1
 7217 000c 1360     		str	r3, [r2]
1871:Middlewares/Third_Party/FreeRTOS/Source/CMSIS_RTOS_V2/cmsis_os2.c **** }
 7218              		.loc 1 1871 0
 7219              		@ sp needed
 7220 000e 7047     		bx	lr
 7221              	.L628:
 7222              		.align	2
 7223              	.L627:
 7224 0010 00000000 		.word	.LANCHOR2
 7225 0014 00000000 		.word	Timer_Stack
 7226              		.cfi_endproc
 7227              	.LFE90:
 7229              		.section	.bss.Idle_Stack,"aw",%nobits
 7230              		.align	2
 7233              	Idle_Stack:
 7234 0000 00000000 		.space	512
 7234      00000000 
 7234      00000000 
 7234      00000000 
 7234      00000000 
 7235              		.section	.bss.Idle_TCB,"aw",%nobits
 7236              		.align	2
 7237              		.set	.LANCHOR1,. + 0
 7240              	Idle_TCB:
 7241 0000 00000000 		.space	92
 7241      00000000 
 7241      00000000 
 7241      00000000 
 7241      00000000 
 7242              		.section	.bss.KernelState,"aw",%nobits
 7243              		.align	2
 7244              		.set	.LANCHOR0,. + 0
 7247              	KernelState:
 7248 0000 00000000 		.space	4
 7249              		.section	.bss.Timer_Stack,"aw",%nobits
 7250              		.align	2
 7253              	Timer_Stack:
 7254 0000 00000000 		.space	1024
 7254      00000000 
 7254      00000000 
 7254      00000000 
 7254      00000000 
 7255              		.section	.bss.Timer_TCB,"aw",%nobits
 7256              		.align	2
 7257              		.set	.LANCHOR2,. + 0
 7260              	Timer_TCB:
 7261 0000 00000000 		.space	92
 7261      00000000 
 7261      00000000 
 7261      00000000 
ARM GAS  /tmp/ccJ2K96T.s 			page 177


 7261      00000000 
 7262              		.section	.rodata.osKernelGetInfo.str1.4,"aMS",%progbits,1
 7263              		.align	2
 7264              	.LC1:
 7265 0000 46726565 		.ascii	"FreeRTOS V10.0.1\000"
 7265      52544F53 
 7265      20563130 
 7265      2E302E31 
 7265      00
 7266              		.text
 7267              	.Letext0:
 7268              		.file 3 "/opt/gcc-arm-none-eabi-7-2018-q2-update/arm-none-eabi/include/machine/_default_types.h"
 7269              		.file 4 "/opt/gcc-arm-none-eabi-7-2018-q2-update/arm-none-eabi/include/sys/lock.h"
 7270              		.file 5 "/opt/gcc-arm-none-eabi-7-2018-q2-update/arm-none-eabi/include/sys/_types.h"
 7271              		.file 6 "/opt/gcc-arm-none-eabi-7-2018-q2-update/lib/gcc/arm-none-eabi/7.3.1/include/stddef.h"
 7272              		.file 7 "/opt/gcc-arm-none-eabi-7-2018-q2-update/arm-none-eabi/include/sys/reent.h"
 7273              		.file 8 "/opt/gcc-arm-none-eabi-7-2018-q2-update/arm-none-eabi/include/sys/_stdint.h"
 7274              		.file 9 "Middlewares/Third_Party/FreeRTOS/Source/CMSIS_RTOS_V2/cmsis_os2.h"
 7275              		.file 10 "Inc/FreeRTOSConfig.h"
 7276              		.file 11 "Middlewares/Third_Party/FreeRTOS/Source/include/projdefs.h"
 7277              		.file 12 "Middlewares/Third_Party/FreeRTOS/Source/portable/GCC/ARM_CM0/portmacro.h"
 7278              		.file 13 "Middlewares/Third_Party/FreeRTOS/Source/include/FreeRTOS.h"
 7279              		.file 14 "Middlewares/Third_Party/FreeRTOS/Source/include/task.h"
 7280              		.file 15 "Middlewares/Third_Party/FreeRTOS/Source/include/timers.h"
 7281              		.file 16 "Middlewares/Third_Party/FreeRTOS/Source/include/event_groups.h"
 7282              		.file 17 "Middlewares/Third_Party/FreeRTOS/Source/include/queue.h"
 7283              		.file 18 "Middlewares/Third_Party/FreeRTOS/Source/include/semphr.h"
 7284              		.file 19 "Middlewares/Third_Party/FreeRTOS/Source/include/portable.h"
 7285              		.file 20 "<built-in>"
ARM GAS  /tmp/ccJ2K96T.s 			page 178


DEFINED SYMBOLS
                            *ABS*:0000000000000000 cmsis_os2.c
     /tmp/ccJ2K96T.s:16     .text.TimerCallback:0000000000000000 $t
     /tmp/ccJ2K96T.s:22     .text.TimerCallback:0000000000000000 TimerCallback
     /tmp/ccJ2K96T.s:55     .text.osKernelInitialize:0000000000000000 $t
     /tmp/ccJ2K96T.s:62     .text.osKernelInitialize:0000000000000000 osKernelInitialize
     /tmp/ccJ2K96T.s:140    .text.osKernelInitialize:000000000000003c $d
     /tmp/ccJ2K96T.s:145    .text.osKernelGetInfo:0000000000000000 $t
     /tmp/ccJ2K96T.s:152    .text.osKernelGetInfo:0000000000000000 osKernelGetInfo
     /tmp/ccJ2K96T.s:202    .text.osKernelGetInfo:0000000000000028 $d
     /tmp/ccJ2K96T.s:208    .text.osKernelGetState:0000000000000000 $t
     /tmp/ccJ2K96T.s:215    .text.osKernelGetState:0000000000000000 osKernelGetState
     /tmp/ccJ2K96T.s:254    .text.osKernelGetState:0000000000000020 $d
     /tmp/ccJ2K96T.s:259    .text.osKernelStart:0000000000000000 $t
     /tmp/ccJ2K96T.s:266    .text.osKernelStart:0000000000000000 osKernelStart
     /tmp/ccJ2K96T.s:349    .text.osKernelStart:0000000000000044 $d
     /tmp/ccJ2K96T.s:354    .text.osKernelLock:0000000000000000 $t
     /tmp/ccJ2K96T.s:361    .text.osKernelLock:0000000000000000 osKernelLock
     /tmp/ccJ2K96T.s:448    .text.osKernelLock:0000000000000044 $d
     /tmp/ccJ2K96T.s:453    .text.osKernelUnlock:0000000000000000 $t
     /tmp/ccJ2K96T.s:460    .text.osKernelUnlock:0000000000000000 osKernelUnlock
     /tmp/ccJ2K96T.s:563    .text.osKernelUnlock:000000000000005c $d
     /tmp/ccJ2K96T.s:568    .text.osKernelRestoreLock:0000000000000000 $t
     /tmp/ccJ2K96T.s:575    .text.osKernelRestoreLock:0000000000000000 osKernelRestoreLock
     /tmp/ccJ2K96T.s:693    .text.osKernelRestoreLock:0000000000000068 $d
     /tmp/ccJ2K96T.s:698    .text.osKernelGetTickCount:0000000000000000 $t
     /tmp/ccJ2K96T.s:705    .text.osKernelGetTickCount:0000000000000000 osKernelGetTickCount
     /tmp/ccJ2K96T.s:766    .text.osKernelGetTickCount:0000000000000028 $d
     /tmp/ccJ2K96T.s:771    .text.osKernelGetTickFreq:0000000000000000 $t
     /tmp/ccJ2K96T.s:778    .text.osKernelGetTickFreq:0000000000000000 osKernelGetTickFreq
     /tmp/ccJ2K96T.s:796    .text.osKernelGetSysTimerCount:0000000000000000 $t
     /tmp/ccJ2K96T.s:803    .text.osKernelGetSysTimerCount:0000000000000000 osKernelGetSysTimerCount
     /tmp/ccJ2K96T.s:850    .text.osKernelGetSysTimerCount:000000000000001c $d
     /tmp/ccJ2K96T.s:855    .text.osKernelGetSysTimerFreq:0000000000000000 $t
     /tmp/ccJ2K96T.s:862    .text.osKernelGetSysTimerFreq:0000000000000000 osKernelGetSysTimerFreq
     /tmp/ccJ2K96T.s:878    .text.osKernelGetSysTimerFreq:0000000000000008 $d
     /tmp/ccJ2K96T.s:883    .text.osThreadNew:0000000000000000 $t
     /tmp/ccJ2K96T.s:890    .text.osThreadNew:0000000000000000 osThreadNew
     /tmp/ccJ2K96T.s:1137   .text.osThreadNew:00000000000000f4 $d
     /tmp/ccJ2K96T.s:1142   .text.osThreadGetName:0000000000000000 $t
     /tmp/ccJ2K96T.s:1149   .text.osThreadGetName:0000000000000000 osThreadGetName
     /tmp/ccJ2K96T.s:1226   .text.osThreadGetName:0000000000000030 $d
     /tmp/ccJ2K96T.s:1231   .text.osThreadGetId:0000000000000000 $t
     /tmp/ccJ2K96T.s:1238   .text.osThreadGetId:0000000000000000 osThreadGetId
     /tmp/ccJ2K96T.s:1302   .text.osThreadGetId:0000000000000028 $d
     /tmp/ccJ2K96T.s:1307   .text.osThreadGetState:0000000000000000 $t
     /tmp/ccJ2K96T.s:1314   .text.osThreadGetState:0000000000000000 osThreadGetState
     /tmp/ccJ2K96T.s:1374   .rodata.osThreadGetState:0000000000000000 $d
     /tmp/ccJ2K96T.s:1432   .text.osThreadGetState:0000000000000058 $d
     /tmp/ccJ2K96T.s:1438   .text.osThreadGetStackSpace:0000000000000000 $t
     /tmp/ccJ2K96T.s:1445   .text.osThreadGetStackSpace:0000000000000000 osThreadGetStackSpace
     /tmp/ccJ2K96T.s:1514   .text.osThreadGetStackSpace:000000000000002c $d
     /tmp/ccJ2K96T.s:1519   .text.osThreadGetStackSize:0000000000000000 $t
     /tmp/ccJ2K96T.s:1526   .text.osThreadGetStackSize:0000000000000000 osThreadGetStackSize
     /tmp/ccJ2K96T.s:1543   .text.osThreadSetPriority:0000000000000000 $t
     /tmp/ccJ2K96T.s:1550   .text.osThreadSetPriority:0000000000000000 osThreadSetPriority
     /tmp/ccJ2K96T.s:1654   .text.osThreadSetPriority:000000000000004c $d
ARM GAS  /tmp/ccJ2K96T.s 			page 179


     /tmp/ccJ2K96T.s:1659   .text.osThreadGetPriority:0000000000000000 $t
     /tmp/ccJ2K96T.s:1666   .text.osThreadGetPriority:0000000000000000 osThreadGetPriority
     /tmp/ccJ2K96T.s:1747   .text.osThreadGetPriority:0000000000000038 $d
     /tmp/ccJ2K96T.s:1752   .text.osThreadYield:0000000000000000 $t
     /tmp/ccJ2K96T.s:1759   .text.osThreadYield:0000000000000000 osThreadYield
     /tmp/ccJ2K96T.s:1829   .text.osThreadYield:0000000000000030 $d
     /tmp/ccJ2K96T.s:1834   .text.osThreadSuspend:0000000000000000 $t
     /tmp/ccJ2K96T.s:1841   .text.osThreadSuspend:0000000000000000 osThreadSuspend
     /tmp/ccJ2K96T.s:1927   .text.osThreadSuspend:0000000000000038 $d
     /tmp/ccJ2K96T.s:1932   .text.osThreadResume:0000000000000000 $t
     /tmp/ccJ2K96T.s:1939   .text.osThreadResume:0000000000000000 osThreadResume
     /tmp/ccJ2K96T.s:2025   .text.osThreadResume:0000000000000038 $d
     /tmp/ccJ2K96T.s:2030   .text.osThreadExit:0000000000000000 $t
     /tmp/ccJ2K96T.s:2037   .text.osThreadExit:0000000000000000 osThreadExit
     /tmp/ccJ2K96T.s:2059   .text.osThreadTerminate:0000000000000000 $t
     /tmp/ccJ2K96T.s:2066   .text.osThreadTerminate:0000000000000000 osThreadTerminate
     /tmp/ccJ2K96T.s:2171   .text.osThreadTerminate:000000000000004c $d
     /tmp/ccJ2K96T.s:2176   .text.osThreadGetCount:0000000000000000 $t
     /tmp/ccJ2K96T.s:2183   .text.osThreadGetCount:0000000000000000 osThreadGetCount
     /tmp/ccJ2K96T.s:2244   .text.osThreadGetCount:0000000000000024 $d
     /tmp/ccJ2K96T.s:2249   .text.osThreadEnumerate:0000000000000000 $t
     /tmp/ccJ2K96T.s:2256   .text.osThreadEnumerate:0000000000000000 osThreadEnumerate
     /tmp/ccJ2K96T.s:2402   .text.osThreadEnumerate:0000000000000080 $d
     /tmp/ccJ2K96T.s:2407   .text.osThreadFlagsSet:0000000000000000 $t
     /tmp/ccJ2K96T.s:2414   .text.osThreadFlagsSet:0000000000000000 osThreadFlagsSet
     /tmp/ccJ2K96T.s:2539   .text.osThreadFlagsSet:0000000000000080 $d
     /tmp/ccJ2K96T.s:2545   .text.osThreadFlagsClear:0000000000000000 $t
     /tmp/ccJ2K96T.s:2552   .text.osThreadFlagsClear:0000000000000000 osThreadFlagsClear
     /tmp/ccJ2K96T.s:2674   .text.osThreadFlagsClear:0000000000000070 $d
     /tmp/ccJ2K96T.s:2679   .text.osThreadFlagsGet:0000000000000000 $t
     /tmp/ccJ2K96T.s:2686   .text.osThreadFlagsGet:0000000000000000 osThreadFlagsGet
     /tmp/ccJ2K96T.s:2763   .text.osThreadFlagsGet:0000000000000044 $d
     /tmp/ccJ2K96T.s:2768   .text.osThreadFlagsWait:0000000000000000 $t
     /tmp/ccJ2K96T.s:2775   .text.osThreadFlagsWait:0000000000000000 osThreadFlagsWait
     /tmp/ccJ2K96T.s:2998   .text.osThreadFlagsWait:00000000000000d0 $d
     /tmp/ccJ2K96T.s:3003   .text.osDelay:0000000000000000 $t
     /tmp/ccJ2K96T.s:3010   .text.osDelay:0000000000000000 osDelay
     /tmp/ccJ2K96T.s:3091   .text.osDelay:0000000000000038 $d
     /tmp/ccJ2K96T.s:3096   .text.osDelayUntil:0000000000000000 $t
     /tmp/ccJ2K96T.s:3103   .text.osDelayUntil:0000000000000000 osDelayUntil
     /tmp/ccJ2K96T.s:3190   .text.osDelayUntil:0000000000000040 $d
     /tmp/ccJ2K96T.s:3195   .text.osTimerNew:0000000000000000 $t
     /tmp/ccJ2K96T.s:3202   .text.osTimerNew:0000000000000000 osTimerNew
     /tmp/ccJ2K96T.s:3392   .text.osTimerNew:00000000000000a4 $d
     /tmp/ccJ2K96T.s:3398   .text.osTimerGetName:0000000000000000 $t
     /tmp/ccJ2K96T.s:3405   .text.osTimerGetName:0000000000000000 osTimerGetName
     /tmp/ccJ2K96T.s:3482   .text.osTimerGetName:0000000000000030 $d
     /tmp/ccJ2K96T.s:3487   .text.osTimerStart:0000000000000000 $t
     /tmp/ccJ2K96T.s:3494   .text.osTimerStart:0000000000000000 osTimerStart
     /tmp/ccJ2K96T.s:3594   .text.osTimerStart:0000000000000050 $d
     /tmp/ccJ2K96T.s:3599   .text.osTimerStop:0000000000000000 $t
     /tmp/ccJ2K96T.s:3606   .text.osTimerStop:0000000000000000 osTimerStop
     /tmp/ccJ2K96T.s:3720   .text.osTimerStop:0000000000000064 $d
     /tmp/ccJ2K96T.s:3725   .text.osTimerIsRunning:0000000000000000 $t
     /tmp/ccJ2K96T.s:3732   .text.osTimerIsRunning:0000000000000000 osTimerIsRunning
     /tmp/ccJ2K96T.s:3801   .text.osTimerIsRunning:000000000000002c $d
     /tmp/ccJ2K96T.s:3806   .text.osTimerDelete:0000000000000000 $t
ARM GAS  /tmp/ccJ2K96T.s 			page 180


     /tmp/ccJ2K96T.s:3813   .text.osTimerDelete:0000000000000000 osTimerDelete
     /tmp/ccJ2K96T.s:3930   .text.osTimerDelete:0000000000000060 $d
     /tmp/ccJ2K96T.s:3935   .text.osEventFlagsNew:0000000000000000 $t
     /tmp/ccJ2K96T.s:3942   .text.osEventFlagsNew:0000000000000000 osEventFlagsNew
     /tmp/ccJ2K96T.s:4066   .text.osEventFlagsNew:0000000000000064 $d
     /tmp/ccJ2K96T.s:4071   .text.osEventFlagsSet:0000000000000000 $t
     /tmp/ccJ2K96T.s:4078   .text.osEventFlagsSet:0000000000000000 osEventFlagsSet
     /tmp/ccJ2K96T.s:4201   .text.osEventFlagsSet:0000000000000068 $d
     /tmp/ccJ2K96T.s:4207   .text.osEventFlagsClear:0000000000000000 $t
     /tmp/ccJ2K96T.s:4214   .text.osEventFlagsClear:0000000000000000 osEventFlagsClear
     /tmp/ccJ2K96T.s:4324   .text.osEventFlagsClear:000000000000005c $d
     /tmp/ccJ2K96T.s:4329   .text.osEventFlagsGet:0000000000000000 $t
     /tmp/ccJ2K96T.s:4336   .text.osEventFlagsGet:0000000000000000 osEventFlagsGet
     /tmp/ccJ2K96T.s:4410   .text.osEventFlagsGet:0000000000000030 $d
     /tmp/ccJ2K96T.s:4415   .text.osEventFlagsWait:0000000000000000 $t
     /tmp/ccJ2K96T.s:4422   .text.osEventFlagsWait:0000000000000000 osEventFlagsWait
     /tmp/ccJ2K96T.s:4594   .text.osEventFlagsWait:000000000000008c $d
     /tmp/ccJ2K96T.s:4599   .text.osEventFlagsDelete:0000000000000000 $t
     /tmp/ccJ2K96T.s:4606   .text.osEventFlagsDelete:0000000000000000 osEventFlagsDelete
     /tmp/ccJ2K96T.s:4692   .text.osEventFlagsDelete:0000000000000038 $d
     /tmp/ccJ2K96T.s:4697   .text.osMutexNew:0000000000000000 $t
     /tmp/ccJ2K96T.s:4704   .text.osMutexNew:0000000000000000 osMutexNew
     /tmp/ccJ2K96T.s:4918   .text.osMutexNew:00000000000000c4 $d
     /tmp/ccJ2K96T.s:4923   .text.osMutexAcquire:0000000000000000 $t
     /tmp/ccJ2K96T.s:4930   .text.osMutexAcquire:0000000000000000 osMutexAcquire
     /tmp/ccJ2K96T.s:5073   .text.osMutexAcquire:0000000000000080 $d
     /tmp/ccJ2K96T.s:5078   .text.osMutexRelease:0000000000000000 $t
     /tmp/ccJ2K96T.s:5085   .text.osMutexRelease:0000000000000000 osMutexRelease
     /tmp/ccJ2K96T.s:5212   .text.osMutexRelease:000000000000006c $d
     /tmp/ccJ2K96T.s:5217   .text.osMutexGetOwner:0000000000000000 $t
     /tmp/ccJ2K96T.s:5224   .text.osMutexGetOwner:0000000000000000 osMutexGetOwner
     /tmp/ccJ2K96T.s:5304   .text.osMutexGetOwner:0000000000000034 $d
     /tmp/ccJ2K96T.s:5309   .text.osMutexDelete:0000000000000000 $t
     /tmp/ccJ2K96T.s:5316   .text.osMutexDelete:0000000000000000 osMutexDelete
     /tmp/ccJ2K96T.s:5413   .text.osMutexDelete:0000000000000048 $d
     /tmp/ccJ2K96T.s:5418   .text.osSemaphoreNew:0000000000000000 $t
     /tmp/ccJ2K96T.s:5425   .text.osSemaphoreNew:0000000000000000 osSemaphoreNew
     /tmp/ccJ2K96T.s:5645   .text.osSemaphoreNew:00000000000000dc $d
     /tmp/ccJ2K96T.s:5650   .text.osSemaphoreAcquire:0000000000000000 $t
     /tmp/ccJ2K96T.s:5657   .text.osSemaphoreAcquire:0000000000000000 osSemaphoreAcquire
     /tmp/ccJ2K96T.s:5798   .text.osSemaphoreAcquire:0000000000000080 $d
     /tmp/ccJ2K96T.s:5804   .text.osSemaphoreRelease:0000000000000000 $t
     /tmp/ccJ2K96T.s:5811   .text.osSemaphoreRelease:0000000000000000 osSemaphoreRelease
     /tmp/ccJ2K96T.s:5928   .text.osSemaphoreRelease:000000000000006c $d
     /tmp/ccJ2K96T.s:5934   .text.osSemaphoreGetCount:0000000000000000 $t
     /tmp/ccJ2K96T.s:5941   .text.osSemaphoreGetCount:0000000000000000 osSemaphoreGetCount
     /tmp/ccJ2K96T.s:6014   .text.osSemaphoreGetCount:0000000000000030 $d
     /tmp/ccJ2K96T.s:6019   .text.osSemaphoreDelete:0000000000000000 $t
     /tmp/ccJ2K96T.s:6026   .text.osSemaphoreDelete:0000000000000000 osSemaphoreDelete
     /tmp/ccJ2K96T.s:6119   .text.osSemaphoreDelete:0000000000000044 $d
     /tmp/ccJ2K96T.s:6124   .text.osMessageQueueNew:0000000000000000 $t
     /tmp/ccJ2K96T.s:6131   .text.osMessageQueueNew:0000000000000000 osMessageQueueNew
     /tmp/ccJ2K96T.s:6329   .text.osMessageQueueNew:00000000000000c0 $d
     /tmp/ccJ2K96T.s:6334   .text.osMessageQueuePut:0000000000000000 $t
     /tmp/ccJ2K96T.s:6341   .text.osMessageQueuePut:0000000000000000 osMessageQueuePut
     /tmp/ccJ2K96T.s:6510   .text.osMessageQueuePut:000000000000009c $d
     /tmp/ccJ2K96T.s:6516   .text.osMessageQueueGet:0000000000000000 $t
ARM GAS  /tmp/ccJ2K96T.s 			page 181


     /tmp/ccJ2K96T.s:6523   .text.osMessageQueueGet:0000000000000000 osMessageQueueGet
     /tmp/ccJ2K96T.s:6691   .text.osMessageQueueGet:000000000000009c $d
     /tmp/ccJ2K96T.s:6697   .text.osMessageQueueGetCapacity:0000000000000000 $t
     /tmp/ccJ2K96T.s:6704   .text.osMessageQueueGetCapacity:0000000000000000 osMessageQueueGetCapacity
     /tmp/ccJ2K96T.s:6733   .text.osMessageQueueGetMsgSize:0000000000000000 $t
     /tmp/ccJ2K96T.s:6740   .text.osMessageQueueGetMsgSize:0000000000000000 osMessageQueueGetMsgSize
     /tmp/ccJ2K96T.s:6769   .text.osMessageQueueGetCount:0000000000000000 $t
     /tmp/ccJ2K96T.s:6776   .text.osMessageQueueGetCount:0000000000000000 osMessageQueueGetCount
     /tmp/ccJ2K96T.s:6849   .text.osMessageQueueGetCount:0000000000000030 $d
     /tmp/ccJ2K96T.s:6854   .text.osMessageQueueGetSpace:0000000000000000 $t
     /tmp/ccJ2K96T.s:6861   .text.osMessageQueueGetSpace:0000000000000000 osMessageQueueGetSpace
     /tmp/ccJ2K96T.s:6948   .text.osMessageQueueGetSpace:0000000000000040 $d
     /tmp/ccJ2K96T.s:6953   .text.osMessageQueueReset:0000000000000000 $t
     /tmp/ccJ2K96T.s:6960   .text.osMessageQueueReset:0000000000000000 osMessageQueueReset
     /tmp/ccJ2K96T.s:7047   .text.osMessageQueueReset:000000000000003c $d
     /tmp/ccJ2K96T.s:7052   .text.osMessageQueueDelete:0000000000000000 $t
     /tmp/ccJ2K96T.s:7059   .text.osMessageQueueDelete:0000000000000000 osMessageQueueDelete
     /tmp/ccJ2K96T.s:7152   .text.osMessageQueueDelete:0000000000000044 $d
     /tmp/ccJ2K96T.s:7157   .text.vApplicationGetIdleTaskMemory:0000000000000000 $t
     /tmp/ccJ2K96T.s:7164   .text.vApplicationGetIdleTaskMemory:0000000000000000 vApplicationGetIdleTaskMemory
     /tmp/ccJ2K96T.s:7187   .text.vApplicationGetIdleTaskMemory:0000000000000010 $d
     /tmp/ccJ2K96T.s:7233   .bss.Idle_Stack:0000000000000000 Idle_Stack
     /tmp/ccJ2K96T.s:7193   .text.vApplicationGetTimerTaskMemory:0000000000000000 $t
     /tmp/ccJ2K96T.s:7200   .text.vApplicationGetTimerTaskMemory:0000000000000000 vApplicationGetTimerTaskMemory
     /tmp/ccJ2K96T.s:7224   .text.vApplicationGetTimerTaskMemory:0000000000000010 $d
     /tmp/ccJ2K96T.s:7253   .bss.Timer_Stack:0000000000000000 Timer_Stack
     /tmp/ccJ2K96T.s:7230   .bss.Idle_Stack:0000000000000000 $d
     /tmp/ccJ2K96T.s:7236   .bss.Idle_TCB:0000000000000000 $d
     /tmp/ccJ2K96T.s:7240   .bss.Idle_TCB:0000000000000000 Idle_TCB
     /tmp/ccJ2K96T.s:7243   .bss.KernelState:0000000000000000 $d
     /tmp/ccJ2K96T.s:7247   .bss.KernelState:0000000000000000 KernelState
     /tmp/ccJ2K96T.s:7250   .bss.Timer_Stack:0000000000000000 $d
     /tmp/ccJ2K96T.s:7256   .bss.Timer_TCB:0000000000000000 $d
     /tmp/ccJ2K96T.s:7260   .bss.Timer_TCB:0000000000000000 Timer_TCB
     /tmp/ccJ2K96T.s:7263   .rodata.osKernelGetInfo.str1.4:0000000000000000 $d

UNDEFINED SYMBOLS
pvTimerGetTimerID
memcpy
xTaskGetSchedulerState
vTaskStartScheduler
vTaskSuspendAll
xTaskResumeAll
xTaskGetTickCount
xTaskGetTickCountFromISR
__aeabi_uidiv
SystemCoreClock
xTaskCreateStatic
xTaskCreate
pcTaskGetName
xTaskGetCurrentTaskHandle
eTaskGetState
uxTaskGetStackHighWaterMark
vTaskPrioritySet
uxTaskPriorityGet
vPortYield
vTaskSuspend
ARM GAS  /tmp/ccJ2K96T.s 			page 182


vTaskResume
vTaskDelete
uxTaskGetNumberOfTasks
pvPortMalloc
uxTaskGetSystemState
vPortFree
xTaskGenericNotify
xTaskGenericNotifyFromISR
xTaskNotifyWait
vTaskDelay
vTaskDelayUntil
xTimerCreate
xTimerCreateStatic
pcTimerGetName
xTimerGenericCommand
xTimerIsTimerActive
xEventGroupCreate
xEventGroupCreateStatic
xEventGroupSetBits
xEventGroupSetBitsFromISR
xEventGroupClearBits
xEventGroupGetBitsFromISR
xEventGroupClearBitsFromISR
xEventGroupWaitBits
vEventGroupDelete
xQueueCreateMutex
vQueueAddToRegistry
xQueueCreateMutexStatic
xQueueTakeMutexRecursive
xQueueSemaphoreTake
xQueueGiveMutexRecursive
xQueueGenericSend
xQueueGetMutexHolder
vQueueUnregisterQueue
vQueueDelete
xQueueCreateCountingSemaphore
xQueueGenericCreate
xQueueGenericCreateStatic
xQueueCreateCountingSemaphoreStatic
xQueueReceiveFromISR
xQueueGiveFromISR
uxQueueMessagesWaiting
uxQueueMessagesWaitingFromISR
xQueueGenericSendFromISR
xQueueReceive
uxQueueSpacesAvailable
ulSetInterruptMaskFromISR
vClearInterruptMaskFromISR
xQueueGenericReset
