ARM GAS  /tmp/ccP8wpCr.s 			page 1


   1              		.cpu cortex-m0
   2              		.eabi_attribute 20, 1
   3              		.eabi_attribute 21, 1
   4              		.eabi_attribute 23, 3
   5              		.eabi_attribute 24, 1
   6              		.eabi_attribute 25, 1
   7              		.eabi_attribute 26, 1
   8              		.eabi_attribute 30, 1
   9              		.eabi_attribute 34, 0
  10              		.eabi_attribute 18, 4
  11              		.file	"main.c"
  12              		.text
  13              	.Ltext0:
  14              		.cfi_sections	.debug_frame
  15              		.section	.text.StartDefaultTask,"ax",%progbits
  16              		.align	1
  17              		.global	StartDefaultTask
  18              		.syntax unified
  19              		.code	16
  20              		.thumb_func
  21              		.fpu softvfp
  23              	StartDefaultTask:
  24              	.LFB42:
  25              		.file 1 "Src/main.c"
   1:Src/main.c    **** /* USER CODE BEGIN Header */
   2:Src/main.c    **** /**
   3:Src/main.c    ****   ******************************************************************************
   4:Src/main.c    ****   * @file           : main.c
   5:Src/main.c    ****   * @brief          : Main program body
   6:Src/main.c    ****   ******************************************************************************
   7:Src/main.c    ****   * @attention
   8:Src/main.c    ****   *
   9:Src/main.c    ****   * <h2><center>&copy; Copyright (c) 2021 STMicroelectronics.
  10:Src/main.c    ****   * All rights reserved.</center></h2>
  11:Src/main.c    ****   *
  12:Src/main.c    ****   * This software component is licensed by ST under Ultimate Liberty license
  13:Src/main.c    ****   * SLA0044, the "License"; You may not use this file except in compliance with
  14:Src/main.c    ****   * the License. You may obtain a copy of the License at:
  15:Src/main.c    ****   *                             www.st.com/SLA0044
  16:Src/main.c    ****   *
  17:Src/main.c    ****   ******************************************************************************
  18:Src/main.c    ****   */
  19:Src/main.c    **** /* USER CODE END Header */
  20:Src/main.c    **** /* Includes ------------------------------------------------------------------*/
  21:Src/main.c    **** #include "main.h"
  22:Src/main.c    **** #include "cmsis_os.h"
  23:Src/main.c    **** 
  24:Src/main.c    **** /* Private includes ----------------------------------------------------------*/
  25:Src/main.c    **** /* USER CODE BEGIN Includes */
  26:Src/main.c    **** 
  27:Src/main.c    **** /* USER CODE END Includes */
  28:Src/main.c    **** 
  29:Src/main.c    **** /* Private typedef -----------------------------------------------------------*/
  30:Src/main.c    **** /* USER CODE BEGIN PTD */
  31:Src/main.c    **** 
  32:Src/main.c    **** /* USER CODE END PTD */
  33:Src/main.c    **** 
ARM GAS  /tmp/ccP8wpCr.s 			page 2


  34:Src/main.c    **** /* Private define ------------------------------------------------------------*/
  35:Src/main.c    **** /* USER CODE BEGIN PD */
  36:Src/main.c    **** /* USER CODE END PD */
  37:Src/main.c    **** 
  38:Src/main.c    **** /* Private macro -------------------------------------------------------------*/
  39:Src/main.c    **** /* USER CODE BEGIN PM */
  40:Src/main.c    **** 
  41:Src/main.c    **** /* USER CODE END PM */
  42:Src/main.c    **** 
  43:Src/main.c    **** /* Private variables ---------------------------------------------------------*/
  44:Src/main.c    **** /* Definitions for defaultTask */
  45:Src/main.c    **** osThreadId_t defaultTaskHandle;
  46:Src/main.c    **** const osThreadAttr_t defaultTask_attributes = {
  47:Src/main.c    ****   .name = "defaultTask",
  48:Src/main.c    ****   .priority = (osPriority_t) osPriorityNormal,
  49:Src/main.c    ****   .stack_size = 128 * 4
  50:Src/main.c    **** };
  51:Src/main.c    **** /* USER CODE BEGIN PV */
  52:Src/main.c    **** 
  53:Src/main.c    **** /* USER CODE END PV */
  54:Src/main.c    **** 
  55:Src/main.c    **** /* Private function prototypes -----------------------------------------------*/
  56:Src/main.c    **** void SystemClock_Config(void);
  57:Src/main.c    **** void StartDefaultTask(void *argument);
  58:Src/main.c    **** 
  59:Src/main.c    **** /* USER CODE BEGIN PFP */
  60:Src/main.c    **** 
  61:Src/main.c    **** /* USER CODE END PFP */
  62:Src/main.c    **** 
  63:Src/main.c    **** /* Private user code ---------------------------------------------------------*/
  64:Src/main.c    **** /* USER CODE BEGIN 0 */
  65:Src/main.c    **** 
  66:Src/main.c    **** /* USER CODE END 0 */
  67:Src/main.c    **** 
  68:Src/main.c    **** /**
  69:Src/main.c    ****   * @brief  The application entry point.
  70:Src/main.c    ****   * @retval int
  71:Src/main.c    ****   */
  72:Src/main.c    **** int main(void)
  73:Src/main.c    **** {
  74:Src/main.c    ****   /* USER CODE BEGIN 1 */
  75:Src/main.c    **** 
  76:Src/main.c    ****   /* USER CODE END 1 */
  77:Src/main.c    **** 
  78:Src/main.c    ****   /* MCU Configuration--------------------------------------------------------*/
  79:Src/main.c    **** 
  80:Src/main.c    ****   /* Reset of all peripherals, Initializes the Flash interface and the Systick. */
  81:Src/main.c    ****   HAL_Init();
  82:Src/main.c    **** 
  83:Src/main.c    ****   /* USER CODE BEGIN Init */
  84:Src/main.c    **** 
  85:Src/main.c    ****   /* USER CODE END Init */
  86:Src/main.c    **** 
  87:Src/main.c    ****   /* Configure the system clock */
  88:Src/main.c    ****   SystemClock_Config();
  89:Src/main.c    **** 
  90:Src/main.c    ****   /* USER CODE BEGIN SysInit */
ARM GAS  /tmp/ccP8wpCr.s 			page 3


  91:Src/main.c    **** 
  92:Src/main.c    ****   /* USER CODE END SysInit */
  93:Src/main.c    **** 
  94:Src/main.c    ****   /* Initialize all configured peripherals */
  95:Src/main.c    ****   /* USER CODE BEGIN 2 */
  96:Src/main.c    **** 
  97:Src/main.c    ****   /* USER CODE END 2 */
  98:Src/main.c    **** 
  99:Src/main.c    ****   /* Init scheduler */
 100:Src/main.c    ****   osKernelInitialize();
 101:Src/main.c    **** 
 102:Src/main.c    ****   /* USER CODE BEGIN RTOS_MUTEX */
 103:Src/main.c    ****   /* add mutexes, ... */
 104:Src/main.c    ****   /* USER CODE END RTOS_MUTEX */
 105:Src/main.c    **** 
 106:Src/main.c    ****   /* USER CODE BEGIN RTOS_SEMAPHORES */
 107:Src/main.c    ****   /* add semaphores, ... */
 108:Src/main.c    ****   /* USER CODE END RTOS_SEMAPHORES */
 109:Src/main.c    **** 
 110:Src/main.c    ****   /* USER CODE BEGIN RTOS_TIMERS */
 111:Src/main.c    ****   /* start timers, add new ones, ... */
 112:Src/main.c    ****   /* USER CODE END RTOS_TIMERS */
 113:Src/main.c    **** 
 114:Src/main.c    ****   /* USER CODE BEGIN RTOS_QUEUES */
 115:Src/main.c    ****   /* add queues, ... */
 116:Src/main.c    ****   /* USER CODE END RTOS_QUEUES */
 117:Src/main.c    **** 
 118:Src/main.c    ****   /* Create the thread(s) */
 119:Src/main.c    ****   /* creation of defaultTask */
 120:Src/main.c    ****   defaultTaskHandle = osThreadNew(StartDefaultTask, NULL, &defaultTask_attributes);
 121:Src/main.c    **** 
 122:Src/main.c    ****   /* USER CODE BEGIN RTOS_THREADS */
 123:Src/main.c    ****   /* add threads, ... */
 124:Src/main.c    ****   /* USER CODE END RTOS_THREADS */
 125:Src/main.c    **** 
 126:Src/main.c    ****   /* USER CODE BEGIN RTOS_EVENTS */
 127:Src/main.c    ****   /* add events, ... */
 128:Src/main.c    ****   /* USER CODE END RTOS_EVENTS */
 129:Src/main.c    **** 
 130:Src/main.c    ****   /* Start scheduler */
 131:Src/main.c    ****   osKernelStart();
 132:Src/main.c    **** 
 133:Src/main.c    ****   /* We should never get here as control is now taken by the scheduler */
 134:Src/main.c    ****   /* Infinite loop */
 135:Src/main.c    ****   /* USER CODE BEGIN WHILE */
 136:Src/main.c    ****   while (1)
 137:Src/main.c    ****   {
 138:Src/main.c    ****     /* USER CODE END WHILE */
 139:Src/main.c    **** 
 140:Src/main.c    ****     /* USER CODE BEGIN 3 */
 141:Src/main.c    ****   }
 142:Src/main.c    ****   /* USER CODE END 3 */
 143:Src/main.c    **** }
 144:Src/main.c    **** 
 145:Src/main.c    **** /**
 146:Src/main.c    ****   * @brief System Clock Configuration
 147:Src/main.c    ****   * @retval None
ARM GAS  /tmp/ccP8wpCr.s 			page 4


 148:Src/main.c    ****   */
 149:Src/main.c    **** void SystemClock_Config(void)
 150:Src/main.c    **** {
 151:Src/main.c    ****   RCC_OscInitTypeDef RCC_OscInitStruct = {0};
 152:Src/main.c    ****   RCC_ClkInitTypeDef RCC_ClkInitStruct = {0};
 153:Src/main.c    **** 
 154:Src/main.c    ****   /** Initializes the RCC Oscillators according to the specified parameters
 155:Src/main.c    ****   * in the RCC_OscInitTypeDef structure.
 156:Src/main.c    ****   */
 157:Src/main.c    ****   RCC_OscInitStruct.OscillatorType = RCC_OSCILLATORTYPE_HSI;
 158:Src/main.c    ****   RCC_OscInitStruct.HSIState = RCC_HSI_ON;
 159:Src/main.c    ****   RCC_OscInitStruct.HSICalibrationValue = RCC_HSICALIBRATION_DEFAULT;
 160:Src/main.c    ****   RCC_OscInitStruct.PLL.PLLState = RCC_PLL_ON;
 161:Src/main.c    ****   RCC_OscInitStruct.PLL.PLLSource = RCC_PLLSOURCE_HSI;
 162:Src/main.c    ****   RCC_OscInitStruct.PLL.PLLMUL = RCC_PLL_MUL6;
 163:Src/main.c    ****   RCC_OscInitStruct.PLL.PREDIV = RCC_PREDIV_DIV1;
 164:Src/main.c    ****   if (HAL_RCC_OscConfig(&RCC_OscInitStruct) != HAL_OK)
 165:Src/main.c    ****   {
 166:Src/main.c    ****     Error_Handler();
 167:Src/main.c    ****   }
 168:Src/main.c    ****   /** Initializes the CPU, AHB and APB buses clocks
 169:Src/main.c    ****   */
 170:Src/main.c    ****   RCC_ClkInitStruct.ClockType = RCC_CLOCKTYPE_HCLK|RCC_CLOCKTYPE_SYSCLK
 171:Src/main.c    ****                               |RCC_CLOCKTYPE_PCLK1;
 172:Src/main.c    ****   RCC_ClkInitStruct.SYSCLKSource = RCC_SYSCLKSOURCE_PLLCLK;
 173:Src/main.c    ****   RCC_ClkInitStruct.AHBCLKDivider = RCC_SYSCLK_DIV1;
 174:Src/main.c    ****   RCC_ClkInitStruct.APB1CLKDivider = RCC_HCLK_DIV1;
 175:Src/main.c    **** 
 176:Src/main.c    ****   if (HAL_RCC_ClockConfig(&RCC_ClkInitStruct, FLASH_LATENCY_1) != HAL_OK)
 177:Src/main.c    ****   {
 178:Src/main.c    ****     Error_Handler();
 179:Src/main.c    ****   }
 180:Src/main.c    **** }
 181:Src/main.c    **** 
 182:Src/main.c    **** /* USER CODE BEGIN 4 */
 183:Src/main.c    **** 
 184:Src/main.c    **** /* USER CODE END 4 */
 185:Src/main.c    **** 
 186:Src/main.c    **** /* USER CODE BEGIN Header_StartDefaultTask */
 187:Src/main.c    **** /**
 188:Src/main.c    ****   * @brief  Function implementing the defaultTask thread.
 189:Src/main.c    ****   * @param  argument: Not used
 190:Src/main.c    ****   * @retval None
 191:Src/main.c    ****   */
 192:Src/main.c    **** /* USER CODE END Header_StartDefaultTask */
 193:Src/main.c    **** void StartDefaultTask(void *argument)
 194:Src/main.c    **** {
  26              		.loc 1 194 0
  27              		.cfi_startproc
  28              		@ Volatile: function does not return.
  29              		@ args = 0, pretend = 0, frame = 0
  30              		@ frame_needed = 0, uses_anonymous_args = 0
  31              	.LVL0:
  32 0000 10B5     		push	{r4, lr}
  33              	.LCFI0:
  34              		.cfi_def_cfa_offset 8
  35              		.cfi_offset 4, -8
ARM GAS  /tmp/ccP8wpCr.s 			page 5


  36              		.cfi_offset 14, -4
  37              	.LVL1:
  38              	.L2:
 195:Src/main.c    ****   /* USER CODE BEGIN 5 */
 196:Src/main.c    ****   /* Infinite loop */
 197:Src/main.c    ****   for(;;)
 198:Src/main.c    ****   {
 199:Src/main.c    ****     osDelay(1);
  39              		.loc 1 199 0 discriminator 1
  40 0002 0120     		movs	r0, #1
  41 0004 FFF7FEFF 		bl	osDelay
  42              	.LVL2:
  43 0008 FBE7     		b	.L2
  44              		.cfi_endproc
  45              	.LFE42:
  47              		.section	.text.HAL_TIM_PeriodElapsedCallback,"ax",%progbits
  48              		.align	1
  49              		.global	HAL_TIM_PeriodElapsedCallback
  50              		.syntax unified
  51              		.code	16
  52              		.thumb_func
  53              		.fpu softvfp
  55              	HAL_TIM_PeriodElapsedCallback:
  56              	.LFB43:
 200:Src/main.c    ****   }
 201:Src/main.c    ****   /* USER CODE END 5 */
 202:Src/main.c    **** }
 203:Src/main.c    **** 
 204:Src/main.c    ****  /**
 205:Src/main.c    ****   * @brief  Period elapsed callback in non blocking mode
 206:Src/main.c    ****   * @note   This function is called  when TIM2 interrupt took place, inside
 207:Src/main.c    ****   * HAL_TIM_IRQHandler(). It makes a direct call to HAL_IncTick() to increment
 208:Src/main.c    ****   * a global variable "uwTick" used as application time base.
 209:Src/main.c    ****   * @param  htim : TIM handle
 210:Src/main.c    ****   * @retval None
 211:Src/main.c    ****   */
 212:Src/main.c    **** void HAL_TIM_PeriodElapsedCallback(TIM_HandleTypeDef *htim)
 213:Src/main.c    **** {
  57              		.loc 1 213 0
  58              		.cfi_startproc
  59              		@ args = 0, pretend = 0, frame = 0
  60              		@ frame_needed = 0, uses_anonymous_args = 0
  61              	.LVL3:
  62 0000 10B5     		push	{r4, lr}
  63              	.LCFI1:
  64              		.cfi_def_cfa_offset 8
  65              		.cfi_offset 4, -8
  66              		.cfi_offset 14, -4
 214:Src/main.c    ****   /* USER CODE BEGIN Callback 0 */
 215:Src/main.c    **** 
 216:Src/main.c    ****   /* USER CODE END Callback 0 */
 217:Src/main.c    ****   if (htim->Instance == TIM2) {
  67              		.loc 1 217 0
  68 0002 0268     		ldr	r2, [r0]
  69 0004 8023     		movs	r3, #128
  70 0006 DB05     		lsls	r3, r3, #23
  71 0008 9A42     		cmp	r2, r3
ARM GAS  /tmp/ccP8wpCr.s 			page 6


  72 000a 00D0     		beq	.L5
  73              	.LVL4:
  74              	.L3:
 218:Src/main.c    ****     HAL_IncTick();
 219:Src/main.c    ****   }
 220:Src/main.c    ****   /* USER CODE BEGIN Callback 1 */
 221:Src/main.c    **** 
 222:Src/main.c    ****   /* USER CODE END Callback 1 */
 223:Src/main.c    **** }
  75              		.loc 1 223 0
  76              		@ sp needed
  77 000c 10BD     		pop	{r4, pc}
  78              	.LVL5:
  79              	.L5:
 218:Src/main.c    ****     HAL_IncTick();
  80              		.loc 1 218 0
  81 000e FFF7FEFF 		bl	HAL_IncTick
  82              	.LVL6:
  83              		.loc 1 223 0
  84 0012 FBE7     		b	.L3
  85              		.cfi_endproc
  86              	.LFE43:
  88              		.section	.text.Error_Handler,"ax",%progbits
  89              		.align	1
  90              		.global	Error_Handler
  91              		.syntax unified
  92              		.code	16
  93              		.thumb_func
  94              		.fpu softvfp
  96              	Error_Handler:
  97              	.LFB44:
 224:Src/main.c    **** 
 225:Src/main.c    **** /**
 226:Src/main.c    ****   * @brief  This function is executed in case of error occurrence.
 227:Src/main.c    ****   * @retval None
 228:Src/main.c    ****   */
 229:Src/main.c    **** void Error_Handler(void)
 230:Src/main.c    **** {
  98              		.loc 1 230 0
  99              		.cfi_startproc
 100              		@ Volatile: function does not return.
 101              		@ args = 0, pretend = 0, frame = 0
 102              		@ frame_needed = 0, uses_anonymous_args = 0
 103              		@ link register save eliminated.
 104              	.LBB4:
 105              	.LBB5:
 106              		.file 2 "Drivers/CMSIS/Include/cmsis_gcc.h"
   1:Drivers/CMSIS/Include/cmsis_gcc.h **** /**************************************************************************//**
   2:Drivers/CMSIS/Include/cmsis_gcc.h ****  * @file     cmsis_gcc.h
   3:Drivers/CMSIS/Include/cmsis_gcc.h ****  * @brief    CMSIS compiler GCC header file
   4:Drivers/CMSIS/Include/cmsis_gcc.h ****  * @version  V5.0.4
   5:Drivers/CMSIS/Include/cmsis_gcc.h ****  * @date     09. April 2018
   6:Drivers/CMSIS/Include/cmsis_gcc.h ****  ******************************************************************************/
   7:Drivers/CMSIS/Include/cmsis_gcc.h **** /*
   8:Drivers/CMSIS/Include/cmsis_gcc.h ****  * Copyright (c) 2009-2018 Arm Limited. All rights reserved.
   9:Drivers/CMSIS/Include/cmsis_gcc.h ****  *
  10:Drivers/CMSIS/Include/cmsis_gcc.h ****  * SPDX-License-Identifier: Apache-2.0
ARM GAS  /tmp/ccP8wpCr.s 			page 7


  11:Drivers/CMSIS/Include/cmsis_gcc.h ****  *
  12:Drivers/CMSIS/Include/cmsis_gcc.h ****  * Licensed under the Apache License, Version 2.0 (the License); you may
  13:Drivers/CMSIS/Include/cmsis_gcc.h ****  * not use this file except in compliance with the License.
  14:Drivers/CMSIS/Include/cmsis_gcc.h ****  * You may obtain a copy of the License at
  15:Drivers/CMSIS/Include/cmsis_gcc.h ****  *
  16:Drivers/CMSIS/Include/cmsis_gcc.h ****  * www.apache.org/licenses/LICENSE-2.0
  17:Drivers/CMSIS/Include/cmsis_gcc.h ****  *
  18:Drivers/CMSIS/Include/cmsis_gcc.h ****  * Unless required by applicable law or agreed to in writing, software
  19:Drivers/CMSIS/Include/cmsis_gcc.h ****  * distributed under the License is distributed on an AS IS BASIS, WITHOUT
  20:Drivers/CMSIS/Include/cmsis_gcc.h ****  * WARRANTIES OR CONDITIONS OF ANY KIND, either express or implied.
  21:Drivers/CMSIS/Include/cmsis_gcc.h ****  * See the License for the specific language governing permissions and
  22:Drivers/CMSIS/Include/cmsis_gcc.h ****  * limitations under the License.
  23:Drivers/CMSIS/Include/cmsis_gcc.h ****  */
  24:Drivers/CMSIS/Include/cmsis_gcc.h **** 
  25:Drivers/CMSIS/Include/cmsis_gcc.h **** #ifndef __CMSIS_GCC_H
  26:Drivers/CMSIS/Include/cmsis_gcc.h **** #define __CMSIS_GCC_H
  27:Drivers/CMSIS/Include/cmsis_gcc.h **** 
  28:Drivers/CMSIS/Include/cmsis_gcc.h **** /* ignore some GCC warnings */
  29:Drivers/CMSIS/Include/cmsis_gcc.h **** #pragma GCC diagnostic push
  30:Drivers/CMSIS/Include/cmsis_gcc.h **** #pragma GCC diagnostic ignored "-Wsign-conversion"
  31:Drivers/CMSIS/Include/cmsis_gcc.h **** #pragma GCC diagnostic ignored "-Wconversion"
  32:Drivers/CMSIS/Include/cmsis_gcc.h **** #pragma GCC diagnostic ignored "-Wunused-parameter"
  33:Drivers/CMSIS/Include/cmsis_gcc.h **** 
  34:Drivers/CMSIS/Include/cmsis_gcc.h **** /* Fallback for __has_builtin */
  35:Drivers/CMSIS/Include/cmsis_gcc.h **** #ifndef __has_builtin
  36:Drivers/CMSIS/Include/cmsis_gcc.h ****   #define __has_builtin(x) (0)
  37:Drivers/CMSIS/Include/cmsis_gcc.h **** #endif
  38:Drivers/CMSIS/Include/cmsis_gcc.h **** 
  39:Drivers/CMSIS/Include/cmsis_gcc.h **** /* CMSIS compiler specific defines */
  40:Drivers/CMSIS/Include/cmsis_gcc.h **** #ifndef   __ASM
  41:Drivers/CMSIS/Include/cmsis_gcc.h ****   #define __ASM                                  __asm
  42:Drivers/CMSIS/Include/cmsis_gcc.h **** #endif
  43:Drivers/CMSIS/Include/cmsis_gcc.h **** #ifndef   __INLINE
  44:Drivers/CMSIS/Include/cmsis_gcc.h ****   #define __INLINE                               inline
  45:Drivers/CMSIS/Include/cmsis_gcc.h **** #endif
  46:Drivers/CMSIS/Include/cmsis_gcc.h **** #ifndef   __STATIC_INLINE
  47:Drivers/CMSIS/Include/cmsis_gcc.h ****   #define __STATIC_INLINE                        static inline
  48:Drivers/CMSIS/Include/cmsis_gcc.h **** #endif
  49:Drivers/CMSIS/Include/cmsis_gcc.h **** #ifndef   __STATIC_FORCEINLINE                 
  50:Drivers/CMSIS/Include/cmsis_gcc.h ****   #define __STATIC_FORCEINLINE                   __attribute__((always_inline)) static inline
  51:Drivers/CMSIS/Include/cmsis_gcc.h **** #endif                                           
  52:Drivers/CMSIS/Include/cmsis_gcc.h **** #ifndef   __NO_RETURN
  53:Drivers/CMSIS/Include/cmsis_gcc.h ****   #define __NO_RETURN                            __attribute__((__noreturn__))
  54:Drivers/CMSIS/Include/cmsis_gcc.h **** #endif
  55:Drivers/CMSIS/Include/cmsis_gcc.h **** #ifndef   __USED
  56:Drivers/CMSIS/Include/cmsis_gcc.h ****   #define __USED                                 __attribute__((used))
  57:Drivers/CMSIS/Include/cmsis_gcc.h **** #endif
  58:Drivers/CMSIS/Include/cmsis_gcc.h **** #ifndef   __WEAK
  59:Drivers/CMSIS/Include/cmsis_gcc.h ****   #define __WEAK                                 __attribute__((weak))
  60:Drivers/CMSIS/Include/cmsis_gcc.h **** #endif
  61:Drivers/CMSIS/Include/cmsis_gcc.h **** #ifndef   __PACKED
  62:Drivers/CMSIS/Include/cmsis_gcc.h ****   #define __PACKED                               __attribute__((packed, aligned(1)))
  63:Drivers/CMSIS/Include/cmsis_gcc.h **** #endif
  64:Drivers/CMSIS/Include/cmsis_gcc.h **** #ifndef   __PACKED_STRUCT
  65:Drivers/CMSIS/Include/cmsis_gcc.h ****   #define __PACKED_STRUCT                        struct __attribute__((packed, aligned(1)))
  66:Drivers/CMSIS/Include/cmsis_gcc.h **** #endif
  67:Drivers/CMSIS/Include/cmsis_gcc.h **** #ifndef   __PACKED_UNION
ARM GAS  /tmp/ccP8wpCr.s 			page 8


  68:Drivers/CMSIS/Include/cmsis_gcc.h ****   #define __PACKED_UNION                         union __attribute__((packed, aligned(1)))
  69:Drivers/CMSIS/Include/cmsis_gcc.h **** #endif
  70:Drivers/CMSIS/Include/cmsis_gcc.h **** #ifndef   __UNALIGNED_UINT32        /* deprecated */
  71:Drivers/CMSIS/Include/cmsis_gcc.h ****   #pragma GCC diagnostic push
  72:Drivers/CMSIS/Include/cmsis_gcc.h ****   #pragma GCC diagnostic ignored "-Wpacked"
  73:Drivers/CMSIS/Include/cmsis_gcc.h ****   #pragma GCC diagnostic ignored "-Wattributes"
  74:Drivers/CMSIS/Include/cmsis_gcc.h ****   struct __attribute__((packed)) T_UINT32 { uint32_t v; };
  75:Drivers/CMSIS/Include/cmsis_gcc.h ****   #pragma GCC diagnostic pop
  76:Drivers/CMSIS/Include/cmsis_gcc.h ****   #define __UNALIGNED_UINT32(x)                  (((struct T_UINT32 *)(x))->v)
  77:Drivers/CMSIS/Include/cmsis_gcc.h **** #endif
  78:Drivers/CMSIS/Include/cmsis_gcc.h **** #ifndef   __UNALIGNED_UINT16_WRITE
  79:Drivers/CMSIS/Include/cmsis_gcc.h ****   #pragma GCC diagnostic push
  80:Drivers/CMSIS/Include/cmsis_gcc.h ****   #pragma GCC diagnostic ignored "-Wpacked"
  81:Drivers/CMSIS/Include/cmsis_gcc.h ****   #pragma GCC diagnostic ignored "-Wattributes"
  82:Drivers/CMSIS/Include/cmsis_gcc.h ****   __PACKED_STRUCT T_UINT16_WRITE { uint16_t v; };
  83:Drivers/CMSIS/Include/cmsis_gcc.h ****   #pragma GCC diagnostic pop
  84:Drivers/CMSIS/Include/cmsis_gcc.h ****   #define __UNALIGNED_UINT16_WRITE(addr, val)    (void)((((struct T_UINT16_WRITE *)(void *)(addr))-
  85:Drivers/CMSIS/Include/cmsis_gcc.h **** #endif
  86:Drivers/CMSIS/Include/cmsis_gcc.h **** #ifndef   __UNALIGNED_UINT16_READ
  87:Drivers/CMSIS/Include/cmsis_gcc.h ****   #pragma GCC diagnostic push
  88:Drivers/CMSIS/Include/cmsis_gcc.h ****   #pragma GCC diagnostic ignored "-Wpacked"
  89:Drivers/CMSIS/Include/cmsis_gcc.h ****   #pragma GCC diagnostic ignored "-Wattributes"
  90:Drivers/CMSIS/Include/cmsis_gcc.h ****   __PACKED_STRUCT T_UINT16_READ { uint16_t v; };
  91:Drivers/CMSIS/Include/cmsis_gcc.h ****   #pragma GCC diagnostic pop
  92:Drivers/CMSIS/Include/cmsis_gcc.h ****   #define __UNALIGNED_UINT16_READ(addr)          (((const struct T_UINT16_READ *)(const void *)(add
  93:Drivers/CMSIS/Include/cmsis_gcc.h **** #endif
  94:Drivers/CMSIS/Include/cmsis_gcc.h **** #ifndef   __UNALIGNED_UINT32_WRITE
  95:Drivers/CMSIS/Include/cmsis_gcc.h ****   #pragma GCC diagnostic push
  96:Drivers/CMSIS/Include/cmsis_gcc.h ****   #pragma GCC diagnostic ignored "-Wpacked"
  97:Drivers/CMSIS/Include/cmsis_gcc.h ****   #pragma GCC diagnostic ignored "-Wattributes"
  98:Drivers/CMSIS/Include/cmsis_gcc.h ****   __PACKED_STRUCT T_UINT32_WRITE { uint32_t v; };
  99:Drivers/CMSIS/Include/cmsis_gcc.h ****   #pragma GCC diagnostic pop
 100:Drivers/CMSIS/Include/cmsis_gcc.h ****   #define __UNALIGNED_UINT32_WRITE(addr, val)    (void)((((struct T_UINT32_WRITE *)(void *)(addr))-
 101:Drivers/CMSIS/Include/cmsis_gcc.h **** #endif
 102:Drivers/CMSIS/Include/cmsis_gcc.h **** #ifndef   __UNALIGNED_UINT32_READ
 103:Drivers/CMSIS/Include/cmsis_gcc.h ****   #pragma GCC diagnostic push
 104:Drivers/CMSIS/Include/cmsis_gcc.h ****   #pragma GCC diagnostic ignored "-Wpacked"
 105:Drivers/CMSIS/Include/cmsis_gcc.h ****   #pragma GCC diagnostic ignored "-Wattributes"
 106:Drivers/CMSIS/Include/cmsis_gcc.h ****   __PACKED_STRUCT T_UINT32_READ { uint32_t v; };
 107:Drivers/CMSIS/Include/cmsis_gcc.h ****   #pragma GCC diagnostic pop
 108:Drivers/CMSIS/Include/cmsis_gcc.h ****   #define __UNALIGNED_UINT32_READ(addr)          (((const struct T_UINT32_READ *)(const void *)(add
 109:Drivers/CMSIS/Include/cmsis_gcc.h **** #endif
 110:Drivers/CMSIS/Include/cmsis_gcc.h **** #ifndef   __ALIGNED
 111:Drivers/CMSIS/Include/cmsis_gcc.h ****   #define __ALIGNED(x)                           __attribute__((aligned(x)))
 112:Drivers/CMSIS/Include/cmsis_gcc.h **** #endif
 113:Drivers/CMSIS/Include/cmsis_gcc.h **** #ifndef   __RESTRICT
 114:Drivers/CMSIS/Include/cmsis_gcc.h ****   #define __RESTRICT                             __restrict
 115:Drivers/CMSIS/Include/cmsis_gcc.h **** #endif
 116:Drivers/CMSIS/Include/cmsis_gcc.h **** 
 117:Drivers/CMSIS/Include/cmsis_gcc.h **** 
 118:Drivers/CMSIS/Include/cmsis_gcc.h **** /* ###########################  Core Function Access  ########################### */
 119:Drivers/CMSIS/Include/cmsis_gcc.h **** /** \ingroup  CMSIS_Core_FunctionInterface
 120:Drivers/CMSIS/Include/cmsis_gcc.h ****     \defgroup CMSIS_Core_RegAccFunctions CMSIS Core Register Access Functions
 121:Drivers/CMSIS/Include/cmsis_gcc.h ****   @{
 122:Drivers/CMSIS/Include/cmsis_gcc.h ****  */
 123:Drivers/CMSIS/Include/cmsis_gcc.h **** 
 124:Drivers/CMSIS/Include/cmsis_gcc.h **** /**
ARM GAS  /tmp/ccP8wpCr.s 			page 9


 125:Drivers/CMSIS/Include/cmsis_gcc.h ****   \brief   Enable IRQ Interrupts
 126:Drivers/CMSIS/Include/cmsis_gcc.h ****   \details Enables IRQ interrupts by clearing the I-bit in the CPSR.
 127:Drivers/CMSIS/Include/cmsis_gcc.h ****            Can only be executed in Privileged modes.
 128:Drivers/CMSIS/Include/cmsis_gcc.h ****  */
 129:Drivers/CMSIS/Include/cmsis_gcc.h **** __STATIC_FORCEINLINE void __enable_irq(void)
 130:Drivers/CMSIS/Include/cmsis_gcc.h **** {
 131:Drivers/CMSIS/Include/cmsis_gcc.h ****   __ASM volatile ("cpsie i" : : : "memory");
 132:Drivers/CMSIS/Include/cmsis_gcc.h **** }
 133:Drivers/CMSIS/Include/cmsis_gcc.h **** 
 134:Drivers/CMSIS/Include/cmsis_gcc.h **** 
 135:Drivers/CMSIS/Include/cmsis_gcc.h **** /**
 136:Drivers/CMSIS/Include/cmsis_gcc.h ****   \brief   Disable IRQ Interrupts
 137:Drivers/CMSIS/Include/cmsis_gcc.h ****   \details Disables IRQ interrupts by setting the I-bit in the CPSR.
 138:Drivers/CMSIS/Include/cmsis_gcc.h ****            Can only be executed in Privileged modes.
 139:Drivers/CMSIS/Include/cmsis_gcc.h ****  */
 140:Drivers/CMSIS/Include/cmsis_gcc.h **** __STATIC_FORCEINLINE void __disable_irq(void)
 141:Drivers/CMSIS/Include/cmsis_gcc.h **** {
 142:Drivers/CMSIS/Include/cmsis_gcc.h ****   __ASM volatile ("cpsid i" : : : "memory");
 107              		.loc 2 142 0
 108              		.syntax divided
 109              	@ 142 "Drivers/CMSIS/Include/cmsis_gcc.h" 1
 110 0000 72B6     		cpsid i
 111              	@ 0 "" 2
 112              		.thumb
 113              		.syntax unified
 114              	.L7:
 115 0002 FEE7     		b	.L7
 116              	.LBE5:
 117              	.LBE4:
 118              		.cfi_endproc
 119              	.LFE44:
 121              		.section	.text.SystemClock_Config,"ax",%progbits
 122              		.align	1
 123              		.global	SystemClock_Config
 124              		.syntax unified
 125              		.code	16
 126              		.thumb_func
 127              		.fpu softvfp
 129              	SystemClock_Config:
 130              	.LFB41:
 150:Src/main.c    ****   RCC_OscInitTypeDef RCC_OscInitStruct = {0};
 131              		.loc 1 150 0
 132              		.cfi_startproc
 133              		@ args = 0, pretend = 0, frame = 72
 134              		@ frame_needed = 0, uses_anonymous_args = 0
 135 0000 00B5     		push	{lr}
 136              	.LCFI2:
 137              		.cfi_def_cfa_offset 4
 138              		.cfi_offset 14, -4
 139 0002 93B0     		sub	sp, sp, #76
 140              	.LCFI3:
 141              		.cfi_def_cfa_offset 80
 151:Src/main.c    ****   RCC_ClkInitTypeDef RCC_ClkInitStruct = {0};
 142              		.loc 1 151 0
 143 0004 3022     		movs	r2, #48
 144 0006 0021     		movs	r1, #0
 145 0008 06A8     		add	r0, sp, #24
ARM GAS  /tmp/ccP8wpCr.s 			page 10


 146 000a FFF7FEFF 		bl	memset
 147              	.LVL7:
 152:Src/main.c    **** 
 148              		.loc 1 152 0
 149 000e 1022     		movs	r2, #16
 150 0010 0021     		movs	r1, #0
 151 0012 01A8     		add	r0, sp, #4
 152 0014 FFF7FEFF 		bl	memset
 153              	.LVL8:
 157:Src/main.c    ****   RCC_OscInitStruct.HSIState = RCC_HSI_ON;
 154              		.loc 1 157 0
 155 0018 0223     		movs	r3, #2
 156 001a 0593     		str	r3, [sp, #20]
 158:Src/main.c    ****   RCC_OscInitStruct.HSICalibrationValue = RCC_HSICALIBRATION_DEFAULT;
 157              		.loc 1 158 0
 158 001c 0122     		movs	r2, #1
 159 001e 0892     		str	r2, [sp, #32]
 159:Src/main.c    ****   RCC_OscInitStruct.PLL.PLLState = RCC_PLL_ON;
 160              		.loc 1 159 0
 161 0020 0F32     		adds	r2, r2, #15
 162 0022 0992     		str	r2, [sp, #36]
 160:Src/main.c    ****   RCC_OscInitStruct.PLL.PLLSource = RCC_PLLSOURCE_HSI;
 163              		.loc 1 160 0
 164 0024 0E93     		str	r3, [sp, #56]
 161:Src/main.c    ****   RCC_OscInitStruct.PLL.PLLMUL = RCC_PLL_MUL6;
 165              		.loc 1 161 0
 166 0026 8023     		movs	r3, #128
 167 0028 1B02     		lsls	r3, r3, #8
 168 002a 0F93     		str	r3, [sp, #60]
 162:Src/main.c    ****   RCC_OscInitStruct.PLL.PREDIV = RCC_PREDIV_DIV1;
 169              		.loc 1 162 0
 170 002c 8023     		movs	r3, #128
 171 002e 5B03     		lsls	r3, r3, #13
 172 0030 1093     		str	r3, [sp, #64]
 164:Src/main.c    ****   {
 173              		.loc 1 164 0
 174 0032 05A8     		add	r0, sp, #20
 175 0034 FFF7FEFF 		bl	HAL_RCC_OscConfig
 176              	.LVL9:
 177 0038 0028     		cmp	r0, #0
 178 003a 0ED1     		bne	.L11
 170:Src/main.c    ****                               |RCC_CLOCKTYPE_PCLK1;
 179              		.loc 1 170 0
 180 003c 0723     		movs	r3, #7
 181 003e 0193     		str	r3, [sp, #4]
 172:Src/main.c    ****   RCC_ClkInitStruct.AHBCLKDivider = RCC_SYSCLK_DIV1;
 182              		.loc 1 172 0
 183 0040 053B     		subs	r3, r3, #5
 184 0042 0293     		str	r3, [sp, #8]
 173:Src/main.c    ****   RCC_ClkInitStruct.APB1CLKDivider = RCC_HCLK_DIV1;
 185              		.loc 1 173 0
 186 0044 0023     		movs	r3, #0
 187 0046 0393     		str	r3, [sp, #12]
 174:Src/main.c    **** 
 188              		.loc 1 174 0
 189 0048 0493     		str	r3, [sp, #16]
 176:Src/main.c    ****   {
ARM GAS  /tmp/ccP8wpCr.s 			page 11


 190              		.loc 1 176 0
 191 004a 0121     		movs	r1, #1
 192 004c 01A8     		add	r0, sp, #4
 193 004e FFF7FEFF 		bl	HAL_RCC_ClockConfig
 194              	.LVL10:
 195 0052 0028     		cmp	r0, #0
 196 0054 03D1     		bne	.L12
 180:Src/main.c    **** 
 197              		.loc 1 180 0
 198 0056 13B0     		add	sp, sp, #76
 199              		@ sp needed
 200 0058 00BD     		pop	{pc}
 201              	.L11:
 166:Src/main.c    ****   }
 202              		.loc 1 166 0
 203 005a FFF7FEFF 		bl	Error_Handler
 204              	.LVL11:
 205              	.L12:
 178:Src/main.c    ****   }
 206              		.loc 1 178 0
 207 005e FFF7FEFF 		bl	Error_Handler
 208              	.LVL12:
 209              		.cfi_endproc
 210              	.LFE41:
 212              		.section	.text.main,"ax",%progbits
 213              		.align	1
 214              		.global	main
 215              		.syntax unified
 216              		.code	16
 217              		.thumb_func
 218              		.fpu softvfp
 220              	main:
 221              	.LFB40:
  73:Src/main.c    ****   /* USER CODE BEGIN 1 */
 222              		.loc 1 73 0
 223              		.cfi_startproc
 224              		@ Volatile: function does not return.
 225              		@ args = 0, pretend = 0, frame = 0
 226              		@ frame_needed = 0, uses_anonymous_args = 0
 227 0000 10B5     		push	{r4, lr}
 228              	.LCFI4:
 229              		.cfi_def_cfa_offset 8
 230              		.cfi_offset 4, -8
 231              		.cfi_offset 14, -4
  81:Src/main.c    **** 
 232              		.loc 1 81 0
 233 0002 FFF7FEFF 		bl	HAL_Init
 234              	.LVL13:
  88:Src/main.c    **** 
 235              		.loc 1 88 0
 236 0006 FFF7FEFF 		bl	SystemClock_Config
 237              	.LVL14:
 100:Src/main.c    **** 
 238              		.loc 1 100 0
 239 000a FFF7FEFF 		bl	osKernelInitialize
 240              	.LVL15:
 120:Src/main.c    **** 
ARM GAS  /tmp/ccP8wpCr.s 			page 12


 241              		.loc 1 120 0
 242 000e 054A     		ldr	r2, .L15
 243 0010 0021     		movs	r1, #0
 244 0012 0548     		ldr	r0, .L15+4
 245 0014 FFF7FEFF 		bl	osThreadNew
 246              	.LVL16:
 247 0018 044B     		ldr	r3, .L15+8
 248 001a 1860     		str	r0, [r3]
 131:Src/main.c    **** 
 249              		.loc 1 131 0
 250 001c FFF7FEFF 		bl	osKernelStart
 251              	.LVL17:
 252              	.L14:
 253 0020 FEE7     		b	.L14
 254              	.L16:
 255 0022 C046     		.align	2
 256              	.L15:
 257 0024 00000000 		.word	.LANCHOR0
 258 0028 00000000 		.word	StartDefaultTask
 259 002c 00000000 		.word	defaultTaskHandle
 260              		.cfi_endproc
 261              	.LFE40:
 263              		.global	defaultTask_attributes
 264              		.comm	defaultTaskHandle,4,4
 265              		.section	.rodata.defaultTask_attributes,"a",%progbits
 266              		.align	2
 267              		.set	.LANCHOR0,. + 0
 270              	defaultTask_attributes:
 271 0000 00000000 		.word	.LC3
 272 0004 00000000 		.space	16
 272      00000000 
 272      00000000 
 272      00000000 
 273 0014 00020000 		.word	512
 274 0018 18000000 		.word	24
 275 001c 00000000 		.space	8
 275      00000000 
 276              		.section	.rodata.str1.4,"aMS",%progbits,1
 277              		.align	2
 278              	.LC3:
 279 0000 64656661 		.ascii	"defaultTask\000"
 279      756C7454 
 279      61736B00 
 280              		.text
 281              	.Letext0:
 282              		.file 3 "/opt/gcc-arm-none-eabi-7-2018-q2-update/arm-none-eabi/include/machine/_default_types.h"
 283              		.file 4 "/opt/gcc-arm-none-eabi-7-2018-q2-update/arm-none-eabi/include/sys/_stdint.h"
 284              		.file 5 "Drivers/CMSIS/Device/ST/STM32F0xx/Include/system_stm32f0xx.h"
 285              		.file 6 "Drivers/CMSIS/Device/ST/STM32F0xx/Include/stm32f091xc.h"
 286              		.file 7 "Drivers/STM32F0xx_HAL_Driver/Inc/stm32f0xx_hal_def.h"
 287              		.file 8 "Drivers/STM32F0xx_HAL_Driver/Inc/stm32f0xx_hal_rcc.h"
 288              		.file 9 "Drivers/STM32F0xx_HAL_Driver/Inc/stm32f0xx_hal_dma.h"
 289              		.file 10 "Drivers/STM32F0xx_HAL_Driver/Inc/stm32f0xx_hal_tim.h"
 290              		.file 11 "Drivers/STM32F0xx_HAL_Driver/Inc/stm32f0xx_hal.h"
 291              		.file 12 "Middlewares/Third_Party/FreeRTOS/Source/CMSIS_RTOS_V2/cmsis_os2.h"
 292              		.file 13 "<built-in>"
ARM GAS  /tmp/ccP8wpCr.s 			page 13

