ARM GAS  /tmp/ccZ8HXST.s 			page 1


   1              		.cpu cortex-m0
   2              		.eabi_attribute 20, 1
   3              		.eabi_attribute 21, 1
   4              		.eabi_attribute 23, 3
   5              		.eabi_attribute 24, 1
   6              		.eabi_attribute 25, 1
   7              		.eabi_attribute 26, 1
   8              		.eabi_attribute 30, 1
   9              		.eabi_attribute 34, 0
  10              		.eabi_attribute 18, 4
  11              		.file	"port.c"
  12              		.text
  13              	.Ltext0:
  14              		.cfi_sections	.debug_frame
  15              		.section	.text.prvTaskExitError,"ax",%progbits
  16              		.align	1
  17              		.syntax unified
  18              		.code	16
  19              		.thumb_func
  20              		.fpu softvfp
  22              	prvTaskExitError:
  23              	.LFB1:
  24              		.file 1 "Middlewares/Third_Party/FreeRTOS/Source/portable/GCC/ARM_CM0/port.c"
   1:Middlewares/Third_Party/FreeRTOS/Source/portable/GCC/ARM_CM0/port.c **** /*
   2:Middlewares/Third_Party/FreeRTOS/Source/portable/GCC/ARM_CM0/port.c ****  * FreeRTOS Kernel V10.0.1
   3:Middlewares/Third_Party/FreeRTOS/Source/portable/GCC/ARM_CM0/port.c ****  * Copyright (C) 2017 Amazon.com, Inc. or its affiliates.  All Rights Reserved.
   4:Middlewares/Third_Party/FreeRTOS/Source/portable/GCC/ARM_CM0/port.c ****  *
   5:Middlewares/Third_Party/FreeRTOS/Source/portable/GCC/ARM_CM0/port.c ****  * Permission is hereby granted, free of charge, to any person obtaining a copy of
   6:Middlewares/Third_Party/FreeRTOS/Source/portable/GCC/ARM_CM0/port.c ****  * this software and associated documentation files (the "Software"), to deal in
   7:Middlewares/Third_Party/FreeRTOS/Source/portable/GCC/ARM_CM0/port.c ****  * the Software without restriction, including without limitation the rights to
   8:Middlewares/Third_Party/FreeRTOS/Source/portable/GCC/ARM_CM0/port.c ****  * use, copy, modify, merge, publish, distribute, sublicense, and/or sell copies of
   9:Middlewares/Third_Party/FreeRTOS/Source/portable/GCC/ARM_CM0/port.c ****  * the Software, and to permit persons to whom the Software is furnished to do so,
  10:Middlewares/Third_Party/FreeRTOS/Source/portable/GCC/ARM_CM0/port.c ****  * subject to the following conditions:
  11:Middlewares/Third_Party/FreeRTOS/Source/portable/GCC/ARM_CM0/port.c ****  *
  12:Middlewares/Third_Party/FreeRTOS/Source/portable/GCC/ARM_CM0/port.c ****  * The above copyright notice and this permission notice shall be included in all
  13:Middlewares/Third_Party/FreeRTOS/Source/portable/GCC/ARM_CM0/port.c ****  * copies or substantial portions of the Software.
  14:Middlewares/Third_Party/FreeRTOS/Source/portable/GCC/ARM_CM0/port.c ****  *
  15:Middlewares/Third_Party/FreeRTOS/Source/portable/GCC/ARM_CM0/port.c ****  * THE SOFTWARE IS PROVIDED "AS IS", WITHOUT WARRANTY OF ANY KIND, EXPRESS OR
  16:Middlewares/Third_Party/FreeRTOS/Source/portable/GCC/ARM_CM0/port.c ****  * IMPLIED, INCLUDING BUT NOT LIMITED TO THE WARRANTIES OF MERCHANTABILITY, FITNESS
  17:Middlewares/Third_Party/FreeRTOS/Source/portable/GCC/ARM_CM0/port.c ****  * FOR A PARTICULAR PURPOSE AND NONINFRINGEMENT. IN NO EVENT SHALL THE AUTHORS OR
  18:Middlewares/Third_Party/FreeRTOS/Source/portable/GCC/ARM_CM0/port.c ****  * COPYRIGHT HOLDERS BE LIABLE FOR ANY CLAIM, DAMAGES OR OTHER LIABILITY, WHETHER
  19:Middlewares/Third_Party/FreeRTOS/Source/portable/GCC/ARM_CM0/port.c ****  * IN AN ACTION OF CONTRACT, TORT OR OTHERWISE, ARISING FROM, OUT OF OR IN
  20:Middlewares/Third_Party/FreeRTOS/Source/portable/GCC/ARM_CM0/port.c ****  * CONNECTION WITH THE SOFTWARE OR THE USE OR OTHER DEALINGS IN THE SOFTWARE.
  21:Middlewares/Third_Party/FreeRTOS/Source/portable/GCC/ARM_CM0/port.c ****  *
  22:Middlewares/Third_Party/FreeRTOS/Source/portable/GCC/ARM_CM0/port.c ****  * http://www.FreeRTOS.org
  23:Middlewares/Third_Party/FreeRTOS/Source/portable/GCC/ARM_CM0/port.c ****  * http://aws.amazon.com/freertos
  24:Middlewares/Third_Party/FreeRTOS/Source/portable/GCC/ARM_CM0/port.c ****  *
  25:Middlewares/Third_Party/FreeRTOS/Source/portable/GCC/ARM_CM0/port.c ****  * 1 tab == 4 spaces!
  26:Middlewares/Third_Party/FreeRTOS/Source/portable/GCC/ARM_CM0/port.c ****  */
  27:Middlewares/Third_Party/FreeRTOS/Source/portable/GCC/ARM_CM0/port.c **** 
  28:Middlewares/Third_Party/FreeRTOS/Source/portable/GCC/ARM_CM0/port.c **** /*-----------------------------------------------------------
  29:Middlewares/Third_Party/FreeRTOS/Source/portable/GCC/ARM_CM0/port.c ****  * Implementation of functions defined in portable.h for the ARM CM0 port.
  30:Middlewares/Third_Party/FreeRTOS/Source/portable/GCC/ARM_CM0/port.c ****  *----------------------------------------------------------*/
  31:Middlewares/Third_Party/FreeRTOS/Source/portable/GCC/ARM_CM0/port.c **** 
  32:Middlewares/Third_Party/FreeRTOS/Source/portable/GCC/ARM_CM0/port.c **** /* Scheduler includes. */
  33:Middlewares/Third_Party/FreeRTOS/Source/portable/GCC/ARM_CM0/port.c **** #include "FreeRTOS.h"
  34:Middlewares/Third_Party/FreeRTOS/Source/portable/GCC/ARM_CM0/port.c **** #include "task.h"
ARM GAS  /tmp/ccZ8HXST.s 			page 2


  35:Middlewares/Third_Party/FreeRTOS/Source/portable/GCC/ARM_CM0/port.c **** 
  36:Middlewares/Third_Party/FreeRTOS/Source/portable/GCC/ARM_CM0/port.c **** #ifndef configSYSTICK_CLOCK_HZ
  37:Middlewares/Third_Party/FreeRTOS/Source/portable/GCC/ARM_CM0/port.c **** 	#define configSYSTICK_CLOCK_HZ configCPU_CLOCK_HZ
  38:Middlewares/Third_Party/FreeRTOS/Source/portable/GCC/ARM_CM0/port.c **** #endif
  39:Middlewares/Third_Party/FreeRTOS/Source/portable/GCC/ARM_CM0/port.c **** 
  40:Middlewares/Third_Party/FreeRTOS/Source/portable/GCC/ARM_CM0/port.c **** /* Constants required to manipulate the NVIC. */
  41:Middlewares/Third_Party/FreeRTOS/Source/portable/GCC/ARM_CM0/port.c **** #define portNVIC_SYSTICK_CTRL		(* ( ( volatile uint32_t *) 0xe000e010 ) )
  42:Middlewares/Third_Party/FreeRTOS/Source/portable/GCC/ARM_CM0/port.c **** #define portNVIC_SYSTICK_LOAD		(* ( ( volatile uint32_t *) 0xe000e014 ) )
  43:Middlewares/Third_Party/FreeRTOS/Source/portable/GCC/ARM_CM0/port.c **** #define portNVIC_SYSTICK_CURRENT_VALUE	(* ( ( volatile uint32_t * ) 0xe000e018 ))
  44:Middlewares/Third_Party/FreeRTOS/Source/portable/GCC/ARM_CM0/port.c **** #define portNVIC_INT_CTRL				( ( volatile uint32_t *) 0xe000ed04 )
  45:Middlewares/Third_Party/FreeRTOS/Source/portable/GCC/ARM_CM0/port.c **** #define portNVIC_SYSPRI2				( ( volatile uint32_t *) 0xe000ed20 )
  46:Middlewares/Third_Party/FreeRTOS/Source/portable/GCC/ARM_CM0/port.c **** #define portNVIC_SYSTICK_CLK			0x00000004
  47:Middlewares/Third_Party/FreeRTOS/Source/portable/GCC/ARM_CM0/port.c **** #define portNVIC_SYSTICK_INT			0x00000002
  48:Middlewares/Third_Party/FreeRTOS/Source/portable/GCC/ARM_CM0/port.c **** #define portNVIC_SYSTICK_ENABLE			0x00000001
  49:Middlewares/Third_Party/FreeRTOS/Source/portable/GCC/ARM_CM0/port.c **** #define portNVIC_SYSTICK_COUNT_FLAG	( 1UL << 16UL )
  50:Middlewares/Third_Party/FreeRTOS/Source/portable/GCC/ARM_CM0/port.c **** #define portNVIC_PENDSVSET				0x10000000
  51:Middlewares/Third_Party/FreeRTOS/Source/portable/GCC/ARM_CM0/port.c **** #define portMIN_INTERRUPT_PRIORITY		( 255UL )
  52:Middlewares/Third_Party/FreeRTOS/Source/portable/GCC/ARM_CM0/port.c **** #define portNVIC_PENDSV_PRI				( portMIN_INTERRUPT_PRIORITY << 16UL )
  53:Middlewares/Third_Party/FreeRTOS/Source/portable/GCC/ARM_CM0/port.c **** #define portNVIC_SYSTICK_PRI			( portMIN_INTERRUPT_PRIORITY << 24UL )
  54:Middlewares/Third_Party/FreeRTOS/Source/portable/GCC/ARM_CM0/port.c **** 
  55:Middlewares/Third_Party/FreeRTOS/Source/portable/GCC/ARM_CM0/port.c **** /* Constants required to set up the initial stack. */
  56:Middlewares/Third_Party/FreeRTOS/Source/portable/GCC/ARM_CM0/port.c **** #define portINITIAL_XPSR			( 0x01000000 )
  57:Middlewares/Third_Party/FreeRTOS/Source/portable/GCC/ARM_CM0/port.c **** 
  58:Middlewares/Third_Party/FreeRTOS/Source/portable/GCC/ARM_CM0/port.c **** /* The systick is a 24-bit counter. */
  59:Middlewares/Third_Party/FreeRTOS/Source/portable/GCC/ARM_CM0/port.c **** #define portMAX_24_BIT_NUMBER				( 0xffffffUL )
  60:Middlewares/Third_Party/FreeRTOS/Source/portable/GCC/ARM_CM0/port.c **** 
  61:Middlewares/Third_Party/FreeRTOS/Source/portable/GCC/ARM_CM0/port.c **** /* A fiddle factor to estimate the number of SysTick counts that would have
  62:Middlewares/Third_Party/FreeRTOS/Source/portable/GCC/ARM_CM0/port.c **** occurred while the SysTick counter is stopped during tickless idle
  63:Middlewares/Third_Party/FreeRTOS/Source/portable/GCC/ARM_CM0/port.c **** calculations. */
  64:Middlewares/Third_Party/FreeRTOS/Source/portable/GCC/ARM_CM0/port.c **** #define portMISSED_COUNTS_FACTOR			( 45UL )
  65:Middlewares/Third_Party/FreeRTOS/Source/portable/GCC/ARM_CM0/port.c **** 
  66:Middlewares/Third_Party/FreeRTOS/Source/portable/GCC/ARM_CM0/port.c **** /* Let the user override the pre-loading of the initial LR with the address of
  67:Middlewares/Third_Party/FreeRTOS/Source/portable/GCC/ARM_CM0/port.c **** prvTaskExitError() in case it messes up unwinding of the stack in the
  68:Middlewares/Third_Party/FreeRTOS/Source/portable/GCC/ARM_CM0/port.c **** debugger. */
  69:Middlewares/Third_Party/FreeRTOS/Source/portable/GCC/ARM_CM0/port.c **** #ifdef configTASK_RETURN_ADDRESS
  70:Middlewares/Third_Party/FreeRTOS/Source/portable/GCC/ARM_CM0/port.c **** 	#define portTASK_RETURN_ADDRESS	configTASK_RETURN_ADDRESS
  71:Middlewares/Third_Party/FreeRTOS/Source/portable/GCC/ARM_CM0/port.c **** #else
  72:Middlewares/Third_Party/FreeRTOS/Source/portable/GCC/ARM_CM0/port.c **** 	#define portTASK_RETURN_ADDRESS	prvTaskExitError
  73:Middlewares/Third_Party/FreeRTOS/Source/portable/GCC/ARM_CM0/port.c **** #endif
  74:Middlewares/Third_Party/FreeRTOS/Source/portable/GCC/ARM_CM0/port.c **** 
  75:Middlewares/Third_Party/FreeRTOS/Source/portable/GCC/ARM_CM0/port.c **** /*
  76:Middlewares/Third_Party/FreeRTOS/Source/portable/GCC/ARM_CM0/port.c ****  * Setup the timer to generate the tick interrupts.
  77:Middlewares/Third_Party/FreeRTOS/Source/portable/GCC/ARM_CM0/port.c ****  */
  78:Middlewares/Third_Party/FreeRTOS/Source/portable/GCC/ARM_CM0/port.c **** static void prvSetupTimerInterrupt( void );
  79:Middlewares/Third_Party/FreeRTOS/Source/portable/GCC/ARM_CM0/port.c **** 
  80:Middlewares/Third_Party/FreeRTOS/Source/portable/GCC/ARM_CM0/port.c **** /*
  81:Middlewares/Third_Party/FreeRTOS/Source/portable/GCC/ARM_CM0/port.c ****  * Exception handlers.
  82:Middlewares/Third_Party/FreeRTOS/Source/portable/GCC/ARM_CM0/port.c ****  */
  83:Middlewares/Third_Party/FreeRTOS/Source/portable/GCC/ARM_CM0/port.c **** void xPortPendSVHandler( void ) __attribute__ (( naked ));
  84:Middlewares/Third_Party/FreeRTOS/Source/portable/GCC/ARM_CM0/port.c **** void xPortSysTickHandler( void );
  85:Middlewares/Third_Party/FreeRTOS/Source/portable/GCC/ARM_CM0/port.c **** void vPortSVCHandler( void );
  86:Middlewares/Third_Party/FreeRTOS/Source/portable/GCC/ARM_CM0/port.c **** 
  87:Middlewares/Third_Party/FreeRTOS/Source/portable/GCC/ARM_CM0/port.c **** /*
  88:Middlewares/Third_Party/FreeRTOS/Source/portable/GCC/ARM_CM0/port.c ****  * Start first task is a separate function so it can be tested in isolation.
  89:Middlewares/Third_Party/FreeRTOS/Source/portable/GCC/ARM_CM0/port.c ****  */
  90:Middlewares/Third_Party/FreeRTOS/Source/portable/GCC/ARM_CM0/port.c **** static void vPortStartFirstTask( void ) __attribute__ (( naked ));
  91:Middlewares/Third_Party/FreeRTOS/Source/portable/GCC/ARM_CM0/port.c **** 
ARM GAS  /tmp/ccZ8HXST.s 			page 3


  92:Middlewares/Third_Party/FreeRTOS/Source/portable/GCC/ARM_CM0/port.c **** /*
  93:Middlewares/Third_Party/FreeRTOS/Source/portable/GCC/ARM_CM0/port.c ****  * Used to catch tasks that attempt to return from their implementing function.
  94:Middlewares/Third_Party/FreeRTOS/Source/portable/GCC/ARM_CM0/port.c ****  */
  95:Middlewares/Third_Party/FreeRTOS/Source/portable/GCC/ARM_CM0/port.c **** static void prvTaskExitError( void );
  96:Middlewares/Third_Party/FreeRTOS/Source/portable/GCC/ARM_CM0/port.c **** 
  97:Middlewares/Third_Party/FreeRTOS/Source/portable/GCC/ARM_CM0/port.c **** /*-----------------------------------------------------------*/
  98:Middlewares/Third_Party/FreeRTOS/Source/portable/GCC/ARM_CM0/port.c **** 
  99:Middlewares/Third_Party/FreeRTOS/Source/portable/GCC/ARM_CM0/port.c **** /* Each task maintains its own interrupt status in the critical nesting
 100:Middlewares/Third_Party/FreeRTOS/Source/portable/GCC/ARM_CM0/port.c **** variable. */
 101:Middlewares/Third_Party/FreeRTOS/Source/portable/GCC/ARM_CM0/port.c **** static UBaseType_t uxCriticalNesting = 0xaaaaaaaa;
 102:Middlewares/Third_Party/FreeRTOS/Source/portable/GCC/ARM_CM0/port.c **** 
 103:Middlewares/Third_Party/FreeRTOS/Source/portable/GCC/ARM_CM0/port.c **** /*-----------------------------------------------------------*/
 104:Middlewares/Third_Party/FreeRTOS/Source/portable/GCC/ARM_CM0/port.c **** 
 105:Middlewares/Third_Party/FreeRTOS/Source/portable/GCC/ARM_CM0/port.c **** /*
 106:Middlewares/Third_Party/FreeRTOS/Source/portable/GCC/ARM_CM0/port.c ****  * The number of SysTick increments that make up one tick period.
 107:Middlewares/Third_Party/FreeRTOS/Source/portable/GCC/ARM_CM0/port.c ****  */
 108:Middlewares/Third_Party/FreeRTOS/Source/portable/GCC/ARM_CM0/port.c **** #if configUSE_TICKLESS_IDLE == 1
 109:Middlewares/Third_Party/FreeRTOS/Source/portable/GCC/ARM_CM0/port.c **** 	static unsigned long ulTimerCountsForOneTick = 0;
 110:Middlewares/Third_Party/FreeRTOS/Source/portable/GCC/ARM_CM0/port.c **** #endif /* configUSE_TICKLESS_IDLE */
 111:Middlewares/Third_Party/FreeRTOS/Source/portable/GCC/ARM_CM0/port.c **** 
 112:Middlewares/Third_Party/FreeRTOS/Source/portable/GCC/ARM_CM0/port.c **** /*
 113:Middlewares/Third_Party/FreeRTOS/Source/portable/GCC/ARM_CM0/port.c ****  * The maximum number of tick periods that can be suppressed is limited by the
 114:Middlewares/Third_Party/FreeRTOS/Source/portable/GCC/ARM_CM0/port.c ****  * 24 bit resolution of the SysTick timer.
 115:Middlewares/Third_Party/FreeRTOS/Source/portable/GCC/ARM_CM0/port.c ****  */
 116:Middlewares/Third_Party/FreeRTOS/Source/portable/GCC/ARM_CM0/port.c **** #if configUSE_TICKLESS_IDLE == 1
 117:Middlewares/Third_Party/FreeRTOS/Source/portable/GCC/ARM_CM0/port.c **** 	static unsigned long xMaximumPossibleSuppressedTicks = 0;
 118:Middlewares/Third_Party/FreeRTOS/Source/portable/GCC/ARM_CM0/port.c **** #endif /* configUSE_TICKLESS_IDLE */
 119:Middlewares/Third_Party/FreeRTOS/Source/portable/GCC/ARM_CM0/port.c **** 
 120:Middlewares/Third_Party/FreeRTOS/Source/portable/GCC/ARM_CM0/port.c **** /*
 121:Middlewares/Third_Party/FreeRTOS/Source/portable/GCC/ARM_CM0/port.c ****  * Compensate for the CPU cycles that pass while the SysTick is stopped (low
 122:Middlewares/Third_Party/FreeRTOS/Source/portable/GCC/ARM_CM0/port.c ****  * power functionality only.
 123:Middlewares/Third_Party/FreeRTOS/Source/portable/GCC/ARM_CM0/port.c ****  */
 124:Middlewares/Third_Party/FreeRTOS/Source/portable/GCC/ARM_CM0/port.c **** #if configUSE_TICKLESS_IDLE == 1
 125:Middlewares/Third_Party/FreeRTOS/Source/portable/GCC/ARM_CM0/port.c **** 	static unsigned long ulStoppedTimerCompensation = 0;
 126:Middlewares/Third_Party/FreeRTOS/Source/portable/GCC/ARM_CM0/port.c **** #endif /* configUSE_TICKLESS_IDLE */
 127:Middlewares/Third_Party/FreeRTOS/Source/portable/GCC/ARM_CM0/port.c **** 
 128:Middlewares/Third_Party/FreeRTOS/Source/portable/GCC/ARM_CM0/port.c **** /*-----------------------------------------------------------*/
 129:Middlewares/Third_Party/FreeRTOS/Source/portable/GCC/ARM_CM0/port.c **** 
 130:Middlewares/Third_Party/FreeRTOS/Source/portable/GCC/ARM_CM0/port.c **** /*
 131:Middlewares/Third_Party/FreeRTOS/Source/portable/GCC/ARM_CM0/port.c ****  * See header file for description.
 132:Middlewares/Third_Party/FreeRTOS/Source/portable/GCC/ARM_CM0/port.c ****  */
 133:Middlewares/Third_Party/FreeRTOS/Source/portable/GCC/ARM_CM0/port.c **** StackType_t *pxPortInitialiseStack( StackType_t *pxTopOfStack, TaskFunction_t pxCode, void *pvParam
 134:Middlewares/Third_Party/FreeRTOS/Source/portable/GCC/ARM_CM0/port.c **** {
 135:Middlewares/Third_Party/FreeRTOS/Source/portable/GCC/ARM_CM0/port.c **** 	/* Simulate the stack frame as it would be created by a context switch
 136:Middlewares/Third_Party/FreeRTOS/Source/portable/GCC/ARM_CM0/port.c **** 	interrupt. */
 137:Middlewares/Third_Party/FreeRTOS/Source/portable/GCC/ARM_CM0/port.c **** 	pxTopOfStack--; /* Offset added to account for the way the MCU uses the stack on entry/exit of int
 138:Middlewares/Third_Party/FreeRTOS/Source/portable/GCC/ARM_CM0/port.c **** 	*pxTopOfStack = portINITIAL_XPSR;	/* xPSR */
 139:Middlewares/Third_Party/FreeRTOS/Source/portable/GCC/ARM_CM0/port.c **** 	pxTopOfStack--;
 140:Middlewares/Third_Party/FreeRTOS/Source/portable/GCC/ARM_CM0/port.c **** 	*pxTopOfStack = ( StackType_t ) pxCode;	/* PC */
 141:Middlewares/Third_Party/FreeRTOS/Source/portable/GCC/ARM_CM0/port.c **** 	pxTopOfStack--;
 142:Middlewares/Third_Party/FreeRTOS/Source/portable/GCC/ARM_CM0/port.c **** 	*pxTopOfStack = ( StackType_t ) portTASK_RETURN_ADDRESS;	/* LR */
 143:Middlewares/Third_Party/FreeRTOS/Source/portable/GCC/ARM_CM0/port.c **** 	pxTopOfStack -= 5;	/* R12, R3, R2 and R1. */
 144:Middlewares/Third_Party/FreeRTOS/Source/portable/GCC/ARM_CM0/port.c **** 	*pxTopOfStack = ( StackType_t ) pvParameters;	/* R0 */
 145:Middlewares/Third_Party/FreeRTOS/Source/portable/GCC/ARM_CM0/port.c **** 	pxTopOfStack -= 8; /* R11..R4. */
 146:Middlewares/Third_Party/FreeRTOS/Source/portable/GCC/ARM_CM0/port.c **** 
 147:Middlewares/Third_Party/FreeRTOS/Source/portable/GCC/ARM_CM0/port.c **** 	return pxTopOfStack;
 148:Middlewares/Third_Party/FreeRTOS/Source/portable/GCC/ARM_CM0/port.c **** }
ARM GAS  /tmp/ccZ8HXST.s 			page 4


 149:Middlewares/Third_Party/FreeRTOS/Source/portable/GCC/ARM_CM0/port.c **** /*-----------------------------------------------------------*/
 150:Middlewares/Third_Party/FreeRTOS/Source/portable/GCC/ARM_CM0/port.c **** 
 151:Middlewares/Third_Party/FreeRTOS/Source/portable/GCC/ARM_CM0/port.c **** static void prvTaskExitError( void )
 152:Middlewares/Third_Party/FreeRTOS/Source/portable/GCC/ARM_CM0/port.c **** {
  25              		.loc 1 152 0
  26              		.cfi_startproc
  27              		@ args = 0, pretend = 0, frame = 8
  28              		@ frame_needed = 0, uses_anonymous_args = 0
  29              		@ link register save eliminated.
  30 0000 82B0     		sub	sp, sp, #8
  31              	.LCFI0:
  32              		.cfi_def_cfa_offset 8
 153:Middlewares/Third_Party/FreeRTOS/Source/portable/GCC/ARM_CM0/port.c **** volatile uint32_t ulDummy = 0UL;
  33              		.loc 1 153 0
  34 0002 0023     		movs	r3, #0
  35 0004 0193     		str	r3, [sp, #4]
 154:Middlewares/Third_Party/FreeRTOS/Source/portable/GCC/ARM_CM0/port.c **** 
 155:Middlewares/Third_Party/FreeRTOS/Source/portable/GCC/ARM_CM0/port.c **** 	/* A function that implements a task must not exit or attempt to return to
 156:Middlewares/Third_Party/FreeRTOS/Source/portable/GCC/ARM_CM0/port.c **** 	its caller as there is nothing to return to.  If a task wants to exit it
 157:Middlewares/Third_Party/FreeRTOS/Source/portable/GCC/ARM_CM0/port.c **** 	should instead call vTaskDelete( NULL ).
 158:Middlewares/Third_Party/FreeRTOS/Source/portable/GCC/ARM_CM0/port.c **** 
 159:Middlewares/Third_Party/FreeRTOS/Source/portable/GCC/ARM_CM0/port.c **** 	Artificially force an assert() to be triggered if configASSERT() is
 160:Middlewares/Third_Party/FreeRTOS/Source/portable/GCC/ARM_CM0/port.c **** 	defined, then stop here so application writers can catch the error. */
 161:Middlewares/Third_Party/FreeRTOS/Source/portable/GCC/ARM_CM0/port.c **** 	configASSERT( uxCriticalNesting == ~0UL );
  36              		.loc 1 161 0
  37 0006 064B     		ldr	r3, .L5
  38 0008 1B68     		ldr	r3, [r3]
  39 000a 0133     		adds	r3, r3, #1
  40 000c 01D0     		beq	.L2
  41              		.loc 1 161 0 is_stmt 0 discriminator 1
  42              		.syntax divided
  43              	@ 161 "Middlewares/Third_Party/FreeRTOS/Source/portable/GCC/ARM_CM0/port.c" 1
  44 000e 72B6     		 cpsid i 
  45              	@ 0 "" 2
  46              		.thumb
  47              		.syntax unified
  48              	.L3:
  49 0010 FEE7     		b	.L3
  50              	.L2:
 162:Middlewares/Third_Party/FreeRTOS/Source/portable/GCC/ARM_CM0/port.c **** 	portDISABLE_INTERRUPTS();
  51              		.loc 1 162 0 is_stmt 1
  52              		.syntax divided
  53              	@ 162 "Middlewares/Third_Party/FreeRTOS/Source/portable/GCC/ARM_CM0/port.c" 1
  54 0012 72B6     		 cpsid i 
  55              	@ 0 "" 2
  56              		.thumb
  57              		.syntax unified
  58              	.L4:
 163:Middlewares/Third_Party/FreeRTOS/Source/portable/GCC/ARM_CM0/port.c **** 	while( ulDummy == 0 )
  59              		.loc 1 163 0 discriminator 1
  60 0014 019B     		ldr	r3, [sp, #4]
  61 0016 002B     		cmp	r3, #0
  62 0018 FCD0     		beq	.L4
 164:Middlewares/Third_Party/FreeRTOS/Source/portable/GCC/ARM_CM0/port.c **** 	{
 165:Middlewares/Third_Party/FreeRTOS/Source/portable/GCC/ARM_CM0/port.c **** 		/* This file calls prvTaskExitError() after the scheduler has been
 166:Middlewares/Third_Party/FreeRTOS/Source/portable/GCC/ARM_CM0/port.c **** 		started to remove a compiler warning about the function being defined
 167:Middlewares/Third_Party/FreeRTOS/Source/portable/GCC/ARM_CM0/port.c **** 		but never called.  ulDummy is used purely to quieten other warnings
ARM GAS  /tmp/ccZ8HXST.s 			page 5


 168:Middlewares/Third_Party/FreeRTOS/Source/portable/GCC/ARM_CM0/port.c **** 		about code appearing after this function is called - making ulDummy
 169:Middlewares/Third_Party/FreeRTOS/Source/portable/GCC/ARM_CM0/port.c **** 		volatile makes the compiler think the function could return and
 170:Middlewares/Third_Party/FreeRTOS/Source/portable/GCC/ARM_CM0/port.c **** 		therefore not output an 'unreachable code' warning for code that appears
 171:Middlewares/Third_Party/FreeRTOS/Source/portable/GCC/ARM_CM0/port.c **** 		after it. */
 172:Middlewares/Third_Party/FreeRTOS/Source/portable/GCC/ARM_CM0/port.c **** 	}
 173:Middlewares/Third_Party/FreeRTOS/Source/portable/GCC/ARM_CM0/port.c **** }
  63              		.loc 1 173 0
  64 001a 02B0     		add	sp, sp, #8
  65              		@ sp needed
  66 001c 7047     		bx	lr
  67              	.L6:
  68 001e C046     		.align	2
  69              	.L5:
  70 0020 00000000 		.word	.LANCHOR0
  71              		.cfi_endproc
  72              	.LFE1:
  74              		.section	.text.vPortStartFirstTask,"ax",%progbits
  75              		.align	1
  76              		.syntax unified
  77              		.code	16
  78              		.thumb_func
  79              		.fpu softvfp
  81              	vPortStartFirstTask:
  82              	.LFB3:
 174:Middlewares/Third_Party/FreeRTOS/Source/portable/GCC/ARM_CM0/port.c **** /*-----------------------------------------------------------*/
 175:Middlewares/Third_Party/FreeRTOS/Source/portable/GCC/ARM_CM0/port.c **** 
 176:Middlewares/Third_Party/FreeRTOS/Source/portable/GCC/ARM_CM0/port.c **** void vPortSVCHandler( void )
 177:Middlewares/Third_Party/FreeRTOS/Source/portable/GCC/ARM_CM0/port.c **** {
 178:Middlewares/Third_Party/FreeRTOS/Source/portable/GCC/ARM_CM0/port.c **** 	/* This function is no longer used, but retained for backward
 179:Middlewares/Third_Party/FreeRTOS/Source/portable/GCC/ARM_CM0/port.c **** 	compatibility. */
 180:Middlewares/Third_Party/FreeRTOS/Source/portable/GCC/ARM_CM0/port.c **** }
 181:Middlewares/Third_Party/FreeRTOS/Source/portable/GCC/ARM_CM0/port.c **** /*-----------------------------------------------------------*/
 182:Middlewares/Third_Party/FreeRTOS/Source/portable/GCC/ARM_CM0/port.c **** 
 183:Middlewares/Third_Party/FreeRTOS/Source/portable/GCC/ARM_CM0/port.c **** void vPortStartFirstTask( void )
 184:Middlewares/Third_Party/FreeRTOS/Source/portable/GCC/ARM_CM0/port.c **** {
  83              		.loc 1 184 0
  84              		.cfi_startproc
  85              		@ Naked Function: prologue and epilogue provided by programmer.
  86              		@ args = 0, pretend = 0, frame = 0
  87              		@ frame_needed = 0, uses_anonymous_args = 0
 185:Middlewares/Third_Party/FreeRTOS/Source/portable/GCC/ARM_CM0/port.c **** 	/* The MSP stack is not reset as, unlike on M3/4 parts, there is no vector
 186:Middlewares/Third_Party/FreeRTOS/Source/portable/GCC/ARM_CM0/port.c **** 	table offset register that can be used to locate the initial stack value.
 187:Middlewares/Third_Party/FreeRTOS/Source/portable/GCC/ARM_CM0/port.c **** 	Not all M0 parts have the application vector table at address 0. */
 188:Middlewares/Third_Party/FreeRTOS/Source/portable/GCC/ARM_CM0/port.c **** 	__asm volatile(
  88              		.loc 1 188 0
  89              		.syntax divided
  90              	@ 188 "Middlewares/Third_Party/FreeRTOS/Source/portable/GCC/ARM_CM0/port.c" 1
  91              			.syntax unified				
  92 0000 0B4A     		ldr  r2, pxCurrentTCBConst2	
  93 0002 1368     		ldr  r3, [r2]				
  94 0004 1868     		ldr  r0, [r3]				
  95 0006 2030     		adds r0, #32					
  96 0008 80F30988 		msr  psp, r0					
  97 000c 0220     		movs r0, #2					
  98 000e 80F31488 		msr  CONTROL, r0				
  99 0012 BFF36F8F 		isb							
 100 0016 3FBC     		pop  {r0-r5}					
ARM GAS  /tmp/ccZ8HXST.s 			page 6


 101 0018 AE46     		mov  lr, r5					
 102 001a 08BC     		pop  {r3}					
 103 001c 04BC     		pop  {r2}					
 104 001e 62B6     		cpsie i						
 105 0020 1847     		bx   r3						
 106              									
 107 0022 C046C046 		.align 4					
 107      C046C046 
 107      C046C046 
 107      C046
 108 0030 00000000 	pxCurrentTCBConst2: .word pxCurrentTCB	  
 109              	@ 0 "" 2
 189:Middlewares/Third_Party/FreeRTOS/Source/portable/GCC/ARM_CM0/port.c **** 	"	.syntax unified				\n"
 190:Middlewares/Third_Party/FreeRTOS/Source/portable/GCC/ARM_CM0/port.c **** 	"	ldr  r2, pxCurrentTCBConst2	\n" /* Obtain location of pxCurrentTCB. */
 191:Middlewares/Third_Party/FreeRTOS/Source/portable/GCC/ARM_CM0/port.c **** 	"	ldr  r3, [r2]				\n"
 192:Middlewares/Third_Party/FreeRTOS/Source/portable/GCC/ARM_CM0/port.c **** 	"	ldr  r0, [r3]				\n" /* The first item in pxCurrentTCB is the task top of stack. */
 193:Middlewares/Third_Party/FreeRTOS/Source/portable/GCC/ARM_CM0/port.c **** 	"	adds r0, #32					\n" /* Discard everything up to r0. */
 194:Middlewares/Third_Party/FreeRTOS/Source/portable/GCC/ARM_CM0/port.c **** 	"	msr  psp, r0					\n" /* This is now the new top of stack to use in the task. */
 195:Middlewares/Third_Party/FreeRTOS/Source/portable/GCC/ARM_CM0/port.c **** 	"	movs r0, #2					\n" /* Switch to the psp stack. */
 196:Middlewares/Third_Party/FreeRTOS/Source/portable/GCC/ARM_CM0/port.c **** 	"	msr  CONTROL, r0				\n"
 197:Middlewares/Third_Party/FreeRTOS/Source/portable/GCC/ARM_CM0/port.c **** 	"	isb							\n"
 198:Middlewares/Third_Party/FreeRTOS/Source/portable/GCC/ARM_CM0/port.c **** 	"	pop  {r0-r5}					\n" /* Pop the registers that are saved automatically. */
 199:Middlewares/Third_Party/FreeRTOS/Source/portable/GCC/ARM_CM0/port.c **** 	"	mov  lr, r5					\n" /* lr is now in r5. */
 200:Middlewares/Third_Party/FreeRTOS/Source/portable/GCC/ARM_CM0/port.c **** 	"	pop  {r3}					\n" /* Return address is now in r3. */
 201:Middlewares/Third_Party/FreeRTOS/Source/portable/GCC/ARM_CM0/port.c **** 	"	pop  {r2}					\n" /* Pop and discard XPSR. */
 202:Middlewares/Third_Party/FreeRTOS/Source/portable/GCC/ARM_CM0/port.c **** 	"	cpsie i						\n" /* The first task has its context and interrupts can be enabled. */
 203:Middlewares/Third_Party/FreeRTOS/Source/portable/GCC/ARM_CM0/port.c **** 	"	bx   r3						\n" /* Finally, jump to the user defined task code. */
 204:Middlewares/Third_Party/FreeRTOS/Source/portable/GCC/ARM_CM0/port.c **** 	"								\n"
 205:Middlewares/Third_Party/FreeRTOS/Source/portable/GCC/ARM_CM0/port.c **** 	"	.align 4					\n"
 206:Middlewares/Third_Party/FreeRTOS/Source/portable/GCC/ARM_CM0/port.c **** 	"pxCurrentTCBConst2: .word pxCurrentTCB	  "
 207:Middlewares/Third_Party/FreeRTOS/Source/portable/GCC/ARM_CM0/port.c **** 				  );
 208:Middlewares/Third_Party/FreeRTOS/Source/portable/GCC/ARM_CM0/port.c **** }
 110              		.loc 1 208 0
 111              		.thumb
 112              		.syntax unified
 113              		.cfi_endproc
 114              	.LFE3:
 116              		.global	__aeabi_uidiv
 117              		.section	.text.prvSetupTimerInterrupt,"ax",%progbits
 118              		.align	1
 119              		.syntax unified
 120              		.code	16
 121              		.thumb_func
 122              		.fpu softvfp
 124              	prvSetupTimerInterrupt:
 125              	.LFB13:
 209:Middlewares/Third_Party/FreeRTOS/Source/portable/GCC/ARM_CM0/port.c **** /*-----------------------------------------------------------*/
 210:Middlewares/Third_Party/FreeRTOS/Source/portable/GCC/ARM_CM0/port.c **** 
 211:Middlewares/Third_Party/FreeRTOS/Source/portable/GCC/ARM_CM0/port.c **** /*
 212:Middlewares/Third_Party/FreeRTOS/Source/portable/GCC/ARM_CM0/port.c ****  * See header file for description.
 213:Middlewares/Third_Party/FreeRTOS/Source/portable/GCC/ARM_CM0/port.c ****  */
 214:Middlewares/Third_Party/FreeRTOS/Source/portable/GCC/ARM_CM0/port.c **** BaseType_t xPortStartScheduler( void )
 215:Middlewares/Third_Party/FreeRTOS/Source/portable/GCC/ARM_CM0/port.c **** {
 216:Middlewares/Third_Party/FreeRTOS/Source/portable/GCC/ARM_CM0/port.c **** 	/* Make PendSV, CallSV and SysTick the same priroity as the kernel. */
 217:Middlewares/Third_Party/FreeRTOS/Source/portable/GCC/ARM_CM0/port.c **** 	*(portNVIC_SYSPRI2) |= portNVIC_PENDSV_PRI;
 218:Middlewares/Third_Party/FreeRTOS/Source/portable/GCC/ARM_CM0/port.c **** 	*(portNVIC_SYSPRI2) |= portNVIC_SYSTICK_PRI;
 219:Middlewares/Third_Party/FreeRTOS/Source/portable/GCC/ARM_CM0/port.c **** 
ARM GAS  /tmp/ccZ8HXST.s 			page 7


 220:Middlewares/Third_Party/FreeRTOS/Source/portable/GCC/ARM_CM0/port.c **** 	/* Start the timer that generates the tick ISR.  Interrupts are disabled
 221:Middlewares/Third_Party/FreeRTOS/Source/portable/GCC/ARM_CM0/port.c **** 	here already. */
 222:Middlewares/Third_Party/FreeRTOS/Source/portable/GCC/ARM_CM0/port.c **** 	prvSetupTimerInterrupt();
 223:Middlewares/Third_Party/FreeRTOS/Source/portable/GCC/ARM_CM0/port.c **** 
 224:Middlewares/Third_Party/FreeRTOS/Source/portable/GCC/ARM_CM0/port.c **** 	/* Initialise the critical nesting count ready for the first task. */
 225:Middlewares/Third_Party/FreeRTOS/Source/portable/GCC/ARM_CM0/port.c **** 	uxCriticalNesting = 0;
 226:Middlewares/Third_Party/FreeRTOS/Source/portable/GCC/ARM_CM0/port.c **** 
 227:Middlewares/Third_Party/FreeRTOS/Source/portable/GCC/ARM_CM0/port.c **** 	/* Start the first task. */
 228:Middlewares/Third_Party/FreeRTOS/Source/portable/GCC/ARM_CM0/port.c **** 	vPortStartFirstTask();
 229:Middlewares/Third_Party/FreeRTOS/Source/portable/GCC/ARM_CM0/port.c **** 
 230:Middlewares/Third_Party/FreeRTOS/Source/portable/GCC/ARM_CM0/port.c **** 	/* Should never get here as the tasks will now be executing!  Call the task
 231:Middlewares/Third_Party/FreeRTOS/Source/portable/GCC/ARM_CM0/port.c **** 	exit error function to prevent compiler warnings about a static function
 232:Middlewares/Third_Party/FreeRTOS/Source/portable/GCC/ARM_CM0/port.c **** 	not being called in the case that the application writer overrides this
 233:Middlewares/Third_Party/FreeRTOS/Source/portable/GCC/ARM_CM0/port.c **** 	functionality by defining configTASK_RETURN_ADDRESS.  Call
 234:Middlewares/Third_Party/FreeRTOS/Source/portable/GCC/ARM_CM0/port.c **** 	vTaskSwitchContext() so link time optimisation does not remove the
 235:Middlewares/Third_Party/FreeRTOS/Source/portable/GCC/ARM_CM0/port.c **** 	symbol. */
 236:Middlewares/Third_Party/FreeRTOS/Source/portable/GCC/ARM_CM0/port.c **** 	vTaskSwitchContext();
 237:Middlewares/Third_Party/FreeRTOS/Source/portable/GCC/ARM_CM0/port.c **** 	prvTaskExitError();
 238:Middlewares/Third_Party/FreeRTOS/Source/portable/GCC/ARM_CM0/port.c **** 
 239:Middlewares/Third_Party/FreeRTOS/Source/portable/GCC/ARM_CM0/port.c **** 	/* Should not get here! */
 240:Middlewares/Third_Party/FreeRTOS/Source/portable/GCC/ARM_CM0/port.c **** 	return 0;
 241:Middlewares/Third_Party/FreeRTOS/Source/portable/GCC/ARM_CM0/port.c **** }
 242:Middlewares/Third_Party/FreeRTOS/Source/portable/GCC/ARM_CM0/port.c **** /*-----------------------------------------------------------*/
 243:Middlewares/Third_Party/FreeRTOS/Source/portable/GCC/ARM_CM0/port.c **** 
 244:Middlewares/Third_Party/FreeRTOS/Source/portable/GCC/ARM_CM0/port.c **** void vPortEndScheduler( void )
 245:Middlewares/Third_Party/FreeRTOS/Source/portable/GCC/ARM_CM0/port.c **** {
 246:Middlewares/Third_Party/FreeRTOS/Source/portable/GCC/ARM_CM0/port.c **** 	/* Not implemented in ports where there is nothing to return to.
 247:Middlewares/Third_Party/FreeRTOS/Source/portable/GCC/ARM_CM0/port.c **** 	Artificially force an assert. */
 248:Middlewares/Third_Party/FreeRTOS/Source/portable/GCC/ARM_CM0/port.c **** 	configASSERT( uxCriticalNesting == 1000UL );
 249:Middlewares/Third_Party/FreeRTOS/Source/portable/GCC/ARM_CM0/port.c **** }
 250:Middlewares/Third_Party/FreeRTOS/Source/portable/GCC/ARM_CM0/port.c **** /*-----------------------------------------------------------*/
 251:Middlewares/Third_Party/FreeRTOS/Source/portable/GCC/ARM_CM0/port.c **** 
 252:Middlewares/Third_Party/FreeRTOS/Source/portable/GCC/ARM_CM0/port.c **** void vPortYield( void )
 253:Middlewares/Third_Party/FreeRTOS/Source/portable/GCC/ARM_CM0/port.c **** {
 254:Middlewares/Third_Party/FreeRTOS/Source/portable/GCC/ARM_CM0/port.c **** 	/* Set a PendSV to request a context switch. */
 255:Middlewares/Third_Party/FreeRTOS/Source/portable/GCC/ARM_CM0/port.c **** 	*( portNVIC_INT_CTRL ) = portNVIC_PENDSVSET;
 256:Middlewares/Third_Party/FreeRTOS/Source/portable/GCC/ARM_CM0/port.c **** 
 257:Middlewares/Third_Party/FreeRTOS/Source/portable/GCC/ARM_CM0/port.c **** 	/* Barriers are normally not required but do ensure the code is completely
 258:Middlewares/Third_Party/FreeRTOS/Source/portable/GCC/ARM_CM0/port.c **** 	within the specified behaviour for the architecture. */
 259:Middlewares/Third_Party/FreeRTOS/Source/portable/GCC/ARM_CM0/port.c **** 	__asm volatile( "dsb" ::: "memory" );
 260:Middlewares/Third_Party/FreeRTOS/Source/portable/GCC/ARM_CM0/port.c **** 	__asm volatile( "isb" );
 261:Middlewares/Third_Party/FreeRTOS/Source/portable/GCC/ARM_CM0/port.c **** }
 262:Middlewares/Third_Party/FreeRTOS/Source/portable/GCC/ARM_CM0/port.c **** /*-----------------------------------------------------------*/
 263:Middlewares/Third_Party/FreeRTOS/Source/portable/GCC/ARM_CM0/port.c **** 
 264:Middlewares/Third_Party/FreeRTOS/Source/portable/GCC/ARM_CM0/port.c **** void vPortEnterCritical( void )
 265:Middlewares/Third_Party/FreeRTOS/Source/portable/GCC/ARM_CM0/port.c **** {
 266:Middlewares/Third_Party/FreeRTOS/Source/portable/GCC/ARM_CM0/port.c ****     portDISABLE_INTERRUPTS();
 267:Middlewares/Third_Party/FreeRTOS/Source/portable/GCC/ARM_CM0/port.c ****     uxCriticalNesting++;
 268:Middlewares/Third_Party/FreeRTOS/Source/portable/GCC/ARM_CM0/port.c **** 	__asm volatile( "dsb" ::: "memory" );
 269:Middlewares/Third_Party/FreeRTOS/Source/portable/GCC/ARM_CM0/port.c **** 	__asm volatile( "isb" );
 270:Middlewares/Third_Party/FreeRTOS/Source/portable/GCC/ARM_CM0/port.c **** }
 271:Middlewares/Third_Party/FreeRTOS/Source/portable/GCC/ARM_CM0/port.c **** /*-----------------------------------------------------------*/
 272:Middlewares/Third_Party/FreeRTOS/Source/portable/GCC/ARM_CM0/port.c **** 
 273:Middlewares/Third_Party/FreeRTOS/Source/portable/GCC/ARM_CM0/port.c **** void vPortExitCritical( void )
 274:Middlewares/Third_Party/FreeRTOS/Source/portable/GCC/ARM_CM0/port.c **** {
 275:Middlewares/Third_Party/FreeRTOS/Source/portable/GCC/ARM_CM0/port.c **** 	configASSERT( uxCriticalNesting );
 276:Middlewares/Third_Party/FreeRTOS/Source/portable/GCC/ARM_CM0/port.c ****     uxCriticalNesting--;
ARM GAS  /tmp/ccZ8HXST.s 			page 8


 277:Middlewares/Third_Party/FreeRTOS/Source/portable/GCC/ARM_CM0/port.c ****     if( uxCriticalNesting == 0 )
 278:Middlewares/Third_Party/FreeRTOS/Source/portable/GCC/ARM_CM0/port.c ****     {
 279:Middlewares/Third_Party/FreeRTOS/Source/portable/GCC/ARM_CM0/port.c ****         portENABLE_INTERRUPTS();
 280:Middlewares/Third_Party/FreeRTOS/Source/portable/GCC/ARM_CM0/port.c ****     }
 281:Middlewares/Third_Party/FreeRTOS/Source/portable/GCC/ARM_CM0/port.c **** }
 282:Middlewares/Third_Party/FreeRTOS/Source/portable/GCC/ARM_CM0/port.c **** /*-----------------------------------------------------------*/
 283:Middlewares/Third_Party/FreeRTOS/Source/portable/GCC/ARM_CM0/port.c **** 
 284:Middlewares/Third_Party/FreeRTOS/Source/portable/GCC/ARM_CM0/port.c **** uint32_t ulSetInterruptMaskFromISR( void )
 285:Middlewares/Third_Party/FreeRTOS/Source/portable/GCC/ARM_CM0/port.c **** {
 286:Middlewares/Third_Party/FreeRTOS/Source/portable/GCC/ARM_CM0/port.c **** 	__asm volatile(
 287:Middlewares/Third_Party/FreeRTOS/Source/portable/GCC/ARM_CM0/port.c **** 					" mrs r0, PRIMASK	\n"
 288:Middlewares/Third_Party/FreeRTOS/Source/portable/GCC/ARM_CM0/port.c **** 					" cpsid i			\n"
 289:Middlewares/Third_Party/FreeRTOS/Source/portable/GCC/ARM_CM0/port.c **** 					" bx lr				  "
 290:Middlewares/Third_Party/FreeRTOS/Source/portable/GCC/ARM_CM0/port.c **** 					::: "memory"
 291:Middlewares/Third_Party/FreeRTOS/Source/portable/GCC/ARM_CM0/port.c **** 				  );
 292:Middlewares/Third_Party/FreeRTOS/Source/portable/GCC/ARM_CM0/port.c **** 
 293:Middlewares/Third_Party/FreeRTOS/Source/portable/GCC/ARM_CM0/port.c **** #if !defined (__ARMCC_VERSION) && (__ARMCC_VERSION >= 6010050)
 294:Middlewares/Third_Party/FreeRTOS/Source/portable/GCC/ARM_CM0/port.c **** 	/* To avoid compiler warnings.  The return statement will nevere be reached,
 295:Middlewares/Third_Party/FreeRTOS/Source/portable/GCC/ARM_CM0/port.c **** 	but some compilers warn if it is not included, while others won't compile if
 296:Middlewares/Third_Party/FreeRTOS/Source/portable/GCC/ARM_CM0/port.c **** 	it is. */
 297:Middlewares/Third_Party/FreeRTOS/Source/portable/GCC/ARM_CM0/port.c **** 	return 0;
 298:Middlewares/Third_Party/FreeRTOS/Source/portable/GCC/ARM_CM0/port.c **** #endif
 299:Middlewares/Third_Party/FreeRTOS/Source/portable/GCC/ARM_CM0/port.c **** }
 300:Middlewares/Third_Party/FreeRTOS/Source/portable/GCC/ARM_CM0/port.c **** /*-----------------------------------------------------------*/
 301:Middlewares/Third_Party/FreeRTOS/Source/portable/GCC/ARM_CM0/port.c **** 
 302:Middlewares/Third_Party/FreeRTOS/Source/portable/GCC/ARM_CM0/port.c **** void vClearInterruptMaskFromISR( __attribute__( ( unused ) ) uint32_t ulMask )
 303:Middlewares/Third_Party/FreeRTOS/Source/portable/GCC/ARM_CM0/port.c **** {
 304:Middlewares/Third_Party/FreeRTOS/Source/portable/GCC/ARM_CM0/port.c **** 	__asm volatile(
 305:Middlewares/Third_Party/FreeRTOS/Source/portable/GCC/ARM_CM0/port.c **** 					" msr PRIMASK, r0	\n"
 306:Middlewares/Third_Party/FreeRTOS/Source/portable/GCC/ARM_CM0/port.c **** 					" bx lr				  "
 307:Middlewares/Third_Party/FreeRTOS/Source/portable/GCC/ARM_CM0/port.c **** 					::: "memory"
 308:Middlewares/Third_Party/FreeRTOS/Source/portable/GCC/ARM_CM0/port.c **** 				  );
 309:Middlewares/Third_Party/FreeRTOS/Source/portable/GCC/ARM_CM0/port.c **** 
 310:Middlewares/Third_Party/FreeRTOS/Source/portable/GCC/ARM_CM0/port.c **** #if !defined (__ARMCC_VERSION) && (__ARMCC_VERSION >= 6010050)
 311:Middlewares/Third_Party/FreeRTOS/Source/portable/GCC/ARM_CM0/port.c **** 	/* Just to avoid compiler warning.  ulMask is used from the asm code but
 312:Middlewares/Third_Party/FreeRTOS/Source/portable/GCC/ARM_CM0/port.c **** 	the compiler can't see that.  Some compilers generate warnings without the
 313:Middlewares/Third_Party/FreeRTOS/Source/portable/GCC/ARM_CM0/port.c **** 	following line, while others generate warnings if the line is included. */
 314:Middlewares/Third_Party/FreeRTOS/Source/portable/GCC/ARM_CM0/port.c **** 	( void ) ulMask;
 315:Middlewares/Third_Party/FreeRTOS/Source/portable/GCC/ARM_CM0/port.c **** #endif
 316:Middlewares/Third_Party/FreeRTOS/Source/portable/GCC/ARM_CM0/port.c **** }
 317:Middlewares/Third_Party/FreeRTOS/Source/portable/GCC/ARM_CM0/port.c **** /*-----------------------------------------------------------*/
 318:Middlewares/Third_Party/FreeRTOS/Source/portable/GCC/ARM_CM0/port.c **** 
 319:Middlewares/Third_Party/FreeRTOS/Source/portable/GCC/ARM_CM0/port.c **** void xPortPendSVHandler( void )
 320:Middlewares/Third_Party/FreeRTOS/Source/portable/GCC/ARM_CM0/port.c **** {
 321:Middlewares/Third_Party/FreeRTOS/Source/portable/GCC/ARM_CM0/port.c **** 	/* This is a naked function. */
 322:Middlewares/Third_Party/FreeRTOS/Source/portable/GCC/ARM_CM0/port.c **** 
 323:Middlewares/Third_Party/FreeRTOS/Source/portable/GCC/ARM_CM0/port.c **** 	__asm volatile
 324:Middlewares/Third_Party/FreeRTOS/Source/portable/GCC/ARM_CM0/port.c **** 	(
 325:Middlewares/Third_Party/FreeRTOS/Source/portable/GCC/ARM_CM0/port.c **** 	"	.syntax unified						\n"
 326:Middlewares/Third_Party/FreeRTOS/Source/portable/GCC/ARM_CM0/port.c **** 	"	mrs r0, psp							\n"
 327:Middlewares/Third_Party/FreeRTOS/Source/portable/GCC/ARM_CM0/port.c **** 	"										\n"
 328:Middlewares/Third_Party/FreeRTOS/Source/portable/GCC/ARM_CM0/port.c **** 	"	ldr	r3, pxCurrentTCBConst			\n" /* Get the location of the current TCB. */
 329:Middlewares/Third_Party/FreeRTOS/Source/portable/GCC/ARM_CM0/port.c **** 	"	ldr	r2, [r3]						\n"
 330:Middlewares/Third_Party/FreeRTOS/Source/portable/GCC/ARM_CM0/port.c **** 	"										\n"
 331:Middlewares/Third_Party/FreeRTOS/Source/portable/GCC/ARM_CM0/port.c **** 	"	subs r0, r0, #32					\n" /* Make space for the remaining low registers. */
 332:Middlewares/Third_Party/FreeRTOS/Source/portable/GCC/ARM_CM0/port.c **** 	"	str r0, [r2]						\n" /* Save the new top of stack. */
 333:Middlewares/Third_Party/FreeRTOS/Source/portable/GCC/ARM_CM0/port.c **** 	"	stmia r0!, {r4-r7}					\n" /* Store the low registers that are not saved automatically. */
ARM GAS  /tmp/ccZ8HXST.s 			page 9


 334:Middlewares/Third_Party/FreeRTOS/Source/portable/GCC/ARM_CM0/port.c **** 	" 	mov r4, r8							\n" /* Store the high registers. */
 335:Middlewares/Third_Party/FreeRTOS/Source/portable/GCC/ARM_CM0/port.c **** 	" 	mov r5, r9							\n"
 336:Middlewares/Third_Party/FreeRTOS/Source/portable/GCC/ARM_CM0/port.c **** 	" 	mov r6, r10							\n"
 337:Middlewares/Third_Party/FreeRTOS/Source/portable/GCC/ARM_CM0/port.c **** 	" 	mov r7, r11							\n"
 338:Middlewares/Third_Party/FreeRTOS/Source/portable/GCC/ARM_CM0/port.c **** 	" 	stmia r0!, {r4-r7}					\n"
 339:Middlewares/Third_Party/FreeRTOS/Source/portable/GCC/ARM_CM0/port.c **** 	"										\n"
 340:Middlewares/Third_Party/FreeRTOS/Source/portable/GCC/ARM_CM0/port.c **** 	"	push {r3, r14}						\n"
 341:Middlewares/Third_Party/FreeRTOS/Source/portable/GCC/ARM_CM0/port.c **** 	"	cpsid i								\n"
 342:Middlewares/Third_Party/FreeRTOS/Source/portable/GCC/ARM_CM0/port.c **** 	"	bl vTaskSwitchContext				\n"
 343:Middlewares/Third_Party/FreeRTOS/Source/portable/GCC/ARM_CM0/port.c **** 	"	cpsie i								\n"
 344:Middlewares/Third_Party/FreeRTOS/Source/portable/GCC/ARM_CM0/port.c **** 	"	pop {r2, r3}						\n" /* lr goes in r3. r2 now holds tcb pointer. */
 345:Middlewares/Third_Party/FreeRTOS/Source/portable/GCC/ARM_CM0/port.c **** 	"										\n"
 346:Middlewares/Third_Party/FreeRTOS/Source/portable/GCC/ARM_CM0/port.c **** 	"	ldr r1, [r2]						\n"
 347:Middlewares/Third_Party/FreeRTOS/Source/portable/GCC/ARM_CM0/port.c **** 	"	ldr r0, [r1]						\n" /* The first item in pxCurrentTCB is the task top of stack. */
 348:Middlewares/Third_Party/FreeRTOS/Source/portable/GCC/ARM_CM0/port.c **** 	"	adds r0, r0, #16					\n" /* Move to the high registers. */
 349:Middlewares/Third_Party/FreeRTOS/Source/portable/GCC/ARM_CM0/port.c **** 	"	ldmia r0!, {r4-r7}					\n" /* Pop the high registers. */
 350:Middlewares/Third_Party/FreeRTOS/Source/portable/GCC/ARM_CM0/port.c **** 	" 	mov r8, r4							\n"
 351:Middlewares/Third_Party/FreeRTOS/Source/portable/GCC/ARM_CM0/port.c **** 	" 	mov r9, r5							\n"
 352:Middlewares/Third_Party/FreeRTOS/Source/portable/GCC/ARM_CM0/port.c **** 	" 	mov r10, r6							\n"
 353:Middlewares/Third_Party/FreeRTOS/Source/portable/GCC/ARM_CM0/port.c **** 	" 	mov r11, r7							\n"
 354:Middlewares/Third_Party/FreeRTOS/Source/portable/GCC/ARM_CM0/port.c **** 	"										\n"
 355:Middlewares/Third_Party/FreeRTOS/Source/portable/GCC/ARM_CM0/port.c **** 	"	msr psp, r0							\n" /* Remember the new top of stack for the task. */
 356:Middlewares/Third_Party/FreeRTOS/Source/portable/GCC/ARM_CM0/port.c **** 	"										\n"
 357:Middlewares/Third_Party/FreeRTOS/Source/portable/GCC/ARM_CM0/port.c **** 	"	subs r0, r0, #32					\n" /* Go back for the low registers that are not automatically restored. *
 358:Middlewares/Third_Party/FreeRTOS/Source/portable/GCC/ARM_CM0/port.c **** 	" 	ldmia r0!, {r4-r7}					\n" /* Pop low registers.  */
 359:Middlewares/Third_Party/FreeRTOS/Source/portable/GCC/ARM_CM0/port.c **** 	"										\n"
 360:Middlewares/Third_Party/FreeRTOS/Source/portable/GCC/ARM_CM0/port.c **** 	"	bx r3								\n"
 361:Middlewares/Third_Party/FreeRTOS/Source/portable/GCC/ARM_CM0/port.c **** 	"										\n"
 362:Middlewares/Third_Party/FreeRTOS/Source/portable/GCC/ARM_CM0/port.c **** 	"	.align 4							\n"
 363:Middlewares/Third_Party/FreeRTOS/Source/portable/GCC/ARM_CM0/port.c **** 	"pxCurrentTCBConst: .word pxCurrentTCB	  "
 364:Middlewares/Third_Party/FreeRTOS/Source/portable/GCC/ARM_CM0/port.c **** 	);
 365:Middlewares/Third_Party/FreeRTOS/Source/portable/GCC/ARM_CM0/port.c **** }
 366:Middlewares/Third_Party/FreeRTOS/Source/portable/GCC/ARM_CM0/port.c **** /*-----------------------------------------------------------*/
 367:Middlewares/Third_Party/FreeRTOS/Source/portable/GCC/ARM_CM0/port.c **** 
 368:Middlewares/Third_Party/FreeRTOS/Source/portable/GCC/ARM_CM0/port.c **** void xPortSysTickHandler( void )
 369:Middlewares/Third_Party/FreeRTOS/Source/portable/GCC/ARM_CM0/port.c **** {
 370:Middlewares/Third_Party/FreeRTOS/Source/portable/GCC/ARM_CM0/port.c **** uint32_t ulPreviousMask;
 371:Middlewares/Third_Party/FreeRTOS/Source/portable/GCC/ARM_CM0/port.c **** 
 372:Middlewares/Third_Party/FreeRTOS/Source/portable/GCC/ARM_CM0/port.c **** 	ulPreviousMask = portSET_INTERRUPT_MASK_FROM_ISR();
 373:Middlewares/Third_Party/FreeRTOS/Source/portable/GCC/ARM_CM0/port.c **** 	{
 374:Middlewares/Third_Party/FreeRTOS/Source/portable/GCC/ARM_CM0/port.c **** 		/* Increment the RTOS tick. */
 375:Middlewares/Third_Party/FreeRTOS/Source/portable/GCC/ARM_CM0/port.c **** 		if( xTaskIncrementTick() != pdFALSE )
 376:Middlewares/Third_Party/FreeRTOS/Source/portable/GCC/ARM_CM0/port.c **** 		{
 377:Middlewares/Third_Party/FreeRTOS/Source/portable/GCC/ARM_CM0/port.c **** 			/* Pend a context switch. */
 378:Middlewares/Third_Party/FreeRTOS/Source/portable/GCC/ARM_CM0/port.c **** 			*(portNVIC_INT_CTRL) = portNVIC_PENDSVSET;
 379:Middlewares/Third_Party/FreeRTOS/Source/portable/GCC/ARM_CM0/port.c **** 		}
 380:Middlewares/Third_Party/FreeRTOS/Source/portable/GCC/ARM_CM0/port.c **** 	}
 381:Middlewares/Third_Party/FreeRTOS/Source/portable/GCC/ARM_CM0/port.c **** 	portCLEAR_INTERRUPT_MASK_FROM_ISR( ulPreviousMask );
 382:Middlewares/Third_Party/FreeRTOS/Source/portable/GCC/ARM_CM0/port.c **** }
 383:Middlewares/Third_Party/FreeRTOS/Source/portable/GCC/ARM_CM0/port.c **** /*-----------------------------------------------------------*/
 384:Middlewares/Third_Party/FreeRTOS/Source/portable/GCC/ARM_CM0/port.c **** 
 385:Middlewares/Third_Party/FreeRTOS/Source/portable/GCC/ARM_CM0/port.c **** #if configUSE_TICKLESS_IDLE == 1
 386:Middlewares/Third_Party/FreeRTOS/Source/portable/GCC/ARM_CM0/port.c **** 
 387:Middlewares/Third_Party/FreeRTOS/Source/portable/GCC/ARM_CM0/port.c **** 	__attribute__((weak)) void vPortSuppressTicksAndSleep( TickType_t xExpectedIdleTime )
 388:Middlewares/Third_Party/FreeRTOS/Source/portable/GCC/ARM_CM0/port.c **** 	{
 389:Middlewares/Third_Party/FreeRTOS/Source/portable/GCC/ARM_CM0/port.c **** 	uint32_t ulReloadValue, ulCompleteTickPeriods, ulCompletedSysTickDecrements, ulSysTickCTRL;
 390:Middlewares/Third_Party/FreeRTOS/Source/portable/GCC/ARM_CM0/port.c **** 	TickType_t xModifiableIdleTime;
ARM GAS  /tmp/ccZ8HXST.s 			page 10


 391:Middlewares/Third_Party/FreeRTOS/Source/portable/GCC/ARM_CM0/port.c **** 
 392:Middlewares/Third_Party/FreeRTOS/Source/portable/GCC/ARM_CM0/port.c **** 		/* Make sure the SysTick reload value does not overflow the counter. */
 393:Middlewares/Third_Party/FreeRTOS/Source/portable/GCC/ARM_CM0/port.c **** 		if( xExpectedIdleTime > xMaximumPossibleSuppressedTicks )
 394:Middlewares/Third_Party/FreeRTOS/Source/portable/GCC/ARM_CM0/port.c **** 		{
 395:Middlewares/Third_Party/FreeRTOS/Source/portable/GCC/ARM_CM0/port.c **** 			xExpectedIdleTime = xMaximumPossibleSuppressedTicks;
 396:Middlewares/Third_Party/FreeRTOS/Source/portable/GCC/ARM_CM0/port.c **** 		}
 397:Middlewares/Third_Party/FreeRTOS/Source/portable/GCC/ARM_CM0/port.c **** 
 398:Middlewares/Third_Party/FreeRTOS/Source/portable/GCC/ARM_CM0/port.c **** 		/* Stop the SysTick momentarily.  The time the SysTick is stopped for
 399:Middlewares/Third_Party/FreeRTOS/Source/portable/GCC/ARM_CM0/port.c **** 		is accounted for as best it can be, but using the tickless mode will
 400:Middlewares/Third_Party/FreeRTOS/Source/portable/GCC/ARM_CM0/port.c **** 		inevitably result in some tiny drift of the time maintained by the
 401:Middlewares/Third_Party/FreeRTOS/Source/portable/GCC/ARM_CM0/port.c **** 		kernel with respect to calendar time. */
 402:Middlewares/Third_Party/FreeRTOS/Source/portable/GCC/ARM_CM0/port.c **** 		portNVIC_SYSTICK_CTRL &= ~portNVIC_SYSTICK_ENABLE;
 403:Middlewares/Third_Party/FreeRTOS/Source/portable/GCC/ARM_CM0/port.c **** 
 404:Middlewares/Third_Party/FreeRTOS/Source/portable/GCC/ARM_CM0/port.c **** 		/* Calculate the reload value required to wait xExpectedIdleTime
 405:Middlewares/Third_Party/FreeRTOS/Source/portable/GCC/ARM_CM0/port.c **** 		tick periods.  -1 is used because this code will execute part way
 406:Middlewares/Third_Party/FreeRTOS/Source/portable/GCC/ARM_CM0/port.c **** 		through one of the tick periods. */
 407:Middlewares/Third_Party/FreeRTOS/Source/portable/GCC/ARM_CM0/port.c **** 		ulReloadValue = portNVIC_SYSTICK_CURRENT_VALUE + ( ulTimerCountsForOneTick * ( xExpectedIdleTime 
 408:Middlewares/Third_Party/FreeRTOS/Source/portable/GCC/ARM_CM0/port.c **** 		if( ulReloadValue > ulStoppedTimerCompensation )
 409:Middlewares/Third_Party/FreeRTOS/Source/portable/GCC/ARM_CM0/port.c **** 		{
 410:Middlewares/Third_Party/FreeRTOS/Source/portable/GCC/ARM_CM0/port.c **** 			ulReloadValue -= ulStoppedTimerCompensation;
 411:Middlewares/Third_Party/FreeRTOS/Source/portable/GCC/ARM_CM0/port.c **** 		}
 412:Middlewares/Third_Party/FreeRTOS/Source/portable/GCC/ARM_CM0/port.c **** 
 413:Middlewares/Third_Party/FreeRTOS/Source/portable/GCC/ARM_CM0/port.c **** 		/* Enter a critical section but don't use the taskENTER_CRITICAL()
 414:Middlewares/Third_Party/FreeRTOS/Source/portable/GCC/ARM_CM0/port.c **** 		method as that will mask interrupts that should exit sleep mode. */
 415:Middlewares/Third_Party/FreeRTOS/Source/portable/GCC/ARM_CM0/port.c **** 		__asm volatile( "cpsid i" );
 416:Middlewares/Third_Party/FreeRTOS/Source/portable/GCC/ARM_CM0/port.c **** 
 417:Middlewares/Third_Party/FreeRTOS/Source/portable/GCC/ARM_CM0/port.c **** 		/* If a context switch is pending or a task is waiting for the scheduler
 418:Middlewares/Third_Party/FreeRTOS/Source/portable/GCC/ARM_CM0/port.c **** 		to be unsuspended then abandon the low power entry. */
 419:Middlewares/Third_Party/FreeRTOS/Source/portable/GCC/ARM_CM0/port.c **** 		if( eTaskConfirmSleepModeStatus() == eAbortSleep )
 420:Middlewares/Third_Party/FreeRTOS/Source/portable/GCC/ARM_CM0/port.c **** 		{
 421:Middlewares/Third_Party/FreeRTOS/Source/portable/GCC/ARM_CM0/port.c **** 			/* Restart from whatever is left in the count register to complete
 422:Middlewares/Third_Party/FreeRTOS/Source/portable/GCC/ARM_CM0/port.c **** 			this tick period. */
 423:Middlewares/Third_Party/FreeRTOS/Source/portable/GCC/ARM_CM0/port.c **** 			portNVIC_SYSTICK_LOAD = portNVIC_SYSTICK_CURRENT_VALUE;
 424:Middlewares/Third_Party/FreeRTOS/Source/portable/GCC/ARM_CM0/port.c **** 
 425:Middlewares/Third_Party/FreeRTOS/Source/portable/GCC/ARM_CM0/port.c **** 			/* Restart SysTick. */
 426:Middlewares/Third_Party/FreeRTOS/Source/portable/GCC/ARM_CM0/port.c **** 			portNVIC_SYSTICK_CTRL |= portNVIC_SYSTICK_ENABLE;
 427:Middlewares/Third_Party/FreeRTOS/Source/portable/GCC/ARM_CM0/port.c **** 
 428:Middlewares/Third_Party/FreeRTOS/Source/portable/GCC/ARM_CM0/port.c **** 			/* Reset the reload register to the value required for normal tick
 429:Middlewares/Third_Party/FreeRTOS/Source/portable/GCC/ARM_CM0/port.c **** 			periods. */
 430:Middlewares/Third_Party/FreeRTOS/Source/portable/GCC/ARM_CM0/port.c **** 			portNVIC_SYSTICK_LOAD = ulTimerCountsForOneTick - 1UL;
 431:Middlewares/Third_Party/FreeRTOS/Source/portable/GCC/ARM_CM0/port.c **** 
 432:Middlewares/Third_Party/FreeRTOS/Source/portable/GCC/ARM_CM0/port.c **** 			/* Re-enable interrupts - see comments above the cpsid instruction()
 433:Middlewares/Third_Party/FreeRTOS/Source/portable/GCC/ARM_CM0/port.c **** 			above. */
 434:Middlewares/Third_Party/FreeRTOS/Source/portable/GCC/ARM_CM0/port.c **** 			__asm volatile( "cpsie i" );
 435:Middlewares/Third_Party/FreeRTOS/Source/portable/GCC/ARM_CM0/port.c **** 		}
 436:Middlewares/Third_Party/FreeRTOS/Source/portable/GCC/ARM_CM0/port.c **** 		else
 437:Middlewares/Third_Party/FreeRTOS/Source/portable/GCC/ARM_CM0/port.c **** 		{
 438:Middlewares/Third_Party/FreeRTOS/Source/portable/GCC/ARM_CM0/port.c **** 			/* Set the new reload value. */
 439:Middlewares/Third_Party/FreeRTOS/Source/portable/GCC/ARM_CM0/port.c **** 			portNVIC_SYSTICK_LOAD = ulReloadValue;
 440:Middlewares/Third_Party/FreeRTOS/Source/portable/GCC/ARM_CM0/port.c **** 
 441:Middlewares/Third_Party/FreeRTOS/Source/portable/GCC/ARM_CM0/port.c **** 			/* Clear the SysTick count flag and set the count value back to
 442:Middlewares/Third_Party/FreeRTOS/Source/portable/GCC/ARM_CM0/port.c **** 			zero. */
 443:Middlewares/Third_Party/FreeRTOS/Source/portable/GCC/ARM_CM0/port.c **** 			portNVIC_SYSTICK_CURRENT_VALUE = 0UL;
 444:Middlewares/Third_Party/FreeRTOS/Source/portable/GCC/ARM_CM0/port.c **** 
 445:Middlewares/Third_Party/FreeRTOS/Source/portable/GCC/ARM_CM0/port.c **** 			/* Restart SysTick. */
 446:Middlewares/Third_Party/FreeRTOS/Source/portable/GCC/ARM_CM0/port.c **** 			portNVIC_SYSTICK_CTRL |= portNVIC_SYSTICK_ENABLE;
 447:Middlewares/Third_Party/FreeRTOS/Source/portable/GCC/ARM_CM0/port.c **** 
ARM GAS  /tmp/ccZ8HXST.s 			page 11


 448:Middlewares/Third_Party/FreeRTOS/Source/portable/GCC/ARM_CM0/port.c **** 			/* Sleep until something happens.  configPRE_SLEEP_PROCESSING() can
 449:Middlewares/Third_Party/FreeRTOS/Source/portable/GCC/ARM_CM0/port.c **** 			set its parameter to 0 to indicate that its implementation contains
 450:Middlewares/Third_Party/FreeRTOS/Source/portable/GCC/ARM_CM0/port.c **** 			its own wait for interrupt or wait for event instruction, and so wfi
 451:Middlewares/Third_Party/FreeRTOS/Source/portable/GCC/ARM_CM0/port.c **** 			should not be executed again.  However, the original expected idle
 452:Middlewares/Third_Party/FreeRTOS/Source/portable/GCC/ARM_CM0/port.c **** 			time variable must remain unmodified, so a copy is taken. */
 453:Middlewares/Third_Party/FreeRTOS/Source/portable/GCC/ARM_CM0/port.c **** 			xModifiableIdleTime = xExpectedIdleTime;
 454:Middlewares/Third_Party/FreeRTOS/Source/portable/GCC/ARM_CM0/port.c **** 			configPRE_SLEEP_PROCESSING( &xModifiableIdleTime );
 455:Middlewares/Third_Party/FreeRTOS/Source/portable/GCC/ARM_CM0/port.c **** 			if( xModifiableIdleTime > 0 )
 456:Middlewares/Third_Party/FreeRTOS/Source/portable/GCC/ARM_CM0/port.c **** 			{
 457:Middlewares/Third_Party/FreeRTOS/Source/portable/GCC/ARM_CM0/port.c **** 				__asm volatile( "dsb" );
 458:Middlewares/Third_Party/FreeRTOS/Source/portable/GCC/ARM_CM0/port.c **** 				__asm volatile( "wfi" );
 459:Middlewares/Third_Party/FreeRTOS/Source/portable/GCC/ARM_CM0/port.c **** 				__asm volatile( "isb" );
 460:Middlewares/Third_Party/FreeRTOS/Source/portable/GCC/ARM_CM0/port.c **** 			}
 461:Middlewares/Third_Party/FreeRTOS/Source/portable/GCC/ARM_CM0/port.c **** 			configPOST_SLEEP_PROCESSING( &xExpectedIdleTime );
 462:Middlewares/Third_Party/FreeRTOS/Source/portable/GCC/ARM_CM0/port.c **** 
 463:Middlewares/Third_Party/FreeRTOS/Source/portable/GCC/ARM_CM0/port.c **** 			/* Stop SysTick.  Again, the time the SysTick is stopped for is
 464:Middlewares/Third_Party/FreeRTOS/Source/portable/GCC/ARM_CM0/port.c **** 			accounted for as best it can be, but using the tickless mode will
 465:Middlewares/Third_Party/FreeRTOS/Source/portable/GCC/ARM_CM0/port.c **** 			inevitably result in some tiny drift of the time maintained by the
 466:Middlewares/Third_Party/FreeRTOS/Source/portable/GCC/ARM_CM0/port.c **** 			kernel with respect to calendar time. */
 467:Middlewares/Third_Party/FreeRTOS/Source/portable/GCC/ARM_CM0/port.c **** 			ulSysTickCTRL = portNVIC_SYSTICK_CTRL;
 468:Middlewares/Third_Party/FreeRTOS/Source/portable/GCC/ARM_CM0/port.c **** 			portNVIC_SYSTICK_CTRL = ( ulSysTickCTRL & ~portNVIC_SYSTICK_ENABLE );
 469:Middlewares/Third_Party/FreeRTOS/Source/portable/GCC/ARM_CM0/port.c **** 
 470:Middlewares/Third_Party/FreeRTOS/Source/portable/GCC/ARM_CM0/port.c **** 			/* Re-enable interrupts - see comments above the cpsid instruction()
 471:Middlewares/Third_Party/FreeRTOS/Source/portable/GCC/ARM_CM0/port.c **** 			above. */
 472:Middlewares/Third_Party/FreeRTOS/Source/portable/GCC/ARM_CM0/port.c **** 			__asm volatile( "cpsie i" );
 473:Middlewares/Third_Party/FreeRTOS/Source/portable/GCC/ARM_CM0/port.c **** 
 474:Middlewares/Third_Party/FreeRTOS/Source/portable/GCC/ARM_CM0/port.c **** 			if( ( ulSysTickCTRL & portNVIC_SYSTICK_COUNT_FLAG ) != 0 )
 475:Middlewares/Third_Party/FreeRTOS/Source/portable/GCC/ARM_CM0/port.c **** 			{
 476:Middlewares/Third_Party/FreeRTOS/Source/portable/GCC/ARM_CM0/port.c **** 				uint32_t ulCalculatedLoadValue;
 477:Middlewares/Third_Party/FreeRTOS/Source/portable/GCC/ARM_CM0/port.c **** 
 478:Middlewares/Third_Party/FreeRTOS/Source/portable/GCC/ARM_CM0/port.c **** 				/* The tick interrupt has already executed, and the SysTick
 479:Middlewares/Third_Party/FreeRTOS/Source/portable/GCC/ARM_CM0/port.c **** 				count reloaded with ulReloadValue.  Reset the
 480:Middlewares/Third_Party/FreeRTOS/Source/portable/GCC/ARM_CM0/port.c **** 				portNVIC_SYSTICK_LOAD with whatever remains of this tick
 481:Middlewares/Third_Party/FreeRTOS/Source/portable/GCC/ARM_CM0/port.c **** 				period. */
 482:Middlewares/Third_Party/FreeRTOS/Source/portable/GCC/ARM_CM0/port.c **** 				ulCalculatedLoadValue = ( ulTimerCountsForOneTick - 1UL ) - ( ulReloadValue - portNVIC_SYSTICK_
 483:Middlewares/Third_Party/FreeRTOS/Source/portable/GCC/ARM_CM0/port.c **** 
 484:Middlewares/Third_Party/FreeRTOS/Source/portable/GCC/ARM_CM0/port.c **** 				/* Don't allow a tiny value, or values that have somehow
 485:Middlewares/Third_Party/FreeRTOS/Source/portable/GCC/ARM_CM0/port.c **** 				underflowed because the post sleep hook did something
 486:Middlewares/Third_Party/FreeRTOS/Source/portable/GCC/ARM_CM0/port.c **** 				that took too long. */
 487:Middlewares/Third_Party/FreeRTOS/Source/portable/GCC/ARM_CM0/port.c **** 				if( ( ulCalculatedLoadValue < ulStoppedTimerCompensation ) || ( ulCalculatedLoadValue > ulTimer
 488:Middlewares/Third_Party/FreeRTOS/Source/portable/GCC/ARM_CM0/port.c **** 				{
 489:Middlewares/Third_Party/FreeRTOS/Source/portable/GCC/ARM_CM0/port.c **** 					ulCalculatedLoadValue = ( ulTimerCountsForOneTick - 1UL );
 490:Middlewares/Third_Party/FreeRTOS/Source/portable/GCC/ARM_CM0/port.c **** 				}
 491:Middlewares/Third_Party/FreeRTOS/Source/portable/GCC/ARM_CM0/port.c **** 
 492:Middlewares/Third_Party/FreeRTOS/Source/portable/GCC/ARM_CM0/port.c **** 				portNVIC_SYSTICK_LOAD = ulCalculatedLoadValue;
 493:Middlewares/Third_Party/FreeRTOS/Source/portable/GCC/ARM_CM0/port.c **** 
 494:Middlewares/Third_Party/FreeRTOS/Source/portable/GCC/ARM_CM0/port.c **** 				/* The tick interrupt handler will already have pended the tick
 495:Middlewares/Third_Party/FreeRTOS/Source/portable/GCC/ARM_CM0/port.c **** 				processing in the kernel.  As the pending tick will be
 496:Middlewares/Third_Party/FreeRTOS/Source/portable/GCC/ARM_CM0/port.c **** 				processed as soon as this function exits, the tick value
 497:Middlewares/Third_Party/FreeRTOS/Source/portable/GCC/ARM_CM0/port.c **** 				maintained by the tick is stepped forward by one less than the
 498:Middlewares/Third_Party/FreeRTOS/Source/portable/GCC/ARM_CM0/port.c **** 				time spent waiting. */
 499:Middlewares/Third_Party/FreeRTOS/Source/portable/GCC/ARM_CM0/port.c **** 				ulCompleteTickPeriods = xExpectedIdleTime - 1UL;
 500:Middlewares/Third_Party/FreeRTOS/Source/portable/GCC/ARM_CM0/port.c **** 			}
 501:Middlewares/Third_Party/FreeRTOS/Source/portable/GCC/ARM_CM0/port.c **** 			else
 502:Middlewares/Third_Party/FreeRTOS/Source/portable/GCC/ARM_CM0/port.c **** 			{
 503:Middlewares/Third_Party/FreeRTOS/Source/portable/GCC/ARM_CM0/port.c **** 				/* Something other than the tick interrupt ended the sleep.
 504:Middlewares/Third_Party/FreeRTOS/Source/portable/GCC/ARM_CM0/port.c **** 				Work out how long the sleep lasted rounded to complete tick
ARM GAS  /tmp/ccZ8HXST.s 			page 12


 505:Middlewares/Third_Party/FreeRTOS/Source/portable/GCC/ARM_CM0/port.c **** 				periods (not the ulReload value which accounted for part
 506:Middlewares/Third_Party/FreeRTOS/Source/portable/GCC/ARM_CM0/port.c **** 				ticks). */
 507:Middlewares/Third_Party/FreeRTOS/Source/portable/GCC/ARM_CM0/port.c **** 				ulCompletedSysTickDecrements = ( xExpectedIdleTime * ulTimerCountsForOneTick ) - portNVIC_SYSTI
 508:Middlewares/Third_Party/FreeRTOS/Source/portable/GCC/ARM_CM0/port.c **** 
 509:Middlewares/Third_Party/FreeRTOS/Source/portable/GCC/ARM_CM0/port.c **** 				/* How many complete tick periods passed while the processor
 510:Middlewares/Third_Party/FreeRTOS/Source/portable/GCC/ARM_CM0/port.c **** 				was waiting? */
 511:Middlewares/Third_Party/FreeRTOS/Source/portable/GCC/ARM_CM0/port.c **** 				ulCompleteTickPeriods = ulCompletedSysTickDecrements / ulTimerCountsForOneTick;
 512:Middlewares/Third_Party/FreeRTOS/Source/portable/GCC/ARM_CM0/port.c **** 
 513:Middlewares/Third_Party/FreeRTOS/Source/portable/GCC/ARM_CM0/port.c **** 				/* The reload value is set to whatever fraction of a single tick
 514:Middlewares/Third_Party/FreeRTOS/Source/portable/GCC/ARM_CM0/port.c **** 				period remains. */
 515:Middlewares/Third_Party/FreeRTOS/Source/portable/GCC/ARM_CM0/port.c **** 				portNVIC_SYSTICK_LOAD = ( ( ulCompleteTickPeriods + 1 ) * ulTimerCountsForOneTick ) - ulComplet
 516:Middlewares/Third_Party/FreeRTOS/Source/portable/GCC/ARM_CM0/port.c **** 			}
 517:Middlewares/Third_Party/FreeRTOS/Source/portable/GCC/ARM_CM0/port.c **** 
 518:Middlewares/Third_Party/FreeRTOS/Source/portable/GCC/ARM_CM0/port.c **** 			/* Restart SysTick so it runs from portNVIC_SYSTICK_LOAD
 519:Middlewares/Third_Party/FreeRTOS/Source/portable/GCC/ARM_CM0/port.c **** 			again, then set portNVIC_SYSTICK_LOAD back to its standard
 520:Middlewares/Third_Party/FreeRTOS/Source/portable/GCC/ARM_CM0/port.c **** 			value.  The critical section is used to ensure the tick interrupt
 521:Middlewares/Third_Party/FreeRTOS/Source/portable/GCC/ARM_CM0/port.c **** 			can only execute once in the case that the reload register is near
 522:Middlewares/Third_Party/FreeRTOS/Source/portable/GCC/ARM_CM0/port.c **** 			zero. */
 523:Middlewares/Third_Party/FreeRTOS/Source/portable/GCC/ARM_CM0/port.c **** 			portNVIC_SYSTICK_CURRENT_VALUE = 0UL;
 524:Middlewares/Third_Party/FreeRTOS/Source/portable/GCC/ARM_CM0/port.c **** 			portENTER_CRITICAL();
 525:Middlewares/Third_Party/FreeRTOS/Source/portable/GCC/ARM_CM0/port.c **** 			{
 526:Middlewares/Third_Party/FreeRTOS/Source/portable/GCC/ARM_CM0/port.c **** 				portNVIC_SYSTICK_CTRL |= portNVIC_SYSTICK_ENABLE;
 527:Middlewares/Third_Party/FreeRTOS/Source/portable/GCC/ARM_CM0/port.c **** 				vTaskStepTick( ulCompleteTickPeriods );
 528:Middlewares/Third_Party/FreeRTOS/Source/portable/GCC/ARM_CM0/port.c **** 				portNVIC_SYSTICK_LOAD = ulTimerCountsForOneTick - 1UL;
 529:Middlewares/Third_Party/FreeRTOS/Source/portable/GCC/ARM_CM0/port.c **** 			}
 530:Middlewares/Third_Party/FreeRTOS/Source/portable/GCC/ARM_CM0/port.c **** 			portEXIT_CRITICAL();
 531:Middlewares/Third_Party/FreeRTOS/Source/portable/GCC/ARM_CM0/port.c **** 		}
 532:Middlewares/Third_Party/FreeRTOS/Source/portable/GCC/ARM_CM0/port.c **** 	}
 533:Middlewares/Third_Party/FreeRTOS/Source/portable/GCC/ARM_CM0/port.c **** 
 534:Middlewares/Third_Party/FreeRTOS/Source/portable/GCC/ARM_CM0/port.c **** #endif /* #if configUSE_TICKLESS_IDLE */
 535:Middlewares/Third_Party/FreeRTOS/Source/portable/GCC/ARM_CM0/port.c **** /*-----------------------------------------------------------*/
 536:Middlewares/Third_Party/FreeRTOS/Source/portable/GCC/ARM_CM0/port.c **** 
 537:Middlewares/Third_Party/FreeRTOS/Source/portable/GCC/ARM_CM0/port.c **** /*
 538:Middlewares/Third_Party/FreeRTOS/Source/portable/GCC/ARM_CM0/port.c ****  * Setup the systick timer to generate the tick interrupts at the required
 539:Middlewares/Third_Party/FreeRTOS/Source/portable/GCC/ARM_CM0/port.c ****  * frequency.
 540:Middlewares/Third_Party/FreeRTOS/Source/portable/GCC/ARM_CM0/port.c ****  */
 541:Middlewares/Third_Party/FreeRTOS/Source/portable/GCC/ARM_CM0/port.c **** void prvSetupTimerInterrupt( void )
 542:Middlewares/Third_Party/FreeRTOS/Source/portable/GCC/ARM_CM0/port.c **** {
 126              		.loc 1 542 0
 127              		.cfi_startproc
 128              		@ args = 0, pretend = 0, frame = 0
 129              		@ frame_needed = 0, uses_anonymous_args = 0
 130 0000 10B5     		push	{r4, lr}
 131              	.LCFI1:
 132              		.cfi_def_cfa_offset 8
 133              		.cfi_offset 4, -8
 134              		.cfi_offset 14, -4
 543:Middlewares/Third_Party/FreeRTOS/Source/portable/GCC/ARM_CM0/port.c ****  /* Calculate the constants required to configure the tick interrupt. */
 544:Middlewares/Third_Party/FreeRTOS/Source/portable/GCC/ARM_CM0/port.c ****  #if configUSE_TICKLESS_IDLE == 1
 545:Middlewares/Third_Party/FreeRTOS/Source/portable/GCC/ARM_CM0/port.c ****  {
 546:Middlewares/Third_Party/FreeRTOS/Source/portable/GCC/ARM_CM0/port.c ****    ulTimerCountsForOneTick = ( configSYSTICK_CLOCK_HZ / configTICK_RATE_HZ );
 547:Middlewares/Third_Party/FreeRTOS/Source/portable/GCC/ARM_CM0/port.c ****    xMaximumPossibleSuppressedTicks = portMAX_24_BIT_NUMBER / ulTimerCountsForOneTick;
 548:Middlewares/Third_Party/FreeRTOS/Source/portable/GCC/ARM_CM0/port.c ****    ulStoppedTimerCompensation = portMISSED_COUNTS_FACTOR / ( configCPU_CLOCK_HZ / configSYSTICK_CLO
 549:Middlewares/Third_Party/FreeRTOS/Source/portable/GCC/ARM_CM0/port.c ****  }
 550:Middlewares/Third_Party/FreeRTOS/Source/portable/GCC/ARM_CM0/port.c ****  #endif /* configUSE_TICKLESS_IDLE */
 551:Middlewares/Third_Party/FreeRTOS/Source/portable/GCC/ARM_CM0/port.c **** 
 552:Middlewares/Third_Party/FreeRTOS/Source/portable/GCC/ARM_CM0/port.c **** /* Stop and reset the SysTick. */
ARM GAS  /tmp/ccZ8HXST.s 			page 13


 553:Middlewares/Third_Party/FreeRTOS/Source/portable/GCC/ARM_CM0/port.c **** 	portNVIC_SYSTICK_CTRL = 0UL;
 135              		.loc 1 553 0
 136 0002 084C     		ldr	r4, .L9
 137 0004 0023     		movs	r3, #0
 138 0006 2360     		str	r3, [r4]
 554:Middlewares/Third_Party/FreeRTOS/Source/portable/GCC/ARM_CM0/port.c **** 	portNVIC_SYSTICK_CURRENT_VALUE = 0UL;
 139              		.loc 1 554 0
 140 0008 074A     		ldr	r2, .L9+4
 141 000a 1360     		str	r3, [r2]
 555:Middlewares/Third_Party/FreeRTOS/Source/portable/GCC/ARM_CM0/port.c **** 
 556:Middlewares/Third_Party/FreeRTOS/Source/portable/GCC/ARM_CM0/port.c ****  /* Configure SysTick to interrupt at the requested rate. */
 557:Middlewares/Third_Party/FreeRTOS/Source/portable/GCC/ARM_CM0/port.c ****  portNVIC_SYSTICK_LOAD = ( configCPU_CLOCK_HZ / configTICK_RATE_HZ ) - 1UL;
 142              		.loc 1 557 0
 143 000c 074B     		ldr	r3, .L9+8
 144 000e 1868     		ldr	r0, [r3]
 145 0010 FA21     		movs	r1, #250
 146 0012 8900     		lsls	r1, r1, #2
 147 0014 FFF7FEFF 		bl	__aeabi_uidiv
 148              	.LVL0:
 149 0018 0138     		subs	r0, r0, #1
 150 001a 054B     		ldr	r3, .L9+12
 151 001c 1860     		str	r0, [r3]
 558:Middlewares/Third_Party/FreeRTOS/Source/portable/GCC/ARM_CM0/port.c ****  portNVIC_SYSTICK_CTRL = portNVIC_SYSTICK_CLK | portNVIC_SYSTICK_INT | portNVIC_SYSTICK_ENABLE;
 152              		.loc 1 558 0
 153 001e 0723     		movs	r3, #7
 154 0020 2360     		str	r3, [r4]
 559:Middlewares/Third_Party/FreeRTOS/Source/portable/GCC/ARM_CM0/port.c **** }
 155              		.loc 1 559 0
 156              		@ sp needed
 157 0022 10BD     		pop	{r4, pc}
 158              	.L10:
 159              		.align	2
 160              	.L9:
 161 0024 10E000E0 		.word	-536813552
 162 0028 18E000E0 		.word	-536813544
 163 002c 00000000 		.word	SystemCoreClock
 164 0030 14E000E0 		.word	-536813548
 165              		.cfi_endproc
 166              	.LFE13:
 168              		.section	.text.pxPortInitialiseStack,"ax",%progbits
 169              		.align	1
 170              		.global	pxPortInitialiseStack
 171              		.syntax unified
 172              		.code	16
 173              		.thumb_func
 174              		.fpu softvfp
 176              	pxPortInitialiseStack:
 177              	.LFB0:
 134:Middlewares/Third_Party/FreeRTOS/Source/portable/GCC/ARM_CM0/port.c **** 	/* Simulate the stack frame as it would be created by a context switch
 178              		.loc 1 134 0
 179              		.cfi_startproc
 180              		@ args = 0, pretend = 0, frame = 0
 181              		@ frame_needed = 0, uses_anonymous_args = 0
 182              	.LVL1:
 183 0000 10B5     		push	{r4, lr}
 184              	.LCFI2:
 185              		.cfi_def_cfa_offset 8
ARM GAS  /tmp/ccZ8HXST.s 			page 14


 186              		.cfi_offset 4, -8
 187              		.cfi_offset 14, -4
 188              	.LVL2:
 138:Middlewares/Third_Party/FreeRTOS/Source/portable/GCC/ARM_CM0/port.c **** 	pxTopOfStack--;
 189              		.loc 1 138 0
 190 0002 031F     		subs	r3, r0, #4
 191              	.LVL3:
 192 0004 8024     		movs	r4, #128
 193 0006 6404     		lsls	r4, r4, #17
 194 0008 1C60     		str	r4, [r3]
 195              	.LVL4:
 140:Middlewares/Third_Party/FreeRTOS/Source/portable/GCC/ARM_CM0/port.c **** 	pxTopOfStack--;
 196              		.loc 1 140 0
 197 000a 043B     		subs	r3, r3, #4
 198 000c 1960     		str	r1, [r3]
 199              	.LVL5:
 142:Middlewares/Third_Party/FreeRTOS/Source/portable/GCC/ARM_CM0/port.c **** 	pxTopOfStack -= 5;	/* R12, R3, R2 and R1. */
 200              		.loc 1 142 0
 201 000e 043B     		subs	r3, r3, #4
 202 0010 0249     		ldr	r1, .L12
 203              	.LVL6:
 204 0012 1960     		str	r1, [r3]
 205              	.LVL7:
 144:Middlewares/Third_Party/FreeRTOS/Source/portable/GCC/ARM_CM0/port.c **** 	pxTopOfStack -= 8; /* R11..R4. */
 206              		.loc 1 144 0
 207 0014 143B     		subs	r3, r3, #20
 208              	.LVL8:
 209 0016 1A60     		str	r2, [r3]
 145:Middlewares/Third_Party/FreeRTOS/Source/portable/GCC/ARM_CM0/port.c **** 
 210              		.loc 1 145 0
 211 0018 4038     		subs	r0, r0, #64
 212              	.LVL9:
 148:Middlewares/Third_Party/FreeRTOS/Source/portable/GCC/ARM_CM0/port.c **** /*-----------------------------------------------------------*/
 213              		.loc 1 148 0
 214              		@ sp needed
 215 001a 10BD     		pop	{r4, pc}
 216              	.L13:
 217              		.align	2
 218              	.L12:
 219 001c 00000000 		.word	prvTaskExitError
 220              		.cfi_endproc
 221              	.LFE0:
 223              		.section	.text.SVC_Handler,"ax",%progbits
 224              		.align	1
 225              		.global	SVC_Handler
 226              		.syntax unified
 227              		.code	16
 228              		.thumb_func
 229              		.fpu softvfp
 231              	SVC_Handler:
 232              	.LFB2:
 177:Middlewares/Third_Party/FreeRTOS/Source/portable/GCC/ARM_CM0/port.c **** 	/* This function is no longer used, but retained for backward
 233              		.loc 1 177 0
 234              		.cfi_startproc
 235              		@ args = 0, pretend = 0, frame = 0
 236              		@ frame_needed = 0, uses_anonymous_args = 0
 237              		@ link register save eliminated.
ARM GAS  /tmp/ccZ8HXST.s 			page 15


 180:Middlewares/Third_Party/FreeRTOS/Source/portable/GCC/ARM_CM0/port.c **** /*-----------------------------------------------------------*/
 238              		.loc 1 180 0
 239              		@ sp needed
 240 0000 7047     		bx	lr
 241              		.cfi_endproc
 242              	.LFE2:
 244              		.section	.text.xPortStartScheduler,"ax",%progbits
 245              		.align	1
 246              		.global	xPortStartScheduler
 247              		.syntax unified
 248              		.code	16
 249              		.thumb_func
 250              		.fpu softvfp
 252              	xPortStartScheduler:
 253              	.LFB4:
 215:Middlewares/Third_Party/FreeRTOS/Source/portable/GCC/ARM_CM0/port.c **** 	/* Make PendSV, CallSV and SysTick the same priroity as the kernel. */
 254              		.loc 1 215 0
 255              		.cfi_startproc
 256              		@ args = 0, pretend = 0, frame = 0
 257              		@ frame_needed = 0, uses_anonymous_args = 0
 258 0000 10B5     		push	{r4, lr}
 259              	.LCFI3:
 260              		.cfi_def_cfa_offset 8
 261              		.cfi_offset 4, -8
 262              		.cfi_offset 14, -4
 217:Middlewares/Third_Party/FreeRTOS/Source/portable/GCC/ARM_CM0/port.c **** 	*(portNVIC_SYSPRI2) |= portNVIC_SYSTICK_PRI;
 263              		.loc 1 217 0
 264 0002 0C4B     		ldr	r3, .L16
 265 0004 1968     		ldr	r1, [r3]
 266 0006 FF22     		movs	r2, #255
 267 0008 1204     		lsls	r2, r2, #16
 268 000a 0A43     		orrs	r2, r1
 269 000c 1A60     		str	r2, [r3]
 218:Middlewares/Third_Party/FreeRTOS/Source/portable/GCC/ARM_CM0/port.c **** 
 270              		.loc 1 218 0
 271 000e 1968     		ldr	r1, [r3]
 272 0010 FF22     		movs	r2, #255
 273 0012 1206     		lsls	r2, r2, #24
 274 0014 0A43     		orrs	r2, r1
 275 0016 1A60     		str	r2, [r3]
 222:Middlewares/Third_Party/FreeRTOS/Source/portable/GCC/ARM_CM0/port.c **** 
 276              		.loc 1 222 0
 277 0018 FFF7FEFF 		bl	prvSetupTimerInterrupt
 278              	.LVL10:
 225:Middlewares/Third_Party/FreeRTOS/Source/portable/GCC/ARM_CM0/port.c **** 
 279              		.loc 1 225 0
 280 001c 064B     		ldr	r3, .L16+4
 281 001e 0022     		movs	r2, #0
 282 0020 1A60     		str	r2, [r3]
 228:Middlewares/Third_Party/FreeRTOS/Source/portable/GCC/ARM_CM0/port.c **** 
 283              		.loc 1 228 0
 284 0022 FFF7FEFF 		bl	vPortStartFirstTask
 285              	.LVL11:
 236:Middlewares/Third_Party/FreeRTOS/Source/portable/GCC/ARM_CM0/port.c **** 	prvTaskExitError();
 286              		.loc 1 236 0
 287 0026 FFF7FEFF 		bl	vTaskSwitchContext
 288              	.LVL12:
ARM GAS  /tmp/ccZ8HXST.s 			page 16


 237:Middlewares/Third_Party/FreeRTOS/Source/portable/GCC/ARM_CM0/port.c **** 
 289              		.loc 1 237 0
 290 002a FFF7FEFF 		bl	prvTaskExitError
 291              	.LVL13:
 241:Middlewares/Third_Party/FreeRTOS/Source/portable/GCC/ARM_CM0/port.c **** /*-----------------------------------------------------------*/
 292              		.loc 1 241 0
 293 002e 0020     		movs	r0, #0
 294              		@ sp needed
 295 0030 10BD     		pop	{r4, pc}
 296              	.L17:
 297 0032 C046     		.align	2
 298              	.L16:
 299 0034 20ED00E0 		.word	-536810208
 300 0038 00000000 		.word	.LANCHOR0
 301              		.cfi_endproc
 302              	.LFE4:
 304              		.section	.text.vPortEndScheduler,"ax",%progbits
 305              		.align	1
 306              		.global	vPortEndScheduler
 307              		.syntax unified
 308              		.code	16
 309              		.thumb_func
 310              		.fpu softvfp
 312              	vPortEndScheduler:
 313              	.LFB5:
 245:Middlewares/Third_Party/FreeRTOS/Source/portable/GCC/ARM_CM0/port.c **** 	/* Not implemented in ports where there is nothing to return to.
 314              		.loc 1 245 0
 315              		.cfi_startproc
 316              		@ args = 0, pretend = 0, frame = 0
 317              		@ frame_needed = 0, uses_anonymous_args = 0
 318              		@ link register save eliminated.
 248:Middlewares/Third_Party/FreeRTOS/Source/portable/GCC/ARM_CM0/port.c **** }
 319              		.loc 1 248 0
 320 0000 044B     		ldr	r3, .L21
 321 0002 1A68     		ldr	r2, [r3]
 322 0004 FA23     		movs	r3, #250
 323 0006 9B00     		lsls	r3, r3, #2
 324 0008 9A42     		cmp	r2, r3
 325 000a 01D0     		beq	.L18
 248:Middlewares/Third_Party/FreeRTOS/Source/portable/GCC/ARM_CM0/port.c **** }
 326              		.loc 1 248 0 is_stmt 0 discriminator 1
 327              		.syntax divided
 328              	@ 248 "Middlewares/Third_Party/FreeRTOS/Source/portable/GCC/ARM_CM0/port.c" 1
 329 000c 72B6     		 cpsid i 
 330              	@ 0 "" 2
 331              		.thumb
 332              		.syntax unified
 333              	.L20:
 334 000e FEE7     		b	.L20
 335              	.L18:
 249:Middlewares/Third_Party/FreeRTOS/Source/portable/GCC/ARM_CM0/port.c **** /*-----------------------------------------------------------*/
 336              		.loc 1 249 0 is_stmt 1
 337              		@ sp needed
 338 0010 7047     		bx	lr
 339              	.L22:
 340 0012 C046     		.align	2
 341              	.L21:
ARM GAS  /tmp/ccZ8HXST.s 			page 17


 342 0014 00000000 		.word	.LANCHOR0
 343              		.cfi_endproc
 344              	.LFE5:
 346              		.section	.text.vPortYield,"ax",%progbits
 347              		.align	1
 348              		.global	vPortYield
 349              		.syntax unified
 350              		.code	16
 351              		.thumb_func
 352              		.fpu softvfp
 354              	vPortYield:
 355              	.LFB6:
 253:Middlewares/Third_Party/FreeRTOS/Source/portable/GCC/ARM_CM0/port.c **** 	/* Set a PendSV to request a context switch. */
 356              		.loc 1 253 0
 357              		.cfi_startproc
 358              		@ args = 0, pretend = 0, frame = 0
 359              		@ frame_needed = 0, uses_anonymous_args = 0
 360              		@ link register save eliminated.
 255:Middlewares/Third_Party/FreeRTOS/Source/portable/GCC/ARM_CM0/port.c **** 
 361              		.loc 1 255 0
 362 0000 044B     		ldr	r3, .L24
 363 0002 8022     		movs	r2, #128
 364 0004 5205     		lsls	r2, r2, #21
 365 0006 1A60     		str	r2, [r3]
 259:Middlewares/Third_Party/FreeRTOS/Source/portable/GCC/ARM_CM0/port.c **** 	__asm volatile( "isb" );
 366              		.loc 1 259 0
 367              		.syntax divided
 368              	@ 259 "Middlewares/Third_Party/FreeRTOS/Source/portable/GCC/ARM_CM0/port.c" 1
 369 0008 BFF34F8F 		dsb
 370              	@ 0 "" 2
 260:Middlewares/Third_Party/FreeRTOS/Source/portable/GCC/ARM_CM0/port.c **** }
 371              		.loc 1 260 0
 372              	@ 260 "Middlewares/Third_Party/FreeRTOS/Source/portable/GCC/ARM_CM0/port.c" 1
 373 000c BFF36F8F 		isb
 374              	@ 0 "" 2
 261:Middlewares/Third_Party/FreeRTOS/Source/portable/GCC/ARM_CM0/port.c **** /*-----------------------------------------------------------*/
 375              		.loc 1 261 0
 376              		.thumb
 377              		.syntax unified
 378              		@ sp needed
 379 0010 7047     		bx	lr
 380              	.L25:
 381 0012 C046     		.align	2
 382              	.L24:
 383 0014 04ED00E0 		.word	-536810236
 384              		.cfi_endproc
 385              	.LFE6:
 387              		.section	.text.vPortEnterCritical,"ax",%progbits
 388              		.align	1
 389              		.global	vPortEnterCritical
 390              		.syntax unified
 391              		.code	16
 392              		.thumb_func
 393              		.fpu softvfp
 395              	vPortEnterCritical:
 396              	.LFB7:
 265:Middlewares/Third_Party/FreeRTOS/Source/portable/GCC/ARM_CM0/port.c ****     portDISABLE_INTERRUPTS();
ARM GAS  /tmp/ccZ8HXST.s 			page 18


 397              		.loc 1 265 0
 398              		.cfi_startproc
 399              		@ args = 0, pretend = 0, frame = 0
 400              		@ frame_needed = 0, uses_anonymous_args = 0
 401              		@ link register save eliminated.
 266:Middlewares/Third_Party/FreeRTOS/Source/portable/GCC/ARM_CM0/port.c ****     uxCriticalNesting++;
 402              		.loc 1 266 0
 403              		.syntax divided
 404              	@ 266 "Middlewares/Third_Party/FreeRTOS/Source/portable/GCC/ARM_CM0/port.c" 1
 405 0000 72B6     		 cpsid i 
 406              	@ 0 "" 2
 267:Middlewares/Third_Party/FreeRTOS/Source/portable/GCC/ARM_CM0/port.c **** 	__asm volatile( "dsb" ::: "memory" );
 407              		.loc 1 267 0
 408              		.thumb
 409              		.syntax unified
 410 0002 044A     		ldr	r2, .L27
 411 0004 1368     		ldr	r3, [r2]
 412 0006 0133     		adds	r3, r3, #1
 413 0008 1360     		str	r3, [r2]
 268:Middlewares/Third_Party/FreeRTOS/Source/portable/GCC/ARM_CM0/port.c **** 	__asm volatile( "isb" );
 414              		.loc 1 268 0
 415              		.syntax divided
 416              	@ 268 "Middlewares/Third_Party/FreeRTOS/Source/portable/GCC/ARM_CM0/port.c" 1
 417 000a BFF34F8F 		dsb
 418              	@ 0 "" 2
 269:Middlewares/Third_Party/FreeRTOS/Source/portable/GCC/ARM_CM0/port.c **** }
 419              		.loc 1 269 0
 420              	@ 269 "Middlewares/Third_Party/FreeRTOS/Source/portable/GCC/ARM_CM0/port.c" 1
 421 000e BFF36F8F 		isb
 422              	@ 0 "" 2
 270:Middlewares/Third_Party/FreeRTOS/Source/portable/GCC/ARM_CM0/port.c **** /*-----------------------------------------------------------*/
 423              		.loc 1 270 0
 424              		.thumb
 425              		.syntax unified
 426              		@ sp needed
 427 0012 7047     		bx	lr
 428              	.L28:
 429              		.align	2
 430              	.L27:
 431 0014 00000000 		.word	.LANCHOR0
 432              		.cfi_endproc
 433              	.LFE7:
 435              		.section	.text.vPortExitCritical,"ax",%progbits
 436              		.align	1
 437              		.global	vPortExitCritical
 438              		.syntax unified
 439              		.code	16
 440              		.thumb_func
 441              		.fpu softvfp
 443              	vPortExitCritical:
 444              	.LFB8:
 274:Middlewares/Third_Party/FreeRTOS/Source/portable/GCC/ARM_CM0/port.c **** 	configASSERT( uxCriticalNesting );
 445              		.loc 1 274 0
 446              		.cfi_startproc
 447              		@ args = 0, pretend = 0, frame = 0
 448              		@ frame_needed = 0, uses_anonymous_args = 0
 449              		@ link register save eliminated.
ARM GAS  /tmp/ccZ8HXST.s 			page 19


 275:Middlewares/Third_Party/FreeRTOS/Source/portable/GCC/ARM_CM0/port.c ****     uxCriticalNesting--;
 450              		.loc 1 275 0
 451 0000 064B     		ldr	r3, .L33
 452 0002 1B68     		ldr	r3, [r3]
 453 0004 002B     		cmp	r3, #0
 454 0006 01D1     		bne	.L30
 275:Middlewares/Third_Party/FreeRTOS/Source/portable/GCC/ARM_CM0/port.c ****     uxCriticalNesting--;
 455              		.loc 1 275 0 is_stmt 0 discriminator 1
 456              		.syntax divided
 457              	@ 275 "Middlewares/Third_Party/FreeRTOS/Source/portable/GCC/ARM_CM0/port.c" 1
 458 0008 72B6     		 cpsid i 
 459              	@ 0 "" 2
 460              		.thumb
 461              		.syntax unified
 462              	.L31:
 463 000a FEE7     		b	.L31
 464              	.L30:
 276:Middlewares/Third_Party/FreeRTOS/Source/portable/GCC/ARM_CM0/port.c ****     if( uxCriticalNesting == 0 )
 465              		.loc 1 276 0 is_stmt 1
 466 000c 013B     		subs	r3, r3, #1
 467 000e 034A     		ldr	r2, .L33
 468 0010 1360     		str	r3, [r2]
 277:Middlewares/Third_Party/FreeRTOS/Source/portable/GCC/ARM_CM0/port.c ****     {
 469              		.loc 1 277 0
 470 0012 002B     		cmp	r3, #0
 471 0014 00D1     		bne	.L29
 279:Middlewares/Third_Party/FreeRTOS/Source/portable/GCC/ARM_CM0/port.c ****     }
 472              		.loc 1 279 0
 473              		.syntax divided
 474              	@ 279 "Middlewares/Third_Party/FreeRTOS/Source/portable/GCC/ARM_CM0/port.c" 1
 475 0016 62B6     		 cpsie i 
 476              	@ 0 "" 2
 477              		.thumb
 478              		.syntax unified
 479              	.L29:
 281:Middlewares/Third_Party/FreeRTOS/Source/portable/GCC/ARM_CM0/port.c **** /*-----------------------------------------------------------*/
 480              		.loc 1 281 0
 481              		@ sp needed
 482 0018 7047     		bx	lr
 483              	.L34:
 484 001a C046     		.align	2
 485              	.L33:
 486 001c 00000000 		.word	.LANCHOR0
 487              		.cfi_endproc
 488              	.LFE8:
 490              		.section	.text.ulSetInterruptMaskFromISR,"ax",%progbits
 491              		.align	1
 492              		.global	ulSetInterruptMaskFromISR
 493              		.syntax unified
 494              		.code	16
 495              		.thumb_func
 496              		.fpu softvfp
 498              	ulSetInterruptMaskFromISR:
 499              	.LFB9:
 285:Middlewares/Third_Party/FreeRTOS/Source/portable/GCC/ARM_CM0/port.c **** 	__asm volatile(
 500              		.loc 1 285 0
 501              		.cfi_startproc
ARM GAS  /tmp/ccZ8HXST.s 			page 20


 502              		@ Naked Function: prologue and epilogue provided by programmer.
 503              		@ args = 0, pretend = 0, frame = 0
 504              		@ frame_needed = 0, uses_anonymous_args = 0
 286:Middlewares/Third_Party/FreeRTOS/Source/portable/GCC/ARM_CM0/port.c **** 					" mrs r0, PRIMASK	\n"
 505              		.loc 1 286 0
 506              		.syntax divided
 507              	@ 286 "Middlewares/Third_Party/FreeRTOS/Source/portable/GCC/ARM_CM0/port.c" 1
 508 0000 EFF31080 		 mrs r0, PRIMASK	
 509 0004 72B6     	 cpsid i			
 510 0006 7047     	 bx lr				  
 511              	@ 0 "" 2
 299:Middlewares/Third_Party/FreeRTOS/Source/portable/GCC/ARM_CM0/port.c **** /*-----------------------------------------------------------*/
 512              		.loc 1 299 0
 513              		.thumb
 514              		.syntax unified
 515              		.cfi_endproc
 516              	.LFE9:
 518              		.section	.text.vClearInterruptMaskFromISR,"ax",%progbits
 519              		.align	1
 520              		.global	vClearInterruptMaskFromISR
 521              		.syntax unified
 522              		.code	16
 523              		.thumb_func
 524              		.fpu softvfp
 526              	vClearInterruptMaskFromISR:
 527              	.LFB10:
 303:Middlewares/Third_Party/FreeRTOS/Source/portable/GCC/ARM_CM0/port.c **** 	__asm volatile(
 528              		.loc 1 303 0
 529              		.cfi_startproc
 530              		@ Naked Function: prologue and epilogue provided by programmer.
 531              		@ args = 0, pretend = 0, frame = 0
 532              		@ frame_needed = 0, uses_anonymous_args = 0
 533              	.LVL14:
 304:Middlewares/Third_Party/FreeRTOS/Source/portable/GCC/ARM_CM0/port.c **** 					" msr PRIMASK, r0	\n"
 534              		.loc 1 304 0
 535              		.syntax divided
 536              	@ 304 "Middlewares/Third_Party/FreeRTOS/Source/portable/GCC/ARM_CM0/port.c" 1
 537 0000 80F31088 		 msr PRIMASK, r0	
 538 0004 7047     	 bx lr				  
 539              	@ 0 "" 2
 316:Middlewares/Third_Party/FreeRTOS/Source/portable/GCC/ARM_CM0/port.c **** /*-----------------------------------------------------------*/
 540              		.loc 1 316 0
 541              		.thumb
 542              		.syntax unified
 543              		.cfi_endproc
 544              	.LFE10:
 546              		.section	.text.PendSV_Handler,"ax",%progbits
 547              		.align	1
 548              		.global	PendSV_Handler
 549              		.syntax unified
 550              		.code	16
 551              		.thumb_func
 552              		.fpu softvfp
 554              	PendSV_Handler:
 555              	.LFB11:
 320:Middlewares/Third_Party/FreeRTOS/Source/portable/GCC/ARM_CM0/port.c **** 	/* This is a naked function. */
 556              		.loc 1 320 0
ARM GAS  /tmp/ccZ8HXST.s 			page 21


 557              		.cfi_startproc
 558              		@ Naked Function: prologue and epilogue provided by programmer.
 559              		@ args = 0, pretend = 0, frame = 0
 560              		@ frame_needed = 0, uses_anonymous_args = 0
 323:Middlewares/Third_Party/FreeRTOS/Source/portable/GCC/ARM_CM0/port.c **** 	(
 561              		.loc 1 323 0
 562              		.syntax divided
 563              	@ 323 "Middlewares/Third_Party/FreeRTOS/Source/portable/GCC/ARM_CM0/port.c" 1
 564              			.syntax unified						
 565 0000 EFF30980 		mrs r0, psp							
 566              											
 567 0004 0E4B     		ldr	r3, pxCurrentTCBConst			
 568 0006 1A68     		ldr	r2, [r3]						
 569              											
 570 0008 2038     		subs r0, r0, #32					
 571 000a 1060     		str r0, [r2]						
 572 000c F0C0     		stmia r0!, {r4-r7}					
 573 000e 4446     	 	mov r4, r8							
 574 0010 4D46     	 	mov r5, r9							
 575 0012 5646     	 	mov r6, r10							
 576 0014 5F46     	 	mov r7, r11							
 577 0016 F0C0     	 	stmia r0!, {r4-r7}					
 578              											
 579 0018 08B5     		push {r3, r14}						
 580 001a 72B6     		cpsid i								
 581 001c FFF7FEFF 		bl vTaskSwitchContext				
 582 0020 62B6     		cpsie i								
 583 0022 0CBC     		pop {r2, r3}						
 584              											
 585 0024 1168     		ldr r1, [r2]						
 586 0026 0868     		ldr r0, [r1]						
 587 0028 1030     		adds r0, r0, #16					
 588 002a F0C8     		ldmia r0!, {r4-r7}					
 589 002c A046     	 	mov r8, r4							
 590 002e A946     	 	mov r9, r5							
 591 0030 B246     	 	mov r10, r6							
 592 0032 BB46     	 	mov r11, r7							
 593              											
 594 0034 80F30988 		msr psp, r0							
 595              											
 596 0038 2038     		subs r0, r0, #32					
 597 003a F0C8     	 	ldmia r0!, {r4-r7}					
 598              											
 599 003c 1847     		bx r3								
 600              											
 601 003e C046     		.align 4							
 602 0040 00000000 	pxCurrentTCBConst: .word pxCurrentTCB	  
 603              	@ 0 "" 2
 365:Middlewares/Third_Party/FreeRTOS/Source/portable/GCC/ARM_CM0/port.c **** /*-----------------------------------------------------------*/
 604              		.loc 1 365 0
 605              		.thumb
 606              		.syntax unified
 607              		.cfi_endproc
 608              	.LFE11:
 610              		.section	.text.SysTick_Handler,"ax",%progbits
 611              		.align	1
 612              		.global	SysTick_Handler
ARM GAS  /tmp/ccZ8HXST.s 			page 22


 613              		.syntax unified
 614              		.code	16
 615              		.thumb_func
 616              		.fpu softvfp
 618              	SysTick_Handler:
 619              	.LFB12:
 369:Middlewares/Third_Party/FreeRTOS/Source/portable/GCC/ARM_CM0/port.c **** uint32_t ulPreviousMask;
 620              		.loc 1 369 0
 621              		.cfi_startproc
 622              		@ args = 0, pretend = 0, frame = 0
 623              		@ frame_needed = 0, uses_anonymous_args = 0
 624 0000 10B5     		push	{r4, lr}
 625              	.LCFI4:
 626              		.cfi_def_cfa_offset 8
 627              		.cfi_offset 4, -8
 628              		.cfi_offset 14, -4
 372:Middlewares/Third_Party/FreeRTOS/Source/portable/GCC/ARM_CM0/port.c **** 	{
 629              		.loc 1 372 0
 630 0002 FFF7FEFF 		bl	ulSetInterruptMaskFromISR
 631              	.LVL15:
 632 0006 0400     		movs	r4, r0
 633              	.LVL16:
 375:Middlewares/Third_Party/FreeRTOS/Source/portable/GCC/ARM_CM0/port.c **** 		{
 634              		.loc 1 375 0
 635 0008 FFF7FEFF 		bl	xTaskIncrementTick
 636              	.LVL17:
 637 000c 0028     		cmp	r0, #0
 638 000e 03D0     		beq	.L39
 378:Middlewares/Third_Party/FreeRTOS/Source/portable/GCC/ARM_CM0/port.c **** 		}
 639              		.loc 1 378 0
 640 0010 034B     		ldr	r3, .L40
 641 0012 8022     		movs	r2, #128
 642 0014 5205     		lsls	r2, r2, #21
 643 0016 1A60     		str	r2, [r3]
 644              	.L39:
 381:Middlewares/Third_Party/FreeRTOS/Source/portable/GCC/ARM_CM0/port.c **** }
 645              		.loc 1 381 0
 646 0018 2000     		movs	r0, r4
 647 001a FFF7FEFF 		bl	vClearInterruptMaskFromISR
 648              	.LVL18:
 382:Middlewares/Third_Party/FreeRTOS/Source/portable/GCC/ARM_CM0/port.c **** /*-----------------------------------------------------------*/
 649              		.loc 1 382 0
 650              		@ sp needed
 651              	.LVL19:
 652 001e 10BD     		pop	{r4, pc}
 653              	.L41:
 654              		.align	2
 655              	.L40:
 656 0020 04ED00E0 		.word	-536810236
 657              		.cfi_endproc
 658              	.LFE12:
 660              		.section	.data.uxCriticalNesting,"aw",%progbits
 661              		.align	2
 662              		.set	.LANCHOR0,. + 0
 665              	uxCriticalNesting:
 666 0000 AAAAAAAA 		.word	-1431655766
 667              		.text
ARM GAS  /tmp/ccZ8HXST.s 			page 23


 668              	.Letext0:
 669              		.file 2 "/opt/gcc-arm-none-eabi-7-2018-q2-update/arm-none-eabi/include/machine/_default_types.h"
 670              		.file 3 "/opt/gcc-arm-none-eabi-7-2018-q2-update/arm-none-eabi/include/sys/_stdint.h"
 671              		.file 4 "Middlewares/Third_Party/FreeRTOS/Source/include/projdefs.h"
 672              		.file 5 "Middlewares/Third_Party/FreeRTOS/Source/portable/GCC/ARM_CM0/portmacro.h"
 673              		.file 6 "Middlewares/Third_Party/FreeRTOS/Source/include/task.h"
 674              		.file 7 "Inc/FreeRTOSConfig.h"
ARM GAS  /tmp/ccZ8HXST.s 			page 24

